
dist/cli/cli:	file format mach-o 64-bit x86-64

Disassembly of section __TEXT,__text:

0000000100003780 <__text>:
100003780: 55                          	push	rbp
100003781: 48 89 e5                    	mov	rbp, rsp
100003784: 48 8d 05 c5 8a 00 00        	lea	rax, [rip + 35525]      ## 0x10000c250 <dyld_stub_binder+0x10000c250>
10000378b: 48 8b 00                    	mov	rax, qword ptr [rax]
10000378e: 89 38                       	mov	dword ptr [rax], edi
100003790: 48 89 70 08                 	mov	qword ptr [rax + 8], rsi
100003794: 48 89 c7                    	mov	rdi, rax
100003797: 5d                          	pop	rbp
100003798: e9 43 11 00 00              	jmp	0x1000048e0 <__text+0x1160>
10000379d: 90                          	nop
10000379e: 90                          	nop
10000379f: 90                          	nop
1000037a0: 55                          	push	rbp
1000037a1: 48 89 e5                    	mov	rbp, rsp
1000037a4: 8b 06                       	mov	eax, dword ptr [rsi]
1000037a6: 48 01 f0                    	add	rax, rsi
1000037a9: 5d                          	pop	rbp
1000037aa: c3                          	ret
1000037ab: 0f 1f 44 00 00              	nop	dword ptr [rax + rax]
1000037b0: 55                          	push	rbp
1000037b1: 48 89 e5                    	mov	rbp, rsp
1000037b4: 41 57                       	push	r15
1000037b6: 41 56                       	push	r14
1000037b8: 41 55                       	push	r13
1000037ba: 41 54                       	push	r12
1000037bc: 53                          	push	rbx
1000037bd: 50                          	push	rax
1000037be: 49 89 f4                    	mov	r12, rsi
1000037c1: 48 89 fb                    	mov	rbx, rdi
1000037c4: 48 8d 35 c9 63 00 00        	lea	rsi, [rip + 25545]      ## 0x100009b94 <dyld_stub_binder+0x100009b94>
1000037cb: e8 96 5f 00 00              	call	0x100009766 <dyld_stub_binder+0x100009766>
1000037d0: 48 85 c0                    	test	rax, rax
1000037d3: 74 57                       	je	0x10000382c <__text+0xac>
1000037d5: 49 89 c7                    	mov	r15, rax
1000037d8: 41 8b 74 24 04              	mov	esi, dword ptr [r12 + 4]
1000037dd: 48 03 b3 00 04 00 00        	add	rsi, qword ptr [rbx + 1024]
1000037e4: 48 89 c7                    	mov	rdi, rax
1000037e7: 31 d2                       	xor	edx, edx
1000037e9: e8 96 5f 00 00              	call	0x100009784 <dyld_stub_binder+0x100009784>
1000037ee: 85 c0                       	test	eax, eax
1000037f0: 78 56                       	js	0x100003848 <__text+0xc8>
1000037f2: 45 8b 6c 24 0c              	mov	r13d, dword ptr [r12 + 12]
1000037f7: 4c 89 ef                    	mov	rdi, r13
1000037fa: e8 c1 5f 00 00              	call	0x1000097c0 <dyld_stub_binder+0x1000097c0>
1000037ff: 48 85 c0                    	test	rax, rax
100003802: 74 67                       	je	0x10000386b <__text+0xeb>
100003804: 48 89 c3                    	mov	rbx, rax
100003807: 41 80 7c 24 10 01           	cmp	byte ptr [r12 + 16], 1
10000380d: 75 7f                       	jne	0x10000388e <__text+0x10e>
10000380f: 4c 89 ff                    	mov	rdi, r15
100003812: 4c 89 e6                    	mov	rsi, r12
100003815: 31 d2                       	xor	edx, edx
100003817: 48 89 d9                    	mov	rcx, rbx
10000381a: e8 01 01 00 00              	call	0x100003920 <__text+0x1a0>
10000381f: 85 c0                       	test	eax, eax
100003821: 0f 85 d0 00 00 00           	jne	0x1000038f7 <__text+0x177>
100003827: e9 d5 00 00 00              	jmp	0x100003901 <__text+0x181>
10000382c: 49 83 c4 12                 	add	r12, 18
100003830: 48 8d 3d 60 63 00 00        	lea	rdi, [rip + 25440]      ## 0x100009b97 <dyld_stub_binder+0x100009b97>
100003837: 31 db                       	xor	ebx, ebx
100003839: 4c 89 e6                    	mov	rsi, r12
10000383c: 31 c0                       	xor	eax, eax
10000383e: e8 dd 09 00 00              	call	0x100004220 <__text+0xaa0>
100003843: e9 c1 00 00 00              	jmp	0x100003909 <__text+0x189>
100003848: 49 83 c4 12                 	add	r12, 18
10000384c: 48 8d 3d 78 63 00 00        	lea	rdi, [rip + 25464]      ## 0x100009bcb <dyld_stub_binder+0x100009bcb>
100003853: 48 8d 35 77 63 00 00        	lea	rsi, [rip + 25463]      ## 0x100009bd1 <dyld_stub_binder+0x100009bd1>
10000385a: 31 db                       	xor	ebx, ebx
10000385c: 4c 89 e2                    	mov	rdx, r12
10000385f: 31 c0                       	xor	eax, eax
100003861: e8 da 5d 00 00              	call	0x100009640 <__text+0x5ec0>
100003866: e9 96 00 00 00              	jmp	0x100003901 <__text+0x181>
10000386b: 49 83 c4 12                 	add	r12, 18
10000386f: 48 8d 3d 96 63 00 00        	lea	rdi, [rip + 25494]      ## 0x100009c0c <dyld_stub_binder+0x100009c0c>
100003876: 48 8d 35 96 63 00 00        	lea	rsi, [rip + 25494]      ## 0x100009c13 <dyld_stub_binder+0x100009c13>
10000387d: 31 db                       	xor	ebx, ebx
10000387f: 4c 89 e2                    	mov	rdx, r12
100003882: 44 89 e9                    	mov	ecx, r13d
100003885: 31 c0                       	xor	eax, eax
100003887: e8 b4 5d 00 00              	call	0x100009640 <__text+0x5ec0>
10000388c: eb 73                       	jmp	0x100003901 <__text+0x181>
10000388e: 45 85 ed                    	test	r13d, r13d
100003891: 74 6e                       	je	0x100003901 <__text+0x181>
100003893: 48 89 5d d0                 	mov	qword ptr [rbp - 48], rbx
100003897: 66 0f 1f 84 00 00 00 00 00  	nop	word ptr [rax + rax]
1000038a0: 49 81 fd 00 20 00 00        	cmp	r13, 8192
1000038a7: 41 be 00 20 00 00           	mov	r14d, 8192
1000038ad: 4d 0f 42 f5                 	cmovb	r14, r13
1000038b1: ba 01 00 00 00              	mov	edx, 1
1000038b6: 48 89 df                    	mov	rdi, rbx
1000038b9: 4c 89 f6                    	mov	rsi, r14
1000038bc: 4c 89 f9                    	mov	rcx, r15
1000038bf: e8 b4 5e 00 00              	call	0x100009778 <dyld_stub_binder+0x100009778>
1000038c4: 48 85 c0                    	test	rax, rax
1000038c7: 74 0e                       	je	0x1000038d7 <__text+0x157>
1000038c9: 4c 01 f3                    	add	rbx, r14
1000038cc: 4d 29 f5                    	sub	r13, r14
1000038cf: 75 cf                       	jne	0x1000038a0 <__text+0x120>
1000038d1: 48 8b 5d d0                 	mov	rbx, qword ptr [rbp - 48]
1000038d5: eb 2a                       	jmp	0x100003901 <__text+0x181>
1000038d7: 49 83 c4 12                 	add	r12, 18
1000038db: 48 8d 3d f7 63 00 00        	lea	rdi, [rip + 25591]      ## 0x100009cd9 <dyld_stub_binder+0x100009cd9>
1000038e2: 48 8d 35 a5 65 00 00        	lea	rsi, [rip + 26021]      ## 0x100009e8e <dyld_stub_binder+0x100009e8e>
1000038e9: 4c 89 e2                    	mov	rdx, r12
1000038ec: 31 c0                       	xor	eax, eax
1000038ee: e8 4d 5d 00 00              	call	0x100009640 <__text+0x5ec0>
1000038f3: 48 8b 5d d0                 	mov	rbx, qword ptr [rbp - 48]
1000038f7: 48 89 df                    	mov	rdi, rbx
1000038fa: e8 7f 5e 00 00              	call	0x10000977e <dyld_stub_binder+0x10000977e>
1000038ff: 31 db                       	xor	ebx, ebx
100003901: 4c 89 ff                    	mov	rdi, r15
100003904: e8 3f 5e 00 00              	call	0x100009748 <dyld_stub_binder+0x100009748>
100003909: 48 89 d8                    	mov	rax, rbx
10000390c: 48 83 c4 08                 	add	rsp, 8
100003910: 5b                          	pop	rbx
100003911: 41 5c                       	pop	r12
100003913: 41 5d                       	pop	r13
100003915: 41 5e                       	pop	r14
100003917: 41 5f                       	pop	r15
100003919: 5d                          	pop	rbp
10000391a: c3                          	ret
10000391b: 0f 1f 44 00 00              	nop	dword ptr [rax + rax]
100003920: 55                          	push	rbp
100003921: 48 89 e5                    	mov	rbp, rsp
100003924: 41 57                       	push	r15
100003926: 41 56                       	push	r14
100003928: 41 55                       	push	r13
10000392a: 41 54                       	push	r12
10000392c: 53                          	push	rbx
10000392d: 48 81 ec a8 00 00 00        	sub	rsp, 168
100003934: 49 89 cd                    	mov	r13, rcx
100003937: 49 89 d6                    	mov	r14, rdx
10000393a: 48 89 f3                    	mov	rbx, rsi
10000393d: 49 89 ff                    	mov	r15, rdi
100003940: c7 85 38 ff ff ff 00 00 00 00       	mov	dword ptr [rbp - 200], 0
10000394a: 48 c7 85 30 ff ff ff 00 00 00 00    	mov	qword ptr [rbp - 208], 0
100003955: 0f 57 c0                    	xorps	xmm0, xmm0
100003958: 0f 11 85 70 ff ff ff        	movups	xmmword ptr [rbp - 144], xmm0
10000395f: 48 c7 45 80 00 00 00 00     	mov	qword ptr [rbp - 128], 0
100003967: 48 8d 35 13 64 00 00        	lea	rsi, [rip + 25619]      ## 0x100009d81 <dyld_stub_binder+0x100009d81>
10000396e: 48 8d bd 30 ff ff ff        	lea	rdi, [rbp - 208]
100003975: ba 70 00 00 00              	mov	edx, 112
10000397a: e8 2f 5e 00 00              	call	0x1000097ae <dyld_stub_binder+0x1000097ae>
10000397f: 85 c0                       	test	eax, eax
100003981: 74 22                       	je	0x1000039a5 <__text+0x225>
100003983: 48 83 c3 12                 	add	rbx, 18
100003987: 48 8d 3d f9 63 00 00        	lea	rdi, [rip + 25593]      ## 0x100009d87 <dyld_stub_binder+0x100009d87>
10000398e: 48 89 de                    	mov	rsi, rbx
100003991: 89 c2                       	mov	edx, eax
100003993: 31 c0                       	xor	eax, eax
100003995: e8 86 08 00 00              	call	0x100004220 <__text+0xaa0>
10000399a: 41 bf ff ff ff ff           	mov	r15d, 4294967295
1000039a0: e9 36 02 00 00              	jmp	0x100003bdb <__text+0x45b>
1000039a5: 4c 89 75 c0                 	mov	qword ptr [rbp - 64], r14
1000039a9: bf 00 20 00 00              	mov	edi, 8192
1000039ae: e8 0d 5e 00 00              	call	0x1000097c0 <dyld_stub_binder+0x1000097c0>
1000039b3: 49 89 c6                    	mov	r14, rax
1000039b6: 48 85 c0                    	test	rax, rax
1000039b9: 0f 84 98 01 00 00           	je	0x100003b57 <__text+0x3d7>
1000039bf: bf 00 20 00 00              	mov	edi, 8192
1000039c4: e8 f7 5d 00 00              	call	0x1000097c0 <dyld_stub_binder+0x1000097c0>
1000039c9: 48 89 45 d0                 	mov	qword ptr [rbp - 48], rax
1000039cd: 48 85 c0                    	test	rax, rax
1000039d0: 0f 84 95 01 00 00           	je	0x100003b6b <__text+0x3eb>
1000039d6: 4c 89 6d b8                 	mov	qword ptr [rbp - 72], r13
1000039da: 4c 89 7d a0                 	mov	qword ptr [rbp - 96], r15
1000039de: 4c 89 75 c8                 	mov	qword ptr [rbp - 56], r14
1000039e2: 48 89 5d a8                 	mov	qword ptr [rbp - 88], rbx
1000039e6: 44 8b 63 08                 	mov	r12d, dword ptr [rbx + 8]
1000039ea: 49 81 fc 00 20 00 00        	cmp	r12, 8192
1000039f1: bb 00 20 00 00              	mov	ebx, 8192
1000039f6: 49 0f 42 dc                 	cmovb	rbx, r12
1000039fa: be 01 00 00 00              	mov	esi, 1
1000039ff: 4c 8b 75 c8                 	mov	r14, qword ptr [rbp - 56]
100003a03: 4c 89 f7                    	mov	rdi, r14
100003a06: 48 89 da                    	mov	rdx, rbx
100003a09: 4c 8b 6d a0                 	mov	r13, qword ptr [rbp - 96]
100003a0d: 4c 89 e9                    	mov	rcx, r13
100003a10: e8 63 5d 00 00              	call	0x100009778 <dyld_stub_binder+0x100009778>
100003a15: 41 bf ff ff ff ff           	mov	r15d, 4294967295
100003a1b: 48 39 d8                    	cmp	rax, rbx
100003a1e: 0f 85 cc 01 00 00           	jne	0x100003bf0 <__text+0x470>
100003a24: 4c 89 ef                    	mov	rdi, r13
100003a27: e8 28 5d 00 00              	call	0x100009754 <dyld_stub_binder+0x100009754>
100003a2c: 85 c0                       	test	eax, eax
100003a2e: 0f 85 bc 01 00 00           	jne	0x100003bf0 <__text+0x470>
100003a34: 49 29 dc                    	sub	r12, rbx
100003a37: 4c 89 65 b0                 	mov	qword ptr [rbp - 80], r12
100003a3b: 89 9d 38 ff ff ff           	mov	dword ptr [rbp - 200], ebx
100003a41: 4c 89 b5 30 ff ff ff        	mov	qword ptr [rbp - 208], r14
100003a48: 4c 8b 65 d0                 	mov	r12, qword ptr [rbp - 48]
100003a4c: 48 8b 5d c0                 	mov	rbx, qword ptr [rbp - 64]
100003a50: eb 42                       	jmp	0x100003a94 <__text+0x314>
100003a52: 66 2e 0f 1f 84 00 00 00 00 00       	nop	word ptr cs:[rax + rax]
100003a5c: 0f 1f 40 00                 	nop	dword ptr [rax]
100003a60: 48 8b 5d b8                 	mov	rbx, qword ptr [rbp - 72]
100003a64: 48 85 db                    	test	rbx, rbx
100003a67: 0f 84 af 00 00 00           	je	0x100003b1c <__text+0x39c>
100003a6d: 48 89 df                    	mov	rdi, rbx
100003a70: 4c 89 e6                    	mov	rsi, r12
100003a73: 4c 89 f2                    	mov	rdx, r14
100003a76: e8 57 5d 00 00              	call	0x1000097d2 <dyld_stub_binder+0x1000097d2>
100003a7b: 4c 01 f3                    	add	rbx, r14
100003a7e: 48 89 5d b8                 	mov	qword ptr [rbp - 72], rbx
100003a82: 48 8b 5d c0                 	mov	rbx, qword ptr [rbp - 64]
100003a86: 8b 85 50 ff ff ff           	mov	eax, dword ptr [rbp - 176]
100003a8c: 85 c0                       	test	eax, eax
100003a8e: 0f 85 9a 00 00 00           	jne	0x100003b2e <__text+0x3ae>
100003a94: c7 85 50 ff ff ff 00 20 00 00       	mov	dword ptr [rbp - 176], 8192
100003a9e: 4c 89 a5 48 ff ff ff        	mov	qword ptr [rbp - 184], r12
100003aa5: 48 8d bd 30 ff ff ff        	lea	rdi, [rbp - 208]
100003aac: 31 f6                       	xor	esi, esi
100003aae: e8 ef 5c 00 00              	call	0x1000097a2 <dyld_stub_binder+0x1000097a2>
100003ab3: 41 89 c5                    	mov	r13d, eax
100003ab6: 41 8d 45 04                 	lea	eax, [r13 + 4]
100003aba: 83 f8 07                    	cmp	eax, 7
100003abd: 73 0e                       	jae	0x100003acd <__text+0x34d>
100003abf: b9 47 00 00 00              	mov	ecx, 71
100003ac4: 0f a3 c1                    	bt	ecx, eax
100003ac7: 0f 82 c2 00 00 00           	jb	0x100003b8f <__text+0x40f>
100003acd: 8b 85 50 ff ff ff           	mov	eax, dword ptr [rbp - 176]
100003ad3: 41 be 00 20 00 00           	mov	r14d, 8192
100003ad9: 49 29 c6                    	sub	r14, rax
100003adc: 48 85 db                    	test	rbx, rbx
100003adf: 0f 84 7b ff ff ff           	je	0x100003a60 <__text+0x2e0>
100003ae5: be 01 00 00 00              	mov	esi, 1
100003aea: 4c 89 e7                    	mov	rdi, r12
100003aed: 4c 89 f2                    	mov	rdx, r14
100003af0: 48 89 d9                    	mov	rcx, rbx
100003af3: e8 98 5c 00 00              	call	0x100009790 <dyld_stub_binder+0x100009790>
100003af8: 41 bf ff ff ff ff           	mov	r15d, 4294967295
100003afe: 4c 39 f0                    	cmp	rax, r14
100003b01: 0f 85 95 00 00 00           	jne	0x100003b9c <__text+0x41c>
100003b07: 48 89 df                    	mov	rdi, rbx
100003b0a: e8 45 5c 00 00              	call	0x100009754 <dyld_stub_binder+0x100009754>
100003b0f: 85 c0                       	test	eax, eax
100003b11: 0f 84 6f ff ff ff           	je	0x100003a86 <__text+0x306>
100003b17: e9 80 00 00 00              	jmp	0x100003b9c <__text+0x41c>
100003b1c: 31 c9                       	xor	ecx, ecx
100003b1e: 48 89 4d b8                 	mov	qword ptr [rbp - 72], rcx
100003b22: 48 8b 5d c0                 	mov	rbx, qword ptr [rbp - 64]
100003b26: 85 c0                       	test	eax, eax
100003b28: 0f 84 66 ff ff ff           	je	0x100003a94 <__text+0x314>
100003b2e: 4c 8b 65 b0                 	mov	r12, qword ptr [rbp - 80]
100003b32: 4d 85 e4                    	test	r12, r12
100003b35: 74 0a                       	je	0x100003b41 <__text+0x3c1>
100003b37: 41 83 fd 01                 	cmp	r13d, 1
100003b3b: 0f 85 a9 fe ff ff           	jne	0x1000039ea <__text+0x26a>
100003b41: 45 89 ef                    	mov	r15d, r13d
100003b44: 41 83 fd 01                 	cmp	r13d, 1
100003b48: 4c 8b 65 d0                 	mov	r12, qword ptr [rbp - 48]
100003b4c: 75 4e                       	jne	0x100003b9c <__text+0x41c>
100003b4e: 45 31 ff                    	xor	r15d, r15d
100003b51: 4c 8b 75 c8                 	mov	r14, qword ptr [rbp - 56]
100003b55: eb 68                       	jmp	0x100003bbf <__text+0x43f>
100003b57: 48 83 c3 12                 	add	rbx, 18
100003b5b: 48 8d 3d aa 60 00 00        	lea	rdi, [rip + 24746]      ## 0x100009c0c <dyld_stub_binder+0x100009c0c>
100003b62: 48 8d 35 5f 62 00 00        	lea	rsi, [rip + 25183]      ## 0x100009dc8 <dyld_stub_binder+0x100009dc8>
100003b69: eb 12                       	jmp	0x100003b7d <__text+0x3fd>
100003b6b: 48 83 c3 12                 	add	rbx, 18
100003b6f: 48 8d 3d 96 60 00 00        	lea	rdi, [rip + 24726]      ## 0x100009c0c <dyld_stub_binder+0x100009c0c>
100003b76: 48 8d 35 8d 62 00 00        	lea	rsi, [rip + 25229]      ## 0x100009e0a <dyld_stub_binder+0x100009e0a>
100003b7d: 48 89 da                    	mov	rdx, rbx
100003b80: 45 31 e4                    	xor	r12d, r12d
100003b83: 31 c0                       	xor	eax, eax
100003b85: e8 b6 5a 00 00              	call	0x100009640 <__text+0x5ec0>
100003b8a: 45 31 ff                    	xor	r15d, r15d
100003b8d: eb 30                       	jmp	0x100003bbf <__text+0x43f>
100003b8f: 48 98                       	cdqe
100003b91: 48 8d 0d d8 5f 00 00        	lea	rcx, [rip + 24536]      ## 0x100009b70 <dyld_stub_binder+0x100009b70>
100003b98: 44 8b 3c 81                 	mov	r15d, dword ptr [rcx + 4*rax]
100003b9c: 48 8b 75 a8                 	mov	rsi, qword ptr [rbp - 88]
100003ba0: 48 83 c6 12                 	add	rsi, 18
100003ba4: 48 8d 3d a2 62 00 00        	lea	rdi, [rip + 25250]      ## 0x100009e4d <dyld_stub_binder+0x100009e4d>
100003bab: 44 89 fa                    	mov	edx, r15d
100003bae: 31 c0                       	xor	eax, eax
100003bb0: e8 6b 06 00 00              	call	0x100004220 <__text+0xaa0>
100003bb5: 4c 8b 75 c8                 	mov	r14, qword ptr [rbp - 56]
100003bb9: 41 bf ff ff ff ff           	mov	r15d, 4294967295
100003bbf: 48 8d bd 30 ff ff ff        	lea	rdi, [rbp - 208]
100003bc6: e8 dd 5b 00 00              	call	0x1000097a8 <dyld_stub_binder+0x1000097a8>
100003bcb: 4c 89 f7                    	mov	rdi, r14
100003bce: e8 ab 5b 00 00              	call	0x10000977e <dyld_stub_binder+0x10000977e>
100003bd3: 4c 89 e7                    	mov	rdi, r12
100003bd6: e8 a3 5b 00 00              	call	0x10000977e <dyld_stub_binder+0x10000977e>
100003bdb: 44 89 f8                    	mov	eax, r15d
100003bde: 48 81 c4 a8 00 00 00        	add	rsp, 168
100003be5: 5b                          	pop	rbx
100003be6: 41 5c                       	pop	r12
100003be8: 41 5d                       	pop	r13
100003bea: 41 5e                       	pop	r14
100003bec: 41 5f                       	pop	r15
100003bee: 5d                          	pop	rbp
100003bef: c3                          	ret
100003bf0: 4c 8b 65 d0                 	mov	r12, qword ptr [rbp - 48]
100003bf4: eb c9                       	jmp	0x100003bbf <__text+0x43f>
100003bf6: 66 2e 0f 1f 84 00 00 00 00 00       	nop	word ptr cs:[rax + rax]
100003c00: 55                          	push	rbp
100003c01: 48 89 e5                    	mov	rbp, rsp
100003c04: 41 57                       	push	r15
100003c06: 41 56                       	push	r14
100003c08: 41 55                       	push	r13
100003c0a: 41 54                       	push	r12
100003c0c: 53                          	push	rbx
100003c0d: 48 83 ec 18                 	sub	rsp, 24
100003c11: 49 89 d6                    	mov	r14, rdx
100003c14: 49 89 f7                    	mov	r15, rsi
100003c17: 49 89 fc                    	mov	r12, rdi
100003c1a: 80 7e 11 6e                 	cmp	byte ptr [rsi + 17], 110
100003c1e: 75 38                       	jne	0x100003c58 <__text+0x4d8>
100003c20: 4c 89 e7                    	mov	rdi, r12
100003c23: 4c 89 fe                    	mov	rsi, r15
100003c26: e8 85 fb ff ff              	call	0x1000037b0 <__text+0x30>
100003c2b: 48 85 c0                    	test	rax, rax
100003c2e: 0f 84 97 00 00 00           	je	0x100003ccb <__text+0x54b>
100003c34: 48 89 c3                    	mov	rbx, rax
100003c37: 48 89 c7                    	mov	rdi, rax
100003c3a: 4c 89 f6                    	mov	rsi, r14
100003c3d: e8 3e 18 00 00              	call	0x100005480 <__text+0x1d00>
100003c42: 41 89 c4                    	mov	r12d, eax
100003c45: 48 89 df                    	mov	rdi, rbx
100003c48: e8 31 5b 00 00              	call	0x10000977e <dyld_stub_binder+0x10000977e>
100003c4d: 45 85 e4                    	test	r12d, r12d
100003c50: 0f 89 3f 02 00 00           	jns	0x100003e95 <__text+0x715>
100003c56: eb 79                       	jmp	0x100003cd1 <__text+0x551>
100003c58: 48 8d 35 1a 60 00 00        	lea	rsi, [rip + 24602]      ## 0x100009c79 <dyld_stub_binder+0x100009c79>
100003c5f: 4c 89 f7                    	mov	rdi, r14
100003c62: e8 ff 5a 00 00              	call	0x100009766 <dyld_stub_binder+0x100009766>
100003c67: 48 85 c0                    	test	rax, rax
100003c6a: 74 7f                       	je	0x100003ceb <__text+0x56b>
100003c6c: 49 89 c6                    	mov	r14, rax
100003c6f: 48 8d 35 1e 5f 00 00        	lea	rsi, [rip + 24350]      ## 0x100009b94 <dyld_stub_binder+0x100009b94>
100003c76: 4c 89 e7                    	mov	rdi, r12
100003c79: e8 e8 5a 00 00              	call	0x100009766 <dyld_stub_binder+0x100009766>
100003c7e: 48 85 c0                    	test	rax, rax
100003c81: 0f 84 8b 00 00 00           	je	0x100003d12 <__text+0x592>
100003c87: 49 89 c5                    	mov	r13, rax
100003c8a: 41 8b 77 04                 	mov	esi, dword ptr [r15 + 4]
100003c8e: 49 03 b4 24 00 04 00 00     	add	rsi, qword ptr [r12 + 1024]
100003c96: 48 89 c7                    	mov	rdi, rax
100003c99: 31 d2                       	xor	edx, edx
100003c9b: e8 e4 5a 00 00              	call	0x100009784 <dyld_stub_binder+0x100009784>
100003ca0: 85 c0                       	test	eax, eax
100003ca2: 0f 88 8a 00 00 00           	js	0x100003d32 <__text+0x5b2>
100003ca8: 41 80 7f 10 01              	cmp	byte ptr [r15 + 16], 1
100003cad: 0f 85 a7 00 00 00           	jne	0x100003d5a <__text+0x5da>
100003cb3: 4c 89 ef                    	mov	rdi, r13
100003cb6: 4c 89 fe                    	mov	rsi, r15
100003cb9: 4c 89 f2                    	mov	rdx, r14
100003cbc: 31 c9                       	xor	ecx, ecx
100003cbe: e8 5d fc ff ff              	call	0x100003920 <__text+0x1a0>
100003cc3: 89 45 d4                    	mov	dword ptr [rbp - 44], eax
100003cc6: e9 92 01 00 00              	jmp	0x100003e5d <__text+0x6dd>
100003ccb: 41 bc ff ff ff ff           	mov	r12d, 4294967295
100003cd1: 49 83 c7 12                 	add	r15, 18
100003cd5: 48 8d 3d 79 5f 00 00        	lea	rdi, [rip + 24441]      ## 0x100009c55 <dyld_stub_binder+0x100009c55>
100003cdc: 4c 89 fe                    	mov	rsi, r15
100003cdf: 31 c0                       	xor	eax, eax
100003ce1: e8 3a 05 00 00              	call	0x100004220 <__text+0xaa0>
100003ce6: e9 aa 01 00 00              	jmp	0x100003e95 <__text+0x715>
100003ceb: 49 83 c7 12                 	add	r15, 18
100003cef: 48 8d 3d 86 5f 00 00        	lea	rdi, [rip + 24454]      ## 0x100009c7c <dyld_stub_binder+0x100009c7c>
100003cf6: 48 8d 35 85 5f 00 00        	lea	rsi, [rip + 24453]      ## 0x100009c82 <dyld_stub_binder+0x100009c82>
100003cfd: 4c 89 fa                    	mov	rdx, r15
100003d00: 31 c0                       	xor	eax, eax
100003d02: e8 39 59 00 00              	call	0x100009640 <__text+0x5ec0>
100003d07: 41 bc ff ff ff ff           	mov	r12d, 4294967295
100003d0d: e9 83 01 00 00              	jmp	0x100003e95 <__text+0x715>
100003d12: 49 83 c7 12                 	add	r15, 18
100003d16: 48 8d 3d 7a 5e 00 00        	lea	rdi, [rip + 24186]      ## 0x100009b97 <dyld_stub_binder+0x100009b97>
100003d1d: 4c 89 fe                    	mov	rsi, r15
100003d20: 31 c0                       	xor	eax, eax
100003d22: e8 f9 04 00 00              	call	0x100004220 <__text+0xaa0>
100003d27: 41 bc ff ff ff ff           	mov	r12d, 4294967295
100003d2d: e9 5b 01 00 00              	jmp	0x100003e8d <__text+0x70d>
100003d32: 49 83 c7 12                 	add	r15, 18
100003d36: 48 8d 3d 8e 5e 00 00        	lea	rdi, [rip + 24206]      ## 0x100009bcb <dyld_stub_binder+0x100009bcb>
100003d3d: 48 8d 35 8d 5e 00 00        	lea	rsi, [rip + 24205]      ## 0x100009bd1 <dyld_stub_binder+0x100009bd1>
100003d44: 4c 89 fa                    	mov	rdx, r15
100003d47: 31 c0                       	xor	eax, eax
100003d49: e8 f2 58 00 00              	call	0x100009640 <__text+0x5ec0>
100003d4e: c7 45 d4 ff ff ff ff        	mov	dword ptr [rbp - 44], 4294967295
100003d55: e9 27 01 00 00              	jmp	0x100003e81 <__text+0x701>
100003d5a: bf 00 20 00 00              	mov	edi, 8192
100003d5f: e8 5c 5a 00 00              	call	0x1000097c0 <dyld_stub_binder+0x1000097c0>
100003d64: 48 85 c0                    	test	rax, rax
100003d67: 74 79                       	je	0x100003de2 <__text+0x662>
100003d69: 49 89 c4                    	mov	r12, rax
100003d6c: 4c 89 6d c8                 	mov	qword ptr [rbp - 56], r13
100003d70: 45 8b 6f 0c                 	mov	r13d, dword ptr [r15 + 12]
100003d74: c7 45 d4 00 00 00 00        	mov	dword ptr [rbp - 44], 0
100003d7b: 4d 85 ed                    	test	r13, r13
100003d7e: 0f 84 cd 00 00 00           	je	0x100003e51 <__text+0x6d1>
100003d84: 4c 89 75 c0                 	mov	qword ptr [rbp - 64], r14
100003d88: 0f 1f 84 00 00 00 00 00     	nop	dword ptr [rax + rax]
100003d90: 49 81 fd 00 20 00 00        	cmp	r13, 8192
100003d97: bb 00 20 00 00              	mov	ebx, 8192
100003d9c: 49 0f 42 dd                 	cmovb	rbx, r13
100003da0: ba 01 00 00 00              	mov	edx, 1
100003da5: 4d 89 e6                    	mov	r14, r12
100003da8: 4c 89 e7                    	mov	rdi, r12
100003dab: 48 89 de                    	mov	rsi, rbx
100003dae: 48 8b 4d c8                 	mov	rcx, qword ptr [rbp - 56]
100003db2: e8 c1 59 00 00              	call	0x100009778 <dyld_stub_binder+0x100009778>
100003db7: 48 85 c0                    	test	rax, rax
100003dba: 74 48                       	je	0x100003e04 <__text+0x684>
100003dbc: ba 01 00 00 00              	mov	edx, 1
100003dc1: 4d 89 f4                    	mov	r12, r14
100003dc4: 4c 89 f7                    	mov	rdi, r14
100003dc7: 48 89 de                    	mov	rsi, rbx
100003dca: 4c 8b 75 c0                 	mov	r14, qword ptr [rbp - 64]
100003dce: 4c 89 f1                    	mov	rcx, r14
100003dd1: e8 ba 59 00 00              	call	0x100009790 <dyld_stub_binder+0x100009790>
100003dd6: 48 85 c0                    	test	rax, rax
100003dd9: 74 56                       	je	0x100003e31 <__text+0x6b1>
100003ddb: 49 29 dd                    	sub	r13, rbx
100003dde: 75 b0                       	jne	0x100003d90 <__text+0x610>
100003de0: eb 6f                       	jmp	0x100003e51 <__text+0x6d1>
100003de2: 49 8d 57 12                 	lea	rdx, [r15 + 18]
100003de6: 48 8d 3d 1f 5e 00 00        	lea	rdi, [rip + 24095]      ## 0x100009c0c <dyld_stub_binder+0x100009c0c>
100003ded: 48 8d 35 cc 60 00 00        	lea	rsi, [rip + 24780]      ## 0x100009ec0 <dyld_stub_binder+0x100009ec0>
100003df4: 31 c0                       	xor	eax, eax
100003df6: e8 45 58 00 00              	call	0x100009640 <__text+0x5ec0>
100003dfb: c7 45 d4 ff ff ff ff        	mov	dword ptr [rbp - 44], 4294967295
100003e02: eb 59                       	jmp	0x100003e5d <__text+0x6dd>
100003e04: 49 8d 57 12                 	lea	rdx, [r15 + 18]
100003e08: 48 8d 3d ca 5e 00 00        	lea	rdi, [rip + 24266]      ## 0x100009cd9 <dyld_stub_binder+0x100009cd9>
100003e0f: 48 8d 35 78 60 00 00        	lea	rsi, [rip + 24696]      ## 0x100009e8e <dyld_stub_binder+0x100009e8e>
100003e16: 31 c0                       	xor	eax, eax
100003e18: e8 23 58 00 00              	call	0x100009640 <__text+0x5ec0>
100003e1d: c7 45 d4 ff ff ff ff        	mov	dword ptr [rbp - 44], 4294967295
100003e24: 4c 8b 6d c8                 	mov	r13, qword ptr [rbp - 56]
100003e28: 4d 89 f4                    	mov	r12, r14
100003e2b: 4c 8b 75 c0                 	mov	r14, qword ptr [rbp - 64]
100003e2f: eb 24                       	jmp	0x100003e55 <__text+0x6d5>
100003e31: 49 8d 57 12                 	lea	rdx, [r15 + 18]
100003e35: 48 8d 3d c0 60 00 00        	lea	rdi, [rip + 24768]      ## 0x100009efc <dyld_stub_binder+0x100009efc>
100003e3c: 48 8d 35 c0 60 00 00        	lea	rsi, [rip + 24768]      ## 0x100009f03 <dyld_stub_binder+0x100009f03>
100003e43: 31 c0                       	xor	eax, eax
100003e45: e8 f6 57 00 00              	call	0x100009640 <__text+0x5ec0>
100003e4a: c7 45 d4 ff ff ff ff        	mov	dword ptr [rbp - 44], 4294967295
100003e51: 4c 8b 6d c8                 	mov	r13, qword ptr [rbp - 56]
100003e55: 4c 89 e7                    	mov	rdi, r12
100003e58: e8 21 59 00 00              	call	0x10000977e <dyld_stub_binder+0x10000977e>
100003e5d: 41 8a 5f 11                 	mov	bl, byte ptr [r15 + 17]
100003e61: 4c 89 f7                    	mov	rdi, r14
100003e64: e8 f7 58 00 00              	call	0x100009760 <dyld_stub_binder+0x100009760>
100003e69: 89 c7                       	mov	edi, eax
100003e6b: 80 fb 62                    	cmp	bl, 98
100003e6e: 75 07                       	jne	0x100003e77 <__text+0x6f7>
100003e70: be c0 01 00 00              	mov	esi, 448
100003e75: eb 05                       	jmp	0x100003e7c <__text+0x6fc>
100003e77: be 80 01 00 00              	mov	esi, 384
100003e7c: e8 c1 58 00 00              	call	0x100009742 <dyld_stub_binder+0x100009742>
100003e81: 4c 89 ef                    	mov	rdi, r13
100003e84: e8 bf 58 00 00              	call	0x100009748 <dyld_stub_binder+0x100009748>
100003e89: 44 8b 65 d4                 	mov	r12d, dword ptr [rbp - 44]
100003e8d: 4c 89 f7                    	mov	rdi, r14
100003e90: e8 b3 58 00 00              	call	0x100009748 <dyld_stub_binder+0x100009748>
100003e95: 44 89 e0                    	mov	eax, r12d
100003e98: 48 83 c4 18                 	add	rsp, 24
100003e9c: 5b                          	pop	rbx
100003e9d: 41 5c                       	pop	r12
100003e9f: 41 5d                       	pop	r13
100003ea1: 41 5e                       	pop	r14
100003ea3: 41 5f                       	pop	r15
100003ea5: 5d                          	pop	rbp
100003ea6: c3                          	ret
100003ea7: 66 0f 1f 84 00 00 00 00 00  	nop	word ptr [rax + rax]
100003eb0: 55                          	push	rbp
100003eb1: 48 89 e5                    	mov	rbp, rsp
100003eb4: 41 57                       	push	r15
100003eb6: 41 56                       	push	r14
100003eb8: 41 55                       	push	r13
100003eba: 41 54                       	push	r12
100003ebc: 53                          	push	rbx
100003ebd: 48 83 ec 68                 	sub	rsp, 104
100003ec1: 48 89 fb                    	mov	rbx, rdi
100003ec4: 48 8b 05 3d 81 00 00        	mov	rax, qword ptr [rip + 33085] ## 0x10000c008 <dyld_stub_binder+0x10000c008>
100003ecb: 48 8b 00                    	mov	rax, qword ptr [rax]
100003ece: 48 89 45 d0                 	mov	qword ptr [rbp - 48], rax
100003ed2: 48 8d 35 bb 5c 00 00        	lea	rsi, [rip + 23739]      ## 0x100009b94 <dyld_stub_binder+0x100009b94>
100003ed9: e8 88 58 00 00              	call	0x100009766 <dyld_stub_binder+0x100009766>
100003ede: 48 85 c0                    	test	rax, rax
100003ee1: 0f 84 7c 01 00 00           	je	0x100004063 <__text+0x8e3>
100003ee7: 49 89 c7                    	mov	r15, rax
100003eea: 48 8d 05 9b 5c 00 00        	lea	rax, [rip + 23707]      ## 0x100009b8c <dyld_stub_binder+0x100009b8c>
100003ef1: 48 8b 00                    	mov	rax, qword ptr [rax]
100003ef4: 48 89 85 78 ff ff ff        	mov	qword ptr [rbp - 136], rax
100003efb: 48 c1 e8 18                 	shr	rax, 24
100003eff: 04 0c                       	add	al, 12
100003f01: 88 85 7b ff ff ff           	mov	byte ptr [rbp - 133], al
100003f07: 48 8d b5 78 ff ff ff        	lea	rsi, [rbp - 136]
100003f0e: ba 08 00 00 00              	mov	edx, 8
100003f13: 4c 89 ff                    	mov	rdi, r15
100003f16: e8 f5 49 00 00              	call	0x100008910 <__text+0x5190>
100003f1b: 48 85 c0                    	test	rax, rax
100003f1e: 0f 84 44 01 00 00           	je	0x100004068 <__text+0x8e8>
100003f24: 49 89 c4                    	mov	r12, rax
100003f27: 4c 89 ff                    	mov	rdi, r15
100003f2a: 48 89 c6                    	mov	rsi, rax
100003f2d: 31 d2                       	xor	edx, edx
100003f2f: e8 50 58 00 00              	call	0x100009784 <dyld_stub_binder+0x100009784>
100003f34: 85 c0                       	test	eax, eax
100003f36: 0f 88 31 01 00 00           	js	0x10000406d <__text+0x8ed>
100003f3c: 48 8d bd 78 ff ff ff        	lea	rdi, [rbp - 136]
100003f43: be 58 00 00 00              	mov	esi, 88
100003f48: ba 01 00 00 00              	mov	edx, 1
100003f4d: 4c 89 f9                    	mov	rcx, r15
100003f50: e8 23 58 00 00              	call	0x100009778 <dyld_stub_binder+0x100009778>
100003f55: 48 85 c0                    	test	rax, rax
100003f58: 0f 84 1f 01 00 00           	je	0x10000407d <__text+0x8fd>
100003f5e: bf 01 00 00 00              	mov	edi, 1
100003f63: be 60 04 00 00              	mov	esi, 1120
100003f68: e8 9f 57 00 00              	call	0x10000970c <dyld_stub_binder+0x10000970c>
100003f6d: 48 85 c0                    	test	rax, rax
100003f70: 0f 84 17 01 00 00           	je	0x10000408d <__text+0x90d>
100003f76: 49 89 c6                    	mov	r14, rax
100003f79: 4c 8d 2d b0 5d 00 00        	lea	r13, [rip + 23984]      ## 0x100009d30 <dyld_stub_binder+0x100009d30>
100003f80: be 00 04 00 00              	mov	esi, 1024
100003f85: 48 89 c7                    	mov	rdi, rax
100003f88: 4c 89 ea                    	mov	rdx, r13
100003f8b: 48 89 d9                    	mov	rcx, rbx
100003f8e: 31 c0                       	xor	eax, eax
100003f90: e8 85 58 00 00              	call	0x10000981a <dyld_stub_binder+0x10000981a>
100003f95: f3 0f 6f 45 80              	movdqu	xmm0, xmmword ptr [rbp - 128]
100003f9a: 66 0f 38 00 05 bd 5b 00 00  	pshufb	xmm0, xmmword ptr [rip + 23485] ## 0x100009b60 <dyld_stub_binder+0x100009b60>
100003fa3: 66 41 0f 3a 16 86 1c 04 00 00 03    	pextrd	dword ptr [r14 + 1052], xmm0, 3
100003fae: f3 0f 7f 45 80              	movdqu	xmmword ptr [rbp - 128], xmm0
100003fb3: 4c 89 f7                    	mov	rdi, r14
100003fb6: 48 81 c7 20 04 00 00        	add	rdi, 1056
100003fbd: 48 8d 4d 90                 	lea	rcx, [rbp - 112]
100003fc1: be 40 00 00 00              	mov	esi, 64
100003fc6: 4c 89 ea                    	mov	rdx, r13
100003fc9: 31 c0                       	xor	eax, eax
100003fcb: e8 4a 58 00 00              	call	0x10000981a <dyld_stub_binder+0x10000981a>
100003fd0: 8b 45 80                    	mov	eax, dword ptr [rbp - 128]
100003fd3: 49 29 c4                    	sub	r12, rax
100003fd6: 49 8d 44 24 58              	lea	rax, [r12 + 88]
100003fdb: 49 89 86 00 04 00 00        	mov	qword ptr [r14 + 1024], rax
100003fe2: 8b 45 84                    	mov	eax, dword ptr [rbp - 124]
100003fe5: 49 8d 34 04                 	lea	rsi, [r12 + rax]
100003fe9: 48 83 c6 58                 	add	rsi, 88
100003fed: 4c 89 ff                    	mov	rdi, r15
100003ff0: 31 d2                       	xor	edx, edx
100003ff2: e8 8d 57 00 00              	call	0x100009784 <dyld_stub_binder+0x100009784>
100003ff7: 44 8b 65 88                 	mov	r12d, dword ptr [rbp - 120]
100003ffb: 4c 89 e7                    	mov	rdi, r12
100003ffe: e8 bd 57 00 00              	call	0x1000097c0 <dyld_stub_binder+0x1000097c0>
100004003: 49 89 86 08 04 00 00        	mov	qword ptr [r14 + 1032], rax
10000400a: 48 85 c0                    	test	rax, rax
10000400d: 0f 84 c0 00 00 00           	je	0x1000040d3 <__text+0x953>
100004013: 48 89 c3                    	mov	rbx, rax
100004016: ba 01 00 00 00              	mov	edx, 1
10000401b: 48 89 c7                    	mov	rdi, rax
10000401e: 4c 89 e6                    	mov	rsi, r12
100004021: 4c 89 f9                    	mov	rcx, r15
100004024: e8 4f 57 00 00              	call	0x100009778 <dyld_stub_binder+0x100009778>
100004029: 48 85 c0                    	test	rax, rax
10000402c: 0f 84 b1 00 00 00           	je	0x1000040e3 <__text+0x963>
100004032: 44 8b 6d 88                 	mov	r13d, dword ptr [rbp - 120]
100004036: 49 89 dc                    	mov	r12, rbx
100004039: 4d 01 ec                    	add	r12, r13
10000403c: 4d 89 a6 10 04 00 00        	mov	qword ptr [r14 + 1040], r12
100004043: 4c 89 ff                    	mov	rdi, r15
100004046: e8 09 57 00 00              	call	0x100009754 <dyld_stub_binder+0x100009754>
10000404b: 85 c0                       	test	eax, eax
10000404d: 0f 84 a0 00 00 00           	je	0x1000040f3 <__text+0x973>
100004053: 48 8d 3d 17 5d 00 00        	lea	rdi, [rip + 23831]      ## 0x100009d71 <dyld_stub_binder+0x100009d71>
10000405a: 31 c0                       	xor	eax, eax
10000405c: e8 bf 01 00 00              	call	0x100004220 <__text+0xaa0>
100004061: eb 42                       	jmp	0x1000040a5 <__text+0x925>
100004063: 45 31 f6                    	xor	r14d, r14d
100004066: eb 45                       	jmp	0x1000040ad <__text+0x92d>
100004068: 45 31 f6                    	xor	r14d, r14d
10000406b: eb 38                       	jmp	0x1000040a5 <__text+0x925>
10000406d: 48 8d 3d 57 5b 00 00        	lea	rdi, [rip + 23383]      ## 0x100009bcb <dyld_stub_binder+0x100009bcb>
100004074: 48 8d 35 3a 5c 00 00        	lea	rsi, [rip + 23610]      ## 0x100009cb5 <dyld_stub_binder+0x100009cb5>
10000407b: eb 1e                       	jmp	0x10000409b <__text+0x91b>
10000407d: 48 8d 3d 55 5c 00 00        	lea	rdi, [rip + 23637]      ## 0x100009cd9 <dyld_stub_binder+0x100009cd9>
100004084: 48 8d 35 54 5c 00 00        	lea	rsi, [rip + 23636]      ## 0x100009cdf <dyld_stub_binder+0x100009cdf>
10000408b: eb 0e                       	jmp	0x10000409b <__text+0x91b>
10000408d: 48 8d 3d 63 5c 00 00        	lea	rdi, [rip + 23651]      ## 0x100009cf7 <dyld_stub_binder+0x100009cf7>
100004094: 48 8d 35 63 5c 00 00        	lea	rsi, [rip + 23651]      ## 0x100009cfe <dyld_stub_binder+0x100009cfe>
10000409b: 45 31 f6                    	xor	r14d, r14d
10000409e: 31 c0                       	xor	eax, eax
1000040a0: e8 9b 55 00 00              	call	0x100009640 <__text+0x5ec0>
1000040a5: 4c 89 ff                    	mov	rdi, r15
1000040a8: e8 9b 56 00 00              	call	0x100009748 <dyld_stub_binder+0x100009748>
1000040ad: 48 8b 05 54 7f 00 00        	mov	rax, qword ptr [rip + 32596] ## 0x10000c008 <dyld_stub_binder+0x10000c008>
1000040b4: 48 8b 00                    	mov	rax, qword ptr [rax]
1000040b7: 48 3b 45 d0                 	cmp	rax, qword ptr [rbp - 48]
1000040bb: 0f 85 8b 00 00 00           	jne	0x10000414c <__text+0x9cc>
1000040c1: 4c 89 f0                    	mov	rax, r14
1000040c4: 48 83 c4 68                 	add	rsp, 104
1000040c8: 5b                          	pop	rbx
1000040c9: 41 5c                       	pop	r12
1000040cb: 41 5d                       	pop	r13
1000040cd: 41 5e                       	pop	r14
1000040cf: 41 5f                       	pop	r15
1000040d1: 5d                          	pop	rbp
1000040d2: c3                          	ret
1000040d3: 48 8d 3d 32 5b 00 00        	lea	rdi, [rip + 23346]      ## 0x100009c0c <dyld_stub_binder+0x100009c0c>
1000040da: 48 8d 35 52 5c 00 00        	lea	rsi, [rip + 23634]      ## 0x100009d33 <dyld_stub_binder+0x100009d33>
1000040e1: eb bb                       	jmp	0x10000409e <__text+0x91e>
1000040e3: 48 8d 3d ef 5b 00 00        	lea	rdi, [rip + 23535]      ## 0x100009cd9 <dyld_stub_binder+0x100009cd9>
1000040ea: 48 8d 35 66 5c 00 00        	lea	rsi, [rip + 23654]      ## 0x100009d57 <dyld_stub_binder+0x100009d57>
1000040f1: eb ab                       	jmp	0x10000409e <__text+0x91e>
1000040f3: 45 85 ed                    	test	r13d, r13d
1000040f6: 74 ad                       	je	0x1000040a5 <__text+0x925>
1000040f8: 41 8a 86 18 04 00 00        	mov	al, byte ptr [r14 + 1048]
1000040ff: 66 0f 6f 05 59 5a 00 00     	movdqa	xmm0, xmmword ptr [rip + 23129] ## 0x100009b60 <dyld_stub_binder+0x100009b60>
100004107: b9 01 05 10 40              	mov	ecx, 1074791681
10000410c: eb 10                       	jmp	0x10000411e <__text+0x99e>
10000410e: 31 d2                       	xor	edx, edx
100004110: 08 d0                       	or	al, dl
100004112: 66 0f 7e ca                 	movd	edx, xmm1
100004116: 48 01 d3                    	add	rbx, rdx
100004119: 49 39 dc                    	cmp	r12, rbx
10000411c: 76 22                       	jbe	0x100004140 <__text+0x9c0>
10000411e: f3 0f 6f 0b                 	movdqu	xmm1, xmmword ptr [rbx]
100004122: 66 0f 38 00 c8              	pshufb	xmm1, xmm0
100004127: f3 0f 7f 0b                 	movdqu	xmmword ptr [rbx], xmm1
10000412b: 0f be 73 11                 	movsx	esi, byte ptr [rbx + 17]
10000412f: 83 c6 a6                    	add	esi, -90
100004132: 83 fe 1e                    	cmp	esi, 30
100004135: 77 d7                       	ja	0x10000410e <__text+0x98e>
100004137: b2 01                       	mov	dl, 1
100004139: 0f a3 f1                    	bt	ecx, esi
10000413c: 72 d2                       	jb	0x100004110 <__text+0x990>
10000413e: eb ce                       	jmp	0x10000410e <__text+0x98e>
100004140: 41 88 86 18 04 00 00        	mov	byte ptr [r14 + 1048], al
100004147: e9 59 ff ff ff              	jmp	0x1000040a5 <__text+0x925>
10000414c: e8 af 55 00 00              	call	0x100009700 <dyld_stub_binder+0x100009700>
100004151: 66 2e 0f 1f 84 00 00 00 00 00       	nop	word ptr cs:[rax + rax]
10000415b: 0f 1f 44 00 00              	nop	dword ptr [rax + rax]
100004160: 55                          	push	rbp
100004161: 48 89 e5                    	mov	rbp, rsp
100004164: 53                          	push	rbx
100004165: 50                          	push	rax
100004166: 48 8b 1f                    	mov	rbx, qword ptr [rdi]
100004169: 48 c7 07 00 00 00 00        	mov	qword ptr [rdi], 0
100004170: 48 85 db                    	test	rbx, rbx
100004173: 74 1a                       	je	0x10000418f <__text+0xa0f>
100004175: 48 8b bb 08 04 00 00        	mov	rdi, qword ptr [rbx + 1032]
10000417c: e8 fd 55 00 00              	call	0x10000977e <dyld_stub_binder+0x10000977e>
100004181: 48 89 df                    	mov	rdi, rbx
100004184: 48 83 c4 08                 	add	rsp, 8
100004188: 5b                          	pop	rbx
100004189: 5d                          	pop	rbp
10000418a: e9 ef 55 00 00              	jmp	0x10000977e <dyld_stub_binder+0x10000977e>
10000418f: 48 83 c4 08                 	add	rsp, 8
100004193: 5b                          	pop	rbx
100004194: 5d                          	pop	rbp
100004195: c3                          	ret
100004196: 66 2e 0f 1f 84 00 00 00 00 00       	nop	word ptr cs:[rax + rax]
1000041a0: 55                          	push	rbp
1000041a1: 48 89 e5                    	mov	rbp, rsp
1000041a4: 41 57                       	push	r15
1000041a6: 41 56                       	push	r14
1000041a8: 41 54                       	push	r12
1000041aa: 53                          	push	rbx
1000041ab: 48 8b 9f 08 04 00 00        	mov	rbx, qword ptr [rdi + 1032]
1000041b2: 4c 8b bf 10 04 00 00        	mov	r15, qword ptr [rdi + 1040]
1000041b9: 4c 39 fb                    	cmp	rbx, r15
1000041bc: 73 52                       	jae	0x100004210 <__text+0xa90>
1000041be: 49 89 f6                    	mov	r14, rsi
1000041c1: 41 bc 01 05 10 40           	mov	r12d, 1074791681
1000041c7: 66 0f 1f 84 00 00 00 00 00  	nop	word ptr [rax + rax]
1000041d0: 0f be 43 11                 	movsx	eax, byte ptr [rbx + 17]
1000041d4: 83 c0 a6                    	add	eax, -90
1000041d7: 83 f8 1e                    	cmp	eax, 30
1000041da: 77 22                       	ja	0x1000041fe <__text+0xa7e>
1000041dc: 41 0f a3 c4                 	bt	r12d, eax
1000041e0: 73 1c                       	jae	0x1000041fe <__text+0xa7e>
1000041e2: 48 8d 7b 12                 	lea	rdi, [rbx + 18]
1000041e6: 4c 89 f6                    	mov	rsi, r14
1000041e9: e8 38 56 00 00              	call	0x100009826 <dyld_stub_binder+0x100009826>
1000041ee: 85 c0                       	test	eax, eax
1000041f0: 74 20                       	je	0x100004212 <__text+0xa92>
1000041f2: 8b 03                       	mov	eax, dword ptr [rbx]
1000041f4: 48 01 c3                    	add	rbx, rax
1000041f7: 49 39 df                    	cmp	r15, rbx
1000041fa: 77 d4                       	ja	0x1000041d0 <__text+0xa50>
1000041fc: eb 12                       	jmp	0x100004210 <__text+0xa90>
1000041fe: 48 8d 7b 12                 	lea	rdi, [rbx + 18]
100004202: 4c 89 f6                    	mov	rsi, r14
100004205: e8 28 56 00 00              	call	0x100009832 <dyld_stub_binder+0x100009832>
10000420a: 85 c0                       	test	eax, eax
10000420c: 75 e4                       	jne	0x1000041f2 <__text+0xa72>
10000420e: eb 02                       	jmp	0x100004212 <__text+0xa92>
100004210: 31 db                       	xor	ebx, ebx
100004212: 48 89 d8                    	mov	rax, rbx
100004215: 5b                          	pop	rbx
100004216: 41 5c                       	pop	r12
100004218: 41 5e                       	pop	r14
10000421a: 41 5f                       	pop	r15
10000421c: 5d                          	pop	rbp
10000421d: c3                          	ret
10000421e: 90                          	nop
10000421f: 90                          	nop
100004220: 55                          	push	rbp
100004221: 48 89 e5                    	mov	rbp, rsp
100004224: 41 57                       	push	r15
100004226: 41 56                       	push	r14
100004228: 53                          	push	rbx
100004229: 48 81 ec d8 00 00 00        	sub	rsp, 216
100004230: 49 89 fe                    	mov	r14, rdi
100004233: 84 c0                       	test	al, al
100004235: 74 2c                       	je	0x100004263 <__text+0xae3>
100004237: 0f 29 85 40 ff ff ff        	movaps	xmmword ptr [rbp - 192], xmm0
10000423e: 0f 29 8d 50 ff ff ff        	movaps	xmmword ptr [rbp - 176], xmm1
100004245: 0f 29 95 60 ff ff ff        	movaps	xmmword ptr [rbp - 160], xmm2
10000424c: 0f 29 9d 70 ff ff ff        	movaps	xmmword ptr [rbp - 144], xmm3
100004253: 0f 29 65 80                 	movaps	xmmword ptr [rbp - 128], xmm4
100004257: 0f 29 6d 90                 	movaps	xmmword ptr [rbp - 112], xmm5
10000425b: 0f 29 75 a0                 	movaps	xmmword ptr [rbp - 96], xmm6
10000425f: 0f 29 7d b0                 	movaps	xmmword ptr [rbp - 80], xmm7
100004263: 48 89 b5 18 ff ff ff        	mov	qword ptr [rbp - 232], rsi
10000426a: 48 89 95 20 ff ff ff        	mov	qword ptr [rbp - 224], rdx
100004271: 48 89 8d 28 ff ff ff        	mov	qword ptr [rbp - 216], rcx
100004278: 4c 89 85 30 ff ff ff        	mov	qword ptr [rbp - 208], r8
10000427f: 4c 89 8d 38 ff ff ff        	mov	qword ptr [rbp - 200], r9
100004286: 48 8b 05 7b 7d 00 00        	mov	rax, qword ptr [rip + 32123] ## 0x10000c008 <dyld_stub_binder+0x10000c008>
10000428d: 48 8b 00                    	mov	rax, qword ptr [rax]
100004290: 48 89 45 e0                 	mov	qword ptr [rbp - 32], rax
100004294: 4c 8b 3d 75 7d 00 00        	mov	r15, qword ptr [rip + 32117] ## 0x10000c010 <dyld_stub_binder+0x10000c010>
10000429b: 49 8b 1f                    	mov	rbx, qword ptr [r15]
10000429e: e8 f9 54 00 00              	call	0x10000979c <dyld_stub_binder+0x10000979c>
1000042a3: 48 8d 35 8c 5c 00 00        	lea	rsi, [rip + 23692]      ## 0x100009f36 <dyld_stub_binder+0x100009f36>
1000042aa: 48 89 df                    	mov	rdi, rbx
1000042ad: 89 c2                       	mov	edx, eax
1000042af: 31 c0                       	xor	eax, eax
1000042b1: e8 bc 54 00 00              	call	0x100009772 <dyld_stub_binder+0x100009772>
1000042b6: 48 b8 08 00 00 00 30 00 00 00       	movabs	rax, 206158430216
1000042c0: 48 89 45 c0                 	mov	qword ptr [rbp - 64], rax
1000042c4: 48 8d 45 10                 	lea	rax, [rbp + 16]
1000042c8: 48 89 45 c8                 	mov	qword ptr [rbp - 56], rax
1000042cc: 48 8d 85 10 ff ff ff        	lea	rax, [rbp - 240]
1000042d3: 48 89 45 d0                 	mov	qword ptr [rbp - 48], rax
1000042d7: 49 8b 3f                    	mov	rdi, qword ptr [r15]
1000042da: 48 8d 55 c0                 	lea	rdx, [rbp - 64]
1000042de: 4c 89 f6                    	mov	rsi, r14
1000042e1: e8 94 55 00 00              	call	0x10000987a <dyld_stub_binder+0x10000987a>
1000042e6: 48 8b 05 1b 7d 00 00        	mov	rax, qword ptr [rip + 32027] ## 0x10000c008 <dyld_stub_binder+0x10000c008>
1000042ed: 48 8b 00                    	mov	rax, qword ptr [rax]
1000042f0: 48 3b 45 e0                 	cmp	rax, qword ptr [rbp - 32]
1000042f4: 75 0e                       	jne	0x100004304 <__text+0xb84>
1000042f6: 48 81 c4 d8 00 00 00        	add	rsp, 216
1000042fd: 5b                          	pop	rbx
1000042fe: 41 5e                       	pop	r14
100004300: 41 5f                       	pop	r15
100004302: 5d                          	pop	rbp
100004303: c3                          	ret
100004304: e8 f7 53 00 00              	call	0x100009700 <dyld_stub_binder+0x100009700>
100004309: 0f 1f 80 00 00 00 00        	nop	dword ptr [rax]
100004310: 55                          	push	rbp
100004311: 48 89 e5                    	mov	rbp, rsp
100004314: 41 57                       	push	r15
100004316: 41 56                       	push	r14
100004318: 41 55                       	push	r13
10000431a: 41 54                       	push	r12
10000431c: 53                          	push	rbx
10000431d: 48 81 ec b8 0c 00 00        	sub	rsp, 3256
100004324: 48 8b 05 dd 7c 00 00        	mov	rax, qword ptr [rip + 31965] ## 0x10000c008 <dyld_stub_binder+0x10000c008>
10000432b: 48 8b 00                    	mov	rax, qword ptr [rax]
10000432e: 48 89 45 d0                 	mov	qword ptr [rbp - 48], rax
100004332: 4c 8b b7 20 08 00 00        	mov	r14, qword ptr [rdi + 2080]
100004339: 0f 57 c0                    	xorps	xmm0, xmm0
10000433c: 0f 29 85 30 fb ff ff        	movaps	xmmword ptr [rbp - 1232], xmm0
100004343: 0f 29 85 40 fb ff ff        	movaps	xmmword ptr [rbp - 1216], xmm0
10000434a: 0f 29 85 50 fb ff ff        	movaps	xmmword ptr [rbp - 1200], xmm0
100004351: 0f 29 85 60 fb ff ff        	movaps	xmmword ptr [rbp - 1184], xmm0
100004358: 0f 29 85 70 fb ff ff        	movaps	xmmword ptr [rbp - 1168], xmm0
10000435f: 0f 29 85 80 fb ff ff        	movaps	xmmword ptr [rbp - 1152], xmm0
100004366: 0f 29 85 90 fb ff ff        	movaps	xmmword ptr [rbp - 1136], xmm0
10000436d: 0f 29 85 a0 fb ff ff        	movaps	xmmword ptr [rbp - 1120], xmm0
100004374: 0f 29 85 b0 fb ff ff        	movaps	xmmword ptr [rbp - 1104], xmm0
10000437b: 0f 29 85 c0 fb ff ff        	movaps	xmmword ptr [rbp - 1088], xmm0
100004382: 49 8b 9e 08 04 00 00        	mov	rbx, qword ptr [r14 + 1032]
100004389: 45 31 ed                    	xor	r13d, r13d
10000438c: 49 3b 9e 10 04 00 00        	cmp	rbx, qword ptr [r14 + 1040]
100004393: 0f 83 e9 01 00 00           	jae	0x100004582 <__text+0xe02>
100004399: 49 89 ff                    	mov	r15, rdi
10000439c: 48 8d 87 32 08 00 00        	lea	rax, [rdi + 2098]
1000043a3: 48 89 85 28 f3 ff ff        	mov	qword ptr [rbp - 3288], rax
1000043aa: eb 3c                       	jmp	0x1000043e8 <__text+0xc68>
1000043ac: 0f 1f 40 00                 	nop	dword ptr [rax]
1000043b0: 4c 89 f7                    	mov	rdi, r14
1000043b3: 48 89 de                    	mov	rsi, rbx
1000043b6: 48 8d 95 d0 fb ff ff        	lea	rdx, [rbp - 1072]
1000043bd: e8 3e f8 ff ff              	call	0x100003c00 <__text+0x480>
1000043c2: 41 89 c5                    	mov	r13d, eax
1000043c5: 85 c0                       	test	eax, eax
1000043c7: 0f 85 a0 01 00 00           	jne	0x10000456d <__text+0xded>
1000043cd: 4c 89 f7                    	mov	rdi, r14
1000043d0: 48 89 de                    	mov	rsi, rbx
1000043d3: e8 c8 f3 ff ff              	call	0x1000037a0 <__text+0x20>
1000043d8: 48 89 c3                    	mov	rbx, rax
1000043db: 49 3b 86 10 04 00 00        	cmp	rax, qword ptr [r14 + 1040]
1000043e2: 0f 83 4d 01 00 00           	jae	0x100004535 <__text+0xdb5>
1000043e8: 0f be 43 11                 	movsx	eax, byte ptr [rbx + 17]
1000043ec: 83 c0 a6                    	add	eax, -90
1000043ef: 83 f8 1e                    	cmp	eax, 30
1000043f2: 77 d9                       	ja	0x1000043cd <__text+0xc4d>
1000043f4: b9 01 01 10 40              	mov	ecx, 1074790657
1000043f9: 0f a3 c1                    	bt	ecx, eax
1000043fc: 0f 83 fe 00 00 00           	jae	0x100004500 <__text+0xd80>
100004402: 4c 8d 6b 12                 	lea	r13, [rbx + 18]
100004406: 48 8d 85 d0 fb ff ff        	lea	rax, [rbp - 1072]
10000440d: 49 8b bf 28 08 00 00        	mov	rdi, qword ptr [r15 + 2088]
100004414: 48 85 ff                    	test	rdi, rdi
100004417: 74 0f                       	je	0x100004428 <__text+0xca8>
100004419: 4c 89 ee                    	mov	rsi, r13
10000441c: e8 af 38 00 00              	call	0x100007cd0 <__text+0x4550>
100004421: 48 8d 85 d0 fb ff ff        	lea	rax, [rbp - 1072]
100004428: be 00 04 00 00              	mov	esi, 1024
10000442d: 48 89 c7                    	mov	rdi, rax
100004430: 48 8d 15 05 5b 00 00        	lea	rdx, [rip + 23301]      ## 0x100009f3c <dyld_stub_binder+0x100009f3c>
100004437: 49 89 c4                    	mov	r12, rax
10000443a: 48 8b 8d 28 f3 ff ff        	mov	rcx, qword ptr [rbp - 3288]
100004441: 41 b8 2f 00 00 00           	mov	r8d, 47
100004447: 4d 89 e9                    	mov	r9, r13
10000444a: 31 c0                       	xor	eax, eax
10000444c: e8 c9 53 00 00              	call	0x10000981a <dyld_stub_binder+0x10000981a>
100004451: 3d 00 04 00 00              	cmp	eax, 1024
100004456: 0f 8d e8 00 00 00           	jge	0x100004544 <__text+0xdc4>
10000445c: 4c 89 e7                    	mov	rdi, r12
10000445f: e8 ac 0f 00 00              	call	0x100005410 <__text+0x1c90>
100004464: 83 f8 01                    	cmp	eax, 1
100004467: 75 40                       	jne	0x1000044a9 <__text+0xd29>
100004469: 49 8b bf 28 08 00 00        	mov	rdi, qword ptr [r15 + 2088]
100004470: 48 85 ff                    	test	rdi, rdi
100004473: 74 11                       	je	0x100004486 <__text+0xd06>
100004475: 4c 89 ee                    	mov	rsi, r13
100004478: e8 e3 35 00 00              	call	0x100007a60 <__text+0x42e0>
10000447d: 83 f8 01                    	cmp	eax, 1
100004480: 0f 84 47 ff ff ff           	je	0x1000043cd <__text+0xc4d>
100004486: 41 80 bf 41 0c 00 00 00     	cmp	byte ptr [r15 + 3137], 0
10000448e: 0f 85 44 01 00 00           	jne	0x1000045d8 <__text+0xe58>
100004494: 48 8d 3d 05 5b 00 00        	lea	rdi, [rip + 23301]      ## 0x100009fa0 <dyld_stub_binder+0x100009fa0>
10000449b: 48 8d b5 d0 fb ff ff        	lea	rsi, [rbp - 1072]
1000044a2: 31 c0                       	xor	eax, eax
1000044a4: e8 77 fd ff ff              	call	0x100004220 <__text+0xaa0>
1000044a9: 4c 89 ff                    	mov	rdi, r15
1000044ac: 48 8b b5 28 f3 ff ff        	mov	rsi, qword ptr [rbp - 3288]
1000044b3: 4c 89 ea                    	mov	rdx, r13
1000044b6: e8 b5 41 00 00              	call	0x100008670 <__text+0x4ef0>
1000044bb: 85 c0                       	test	eax, eax
1000044bd: 0f 88 8a 00 00 00           	js	0x10000454d <__text+0xdcd>
1000044c3: 80 7b 11 64                 	cmp	byte ptr [rbx + 17], 100
1000044c7: 0f 85 e3 fe ff ff           	jne	0x1000043b0 <__text+0xc30>
1000044cd: 4c 89 ff                    	mov	rdi, r15
1000044d0: 48 8d b5 30 fb ff ff        	lea	rsi, [rbp - 1232]
1000044d7: 48 8d 95 30 f7 ff ff        	lea	rdx, [rbp - 2256]
1000044de: 48 8d 8d 30 f3 ff ff        	lea	rcx, [rbp - 3280]
1000044e5: 4c 8d 85 d0 fb ff ff        	lea	r8, [rbp - 1072]
1000044ec: e8 0f 0b 00 00              	call	0x100005000 <__text+0x1880>
1000044f1: e9 cc fe ff ff              	jmp	0x1000043c2 <__text+0xc42>
1000044f6: 66 2e 0f 1f 84 00 00 00 00 00       	nop	word ptr cs:[rax + rax]
100004500: 83 f8 0a                    	cmp	eax, 10
100004503: 0f 85 c4 fe ff ff           	jne	0x1000043cd <__text+0xc4d>
100004509: 48 8d 53 12                 	lea	rdx, [rbx + 18]
10000450d: 48 8d bd 30 f7 ff ff        	lea	rdi, [rbp - 2256]
100004514: 4c 8d ad 30 f3 ff ff        	lea	r13, [rbp - 3280]
10000451b: 4c 89 ee                    	mov	rsi, r13
10000451e: e8 6d 0a 00 00              	call	0x100004f90 <__text+0x1810>
100004523: 83 f8 ff                    	cmp	eax, -1
100004526: 48 8d 85 d0 fb ff ff        	lea	rax, [rbp - 1072]
10000452d: 0f 85 da fe ff ff           	jne	0x10000440d <__text+0xc8d>
100004533: eb 26                       	jmp	0x10000455b <__text+0xddb>
100004535: 45 31 ed                    	xor	r13d, r13d
100004538: 48 83 bd 30 fb ff ff 00     	cmp	qword ptr [rbp - 1232], 0
100004540: 75 4a                       	jne	0x10000458c <__text+0xe0c>
100004542: eb 6f                       	jmp	0x1000045b3 <__text+0xe33>
100004544: 48 8d 3d f8 59 00 00        	lea	rdi, [rip + 23032]      ## 0x100009f43 <dyld_stub_binder+0x100009f43>
10000454b: eb 07                       	jmp	0x100004554 <__text+0xdd4>
10000454d: 48 8d 3d 7d 5a 00 00        	lea	rdi, [rip + 23165]      ## 0x100009fd1 <dyld_stub_binder+0x100009fd1>
100004554: 31 c0                       	xor	eax, eax
100004556: e8 c5 fc ff ff              	call	0x100004220 <__text+0xaa0>
10000455b: 41 bd ff ff ff ff           	mov	r13d, 4294967295
100004561: 48 83 bd 30 fb ff ff 00     	cmp	qword ptr [rbp - 1232], 0
100004569: 75 21                       	jne	0x10000458c <__text+0xe0c>
10000456b: eb 46                       	jmp	0x1000045b3 <__text+0xe33>
10000456d: 48 83 c3 12                 	add	rbx, 18
100004571: 48 8d 3d 87 5a 00 00        	lea	rdi, [rip + 23175]      ## 0x100009fff <dyld_stub_binder+0x100009fff>
100004578: 48 89 de                    	mov	rsi, rbx
10000457b: 31 c0                       	xor	eax, eax
10000457d: e8 9e fc ff ff              	call	0x100004220 <__text+0xaa0>
100004582: 48 83 bd 30 fb ff ff 00     	cmp	qword ptr [rbp - 1232], 0
10000458a: 74 27                       	je	0x1000045b3 <__text+0xe33>
10000458c: 48 8d 9d 30 fb ff ff        	lea	rbx, [rbp - 1232]
100004593: 66 2e 0f 1f 84 00 00 00 00 00       	nop	word ptr cs:[rax + rax]
10000459d: 0f 1f 00                    	nop	dword ptr [rax]
1000045a0: 48 89 df                    	mov	rdi, rbx
1000045a3: e8 b8 fb ff ff              	call	0x100004160 <__text+0x9e0>
1000045a8: 48 83 7b 08 00              	cmp	qword ptr [rbx + 8], 0
1000045ad: 48 8d 5b 08                 	lea	rbx, [rbx + 8]
1000045b1: 75 ed                       	jne	0x1000045a0 <__text+0xe20>
1000045b3: 48 8b 05 4e 7a 00 00        	mov	rax, qword ptr [rip + 31310] ## 0x10000c008 <dyld_stub_binder+0x10000c008>
1000045ba: 48 8b 00                    	mov	rax, qword ptr [rax]
1000045bd: 48 3b 45 d0                 	cmp	rax, qword ptr [rbp - 48]
1000045c1: 75 2f                       	jne	0x1000045f2 <__text+0xe72>
1000045c3: 44 89 e8                    	mov	eax, r13d
1000045c6: 48 81 c4 b8 0c 00 00        	add	rsp, 3256
1000045cd: 5b                          	pop	rbx
1000045ce: 41 5c                       	pop	r12
1000045d0: 41 5d                       	pop	r13
1000045d2: 41 5e                       	pop	r14
1000045d4: 41 5f                       	pop	r15
1000045d6: 5d                          	pop	rbp
1000045d7: c3                          	ret
1000045d8: 48 8d 3d 99 59 00 00        	lea	rdi, [rip + 22937]      ## 0x100009f78 <dyld_stub_binder+0x100009f78>
1000045df: 48 8d b5 d0 fb ff ff        	lea	rsi, [rbp - 1072]
1000045e6: 31 c0                       	xor	eax, eax
1000045e8: e8 33 fc ff ff              	call	0x100004220 <__text+0xaa0>
1000045ed: e9 69 ff ff ff              	jmp	0x10000455b <__text+0xddb>
1000045f2: e8 09 51 00 00              	call	0x100009700 <dyld_stub_binder+0x100009700>
1000045f7: 66 0f 1f 84 00 00 00 00 00  	nop	word ptr [rax + rax]
100004600: 55                          	push	rbp
100004601: 48 89 e5                    	mov	rbp, rsp
100004604: 5d                          	pop	rbp
100004605: c3                          	ret
100004606: 66 2e 0f 1f 84 00 00 00 00 00       	nop	word ptr cs:[rax + rax]
100004610: 55                          	push	rbp
100004611: 48 89 e5                    	mov	rbp, rsp
100004614: 41 57                       	push	r15
100004616: 41 56                       	push	r14
100004618: 41 55                       	push	r13
10000461a: 41 54                       	push	r12
10000461c: 53                          	push	rbx
10000461d: 48 81 ec 28 04 00 00        	sub	rsp, 1064
100004624: 49 89 ff                    	mov	r15, rdi
100004627: 48 8b 05 da 79 00 00        	mov	rax, qword ptr [rip + 31194] ## 0x10000c008 <dyld_stub_binder+0x10000c008>
10000462e: 48 8b 00                    	mov	rax, qword ptr [rax]
100004631: 48 89 45 d0                 	mov	qword ptr [rbp - 48], rax
100004635: e8 46 25 00 00              	call	0x100006b80 <__text+0x3400>
10000463a: bb ff ff ff ff              	mov	ebx, 4294967295
10000463f: 85 c0                       	test	eax, eax
100004641: 0f 85 f9 01 00 00           	jne	0x100004840 <__text+0x10c0>
100004647: 41 c6 87 40 0c 00 00 01     	mov	byte ptr [r15 + 3136], 1
10000464f: 4c 89 ff                    	mov	rdi, r15
100004652: e8 39 26 00 00              	call	0x100006c90 <__text+0x3510>
100004657: 85 c0                       	test	eax, eax
100004659: 0f 85 e1 01 00 00           	jne	0x100004840 <__text+0x10c0>
10000465f: 4c 89 ff                    	mov	rdi, r15
100004662: e8 f9 27 00 00              	call	0x100006e60 <__text+0x36e0>
100004667: 85 c0                       	test	eax, eax
100004669: 0f 85 d1 01 00 00           	jne	0x100004840 <__text+0x10c0>
10000466f: 4c 89 ff                    	mov	rdi, r15
100004672: e8 09 2a 00 00              	call	0x100007080 <__text+0x3900>
100004677: 85 c0                       	test	eax, eax
100004679: 0f 85 c1 01 00 00           	jne	0x100004840 <__text+0x10c0>
10000467f: 4d 8b a7 20 08 00 00        	mov	r12, qword ptr [r15 + 2080]
100004686: 48 8d 05 d3 88 00 00        	lea	rax, [rip + 35027]      ## 0x10000cf60 <dyld_stub_binder+0x10000cf60>
10000468d: 48 8d 3d 89 59 00 00        	lea	rdi, [rip + 22921]      ## 0x10000a01d <dyld_stub_binder+0x10000a01d>
100004694: ff 10                       	call	qword ptr [rax]
100004696: 48 85 c0                    	test	rax, rax
100004699: 0f 84 85 01 00 00           	je	0x100004824 <__text+0x10a4>
10000469f: 49 89 c6                    	mov	r14, rax
1000046a2: 48 8d 05 e7 88 00 00        	lea	rax, [rip + 35047]      ## 0x10000cf90 <dyld_stub_binder+0x10000cf90>
1000046a9: 4c 89 f7                    	mov	rdi, r14
1000046ac: ff 10                       	call	qword ptr [rax]
1000046ae: 48 89 85 b8 fb ff ff        	mov	qword ptr [rbp - 1096], rax
1000046b5: 48 85 c0                    	test	rax, rax
1000046b8: 0f 84 6f 01 00 00           	je	0x10000482d <__text+0x10ad>
1000046be: 4d 8b ac 24 08 04 00 00     	mov	r13, qword ptr [r12 + 1032]
1000046c6: 31 db                       	xor	ebx, ebx
1000046c8: 4d 3b ac 24 10 04 00 00     	cmp	r13, qword ptr [r12 + 1040]
1000046d0: 0f 83 6a 01 00 00           	jae	0x100004840 <__text+0x10c0>
1000046d6: 49 81 c7 32 08 00 00        	add	r15, 2098
1000046dd: 48 8d 9d d0 fb ff ff        	lea	rbx, [rbp - 1072]
1000046e4: 4c 89 a5 c0 fb ff ff        	mov	qword ptr [rbp - 1088], r12
1000046eb: eb 1c                       	jmp	0x100004709 <__text+0xf89>
1000046ed: 4c 89 e7                    	mov	rdi, r12
1000046f0: 4c 89 ee                    	mov	rsi, r13
1000046f3: e8 a8 f0 ff ff              	call	0x1000037a0 <__text+0x20>
1000046f8: 49 89 c5                    	mov	r13, rax
1000046fb: 49 3b 84 24 10 04 00 00     	cmp	rax, qword ptr [r12 + 1040]
100004703: 0f 83 5b 01 00 00           	jae	0x100004864 <__text+0x10e4>
100004709: 41 80 7d 11 73              	cmp	byte ptr [r13 + 17], 115
10000470e: 75 dd                       	jne	0x1000046ed <__text+0xf6d>
100004710: 4c 89 e7                    	mov	rdi, r12
100004713: 4c 89 ee                    	mov	rsi, r13
100004716: e8 95 f0 ff ff              	call	0x1000037b0 <__text+0x30>
10000471b: 48 85 c0                    	test	rax, rax
10000471e: 0f 84 44 01 00 00           	je	0x100004868 <__text+0x10e8>
100004724: 48 89 85 b0 fb ff ff        	mov	qword ptr [rbp - 1104], rax
10000472b: 4d 8d 4d 12                 	lea	r9, [r13 + 18]
10000472f: be 00 04 00 00              	mov	esi, 1024
100004734: 48 89 df                    	mov	rdi, rbx
100004737: 48 8d 15 57 59 00 00        	lea	rdx, [rip + 22871]      ## 0x10000a095 <dyld_stub_binder+0x10000a095>
10000473e: 4c 89 f9                    	mov	rcx, r15
100004741: 41 b8 2f 00 00 00           	mov	r8d, 47
100004747: 4c 89 8d c8 fb ff ff        	mov	qword ptr [rbp - 1080], r9
10000474e: 31 c0                       	xor	eax, eax
100004750: e8 c5 50 00 00              	call	0x10000981a <dyld_stub_binder+0x10000981a>
100004755: 3d 00 04 00 00              	cmp	eax, 1024
10000475a: 0f 8d 11 01 00 00           	jge	0x100004871 <__text+0x10f1>
100004760: 48 89 df                    	mov	rdi, rbx
100004763: 48 8d 05 9e 88 00 00        	lea	rax, [rip + 34974]      ## 0x10000d008 <dyld_stub_binder+0x10000d008>
10000476a: ff 10                       	call	qword ptr [rax]
10000476c: 48 89 c3                    	mov	rbx, rax
10000476f: 4c 89 f7                    	mov	rdi, r14
100004772: 48 8d 35 54 59 00 00        	lea	rsi, [rip + 22868]      ## 0x10000a0cd <dyld_stub_binder+0x10000a0cd>
100004779: 48 89 c2                    	mov	rdx, rax
10000477c: 48 8d 05 2d 88 00 00        	lea	rax, [rip + 34861]      ## 0x10000cfb0 <dyld_stub_binder+0x10000cfb0>
100004783: ff 10                       	call	qword ptr [rax]
100004785: 48 89 df                    	mov	rdi, rbx
100004788: 48 8d 05 31 87 00 00        	lea	rax, [rip + 34609]      ## 0x10000cec0 <dyld_stub_binder+0x10000cec0>
10000478f: ff 10                       	call	qword ptr [rax]
100004791: 41 8b 75 0c                 	mov	esi, dword ptr [r13 + 12]
100004795: 48 8b 9d b0 fb ff ff        	mov	rbx, qword ptr [rbp - 1104]
10000479c: 48 89 df                    	mov	rdi, rbx
10000479f: 48 8d 05 da 87 00 00        	lea	rax, [rip + 34778]      ## 0x10000cf80 <dyld_stub_binder+0x10000cf80>
1000047a6: ff 10                       	call	qword ptr [rax]
1000047a8: 49 89 c4                    	mov	r12, rax
1000047ab: 48 89 df                    	mov	rdi, rbx
1000047ae: e8 cb 4f 00 00              	call	0x10000977e <dyld_stub_binder+0x10000977e>
1000047b3: 4d 85 e4                    	test	r12, r12
1000047b6: 0f 84 be 00 00 00           	je	0x10000487a <__text+0x10fa>
1000047bc: 4c 89 f7                    	mov	rdi, r14
1000047bf: 48 8d 35 38 59 00 00        	lea	rsi, [rip + 22840]      ## 0x10000a0fe <dyld_stub_binder+0x10000a0fe>
1000047c6: 4c 89 e2                    	mov	rdx, r12
1000047c9: 48 8d 05 e0 87 00 00        	lea	rax, [rip + 34784]      ## 0x10000cfb0 <dyld_stub_binder+0x10000cfb0>
1000047d0: ff 10                       	call	qword ptr [rax]
1000047d2: 4c 89 e7                    	mov	rdi, r12
1000047d5: 48 8b 95 b8 fb ff ff        	mov	rdx, qword ptr [rbp - 1096]
1000047dc: 48 89 d6                    	mov	rsi, rdx
1000047df: 48 8d 05 72 87 00 00        	lea	rax, [rip + 34674]      ## 0x10000cf58 <dyld_stub_binder+0x10000cf58>
1000047e6: ff 10                       	call	qword ptr [rax]
1000047e8: 48 85 c0                    	test	rax, rax
1000047eb: 4c 8b a5 c0 fb ff ff        	mov	r12, qword ptr [rbp - 1088]
1000047f2: 48 8d 9d d0 fb ff ff        	lea	rbx, [rbp - 1072]
1000047f9: 0f 85 ee fe ff ff           	jne	0x1000046ed <__text+0xf6d>
1000047ff: 48 8d 05 42 87 00 00        	lea	rax, [rip + 34626]      ## 0x10000cf48 <dyld_stub_binder+0x10000cf48>
100004806: ff 10                       	call	qword ptr [rax]
100004808: 48 8d 3d fc 58 00 00        	lea	rdi, [rip + 22780]      ## 0x10000a10b <dyld_stub_binder+0x10000a10b>
10000480f: 48 8b b5 c8 fb ff ff        	mov	rsi, qword ptr [rbp - 1080]
100004816: 31 c0                       	xor	eax, eax
100004818: e8 03 fa ff ff              	call	0x100004220 <__text+0xaa0>
10000481d: bb 01 00 00 00              	mov	ebx, 1
100004822: eb 1c                       	jmp	0x100004840 <__text+0x10c0>
100004824: 48 8d 3d fb 57 00 00        	lea	rdi, [rip + 22523]      ## 0x10000a026 <dyld_stub_binder+0x10000a026>
10000482b: eb 07                       	jmp	0x100004834 <__text+0x10b4>
10000482d: 48 8d 3d 12 58 00 00        	lea	rdi, [rip + 22546]      ## 0x10000a046 <dyld_stub_binder+0x10000a046>
100004834: 31 c0                       	xor	eax, eax
100004836: e8 e5 f9 ff ff              	call	0x100004220 <__text+0xaa0>
10000483b: bb ff ff ff ff              	mov	ebx, 4294967295
100004840: 48 8b 05 c1 77 00 00        	mov	rax, qword ptr [rip + 30657] ## 0x10000c008 <dyld_stub_binder+0x10000c008>
100004847: 48 8b 00                    	mov	rax, qword ptr [rax]
10000484a: 48 3b 45 d0                 	cmp	rax, qword ptr [rbp - 48]
10000484e: 75 4a                       	jne	0x10000489a <__text+0x111a>
100004850: 89 d8                       	mov	eax, ebx
100004852: 48 81 c4 28 04 00 00        	add	rsp, 1064
100004859: 5b                          	pop	rbx
10000485a: 41 5c                       	pop	r12
10000485c: 41 5d                       	pop	r13
10000485e: 41 5e                       	pop	r14
100004860: 41 5f                       	pop	r15
100004862: 5d                          	pop	rbp
100004863: c3                          	ret
100004864: 31 db                       	xor	ebx, ebx
100004866: eb d8                       	jmp	0x100004840 <__text+0x10c0>
100004868: 48 8d 3d fe 57 00 00        	lea	rdi, [rip + 22526]      ## 0x10000a06d <dyld_stub_binder+0x10000a06d>
10000486f: eb c3                       	jmp	0x100004834 <__text+0x10b4>
100004871: 48 8d 3d 27 58 00 00        	lea	rdi, [rip + 22567]      ## 0x10000a09f <dyld_stub_binder+0x10000a09f>
100004878: eb ba                       	jmp	0x100004834 <__text+0x10b4>
10000487a: 48 8d 3d 55 58 00 00        	lea	rdi, [rip + 22613]      ## 0x10000a0d6 <dyld_stub_binder+0x10000a0d6>
100004881: 48 8b b5 c8 fb ff ff        	mov	rsi, qword ptr [rbp - 1080]
100004888: 31 c0                       	xor	eax, eax
10000488a: e8 91 f9 ff ff              	call	0x100004220 <__text+0xaa0>
10000488f: 48 8d 05 b2 86 00 00        	lea	rax, [rip + 34482]      ## 0x10000cf48 <dyld_stub_binder+0x10000cf48>
100004896: ff 10                       	call	qword ptr [rax]
100004898: eb a1                       	jmp	0x10000483b <__text+0x10bb>
10000489a: e8 61 4e 00 00              	call	0x100009700 <dyld_stub_binder+0x100009700>
10000489f: 90                          	nop
1000048a0: 55                          	push	rbp
1000048a1: 48 89 e5                    	mov	rbp, rsp
1000048a4: 53                          	push	rbx
1000048a5: 50                          	push	rax
1000048a6: 48 89 fb                    	mov	rbx, rdi
1000048a9: e8 02 29 00 00              	call	0x1000071b0 <__text+0x3a30>
1000048ae: 48 8b bb 38 0c 00 00        	mov	rdi, qword ptr [rbx + 3128]
1000048b5: 48 85 ff                    	test	rdi, rdi
1000048b8: 74 10                       	je	0x1000048ca <__text+0x114a>
1000048ba: e8 c1 49 00 00              	call	0x100009280 <__text+0x5b00>
1000048bf: 48 c7 83 38 0c 00 00 00 00 00 00    	mov	qword ptr [rbx + 3128], 0
1000048ca: 48 83 c4 08                 	add	rsp, 8
1000048ce: 5b                          	pop	rbx
1000048cf: 5d                          	pop	rbp
1000048d0: c3                          	ret
1000048d1: 90                          	nop
1000048d2: 90                          	nop
1000048d3: 90                          	nop
1000048d4: 90                          	nop
1000048d5: 90                          	nop
1000048d6: 90                          	nop
1000048d7: 90                          	nop
1000048d8: 90                          	nop
1000048d9: 90                          	nop
1000048da: 90                          	nop
1000048db: 90                          	nop
1000048dc: 90                          	nop
1000048dd: 90                          	nop
1000048de: 90                          	nop
1000048df: 90                          	nop
1000048e0: 55                          	push	rbp
1000048e1: 48 89 e5                    	mov	rbp, rsp
1000048e4: 41 57                       	push	r15
1000048e6: 41 56                       	push	r14
1000048e8: 41 55                       	push	r13
1000048ea: 41 54                       	push	r12
1000048ec: 53                          	push	rbx
1000048ed: 48 81 ec 18 08 00 00        	sub	rsp, 2072
1000048f4: 49 89 ff                    	mov	r15, rdi
1000048f7: 48 8b 05 0a 77 00 00        	mov	rax, qword ptr [rip + 30474] ## 0x10000c008 <dyld_stub_binder+0x10000c008>
1000048fe: 48 8b 00                    	mov	rax, qword ptr [rax]
100004901: 48 89 45 d0                 	mov	qword ptr [rbp - 48], rax
100004905: c7 85 d0 f7 ff ff 00 04 00 00       	mov	dword ptr [rbp - 2096], 1024
10000490f: 48 8d bd d0 fb ff ff        	lea	rdi, [rbp - 1072]
100004916: 48 8d b5 d0 f7 ff ff        	lea	rsi, [rbp - 2096]
10000491d: 31 c0                       	xor	eax, eax
10000491f: e8 d0 4d 00 00              	call	0x1000096f4 <dyld_stub_binder+0x1000096f4>
100004924: 85 c0                       	test	eax, eax
100004926: 74 3d                       	je	0x100004965 <__text+0x11e5>
100004928: 48 8d 3d f0 59 00 00        	lea	rdi, [rip + 23024]      ## 0x10000a31f <dyld_stub_binder+0x10000a31f>
10000492f: 31 c0                       	xor	eax, eax
100004931: e8 ea f8 ff ff              	call	0x100004220 <__text+0xaa0>
100004936: 41 be ff ff ff ff           	mov	r14d, 4294967295
10000493c: 48 8b 05 c5 76 00 00        	mov	rax, qword ptr [rip + 30405] ## 0x10000c008 <dyld_stub_binder+0x10000c008>
100004943: 48 8b 00                    	mov	rax, qword ptr [rax]
100004946: 48 3b 45 d0                 	cmp	rax, qword ptr [rbp - 48]
10000494a: 0f 85 4e 05 00 00           	jne	0x100004e9e <__text+0x171e>
100004950: 44 89 f0                    	mov	eax, r14d
100004953: 48 81 c4 18 08 00 00        	add	rsp, 2072
10000495a: 5b                          	pop	rbx
10000495b: 41 5c                       	pop	r12
10000495d: 41 5d                       	pop	r13
10000495f: 41 5e                       	pop	r14
100004961: 41 5f                       	pop	r15
100004963: 5d                          	pop	rbp
100004964: c3                          	ret
100004965: 49 8d 5f 20                 	lea	rbx, [r15 + 32]
100004969: 48 8d bd d0 fb ff ff        	lea	rdi, [rbp - 1072]
100004970: 48 89 de                    	mov	rsi, rbx
100004973: e8 8a 4e 00 00              	call	0x100009802 <dyld_stub_binder+0x100009802>
100004978: 41 be ff ff ff ff           	mov	r14d, 4294967295
10000497e: 48 85 c0                    	test	rax, rax
100004981: 74 b9                       	je	0x10000493c <__text+0x11bc>
100004983: 48 89 df                    	mov	rdi, rbx
100004986: e8 25 f5 ff ff              	call	0x100003eb0 <__text+0x730>
10000498b: 4d 8d a7 20 08 00 00        	lea	r12, [r15 + 2080]
100004992: 49 89 87 20 08 00 00        	mov	qword ptr [r15 + 2080], rax
100004999: 48 85 c0                    	test	rax, rax
10000499c: 0f 84 ae 01 00 00           	je	0x100004b50 <__text+0x13d0>
1000049a2: 4c 89 a5 c8 f7 ff ff        	mov	qword ptr [rbp - 2104], r12
1000049a9: 49 8d bf 20 04 00 00        	lea	rdi, [r15 + 1056]
1000049b0: 48 8d 15 79 53 00 00        	lea	rdx, [rip + 21369]      ## 0x100009d30 <dyld_stub_binder+0x100009d30>
1000049b7: be 00 04 00 00              	mov	esi, 1024
1000049bc: 48 89 9d c0 f7 ff ff        	mov	qword ptr [rbp - 2112], rbx
1000049c3: 48 89 d9                    	mov	rcx, rbx
1000049c6: 31 c0                       	xor	eax, eax
1000049c8: e8 4d 4e 00 00              	call	0x10000981a <dyld_stub_binder+0x10000981a>
1000049cd: 4d 8b af 20 08 00 00        	mov	r13, qword ptr [r15 + 2080]
1000049d4: 41 8a 85 18 04 00 00        	mov	al, byte ptr [r13 + 1048]
1000049db: 41 88 87 30 08 00 00        	mov	byte ptr [r15 + 2096], al
1000049e2: 41 88 87 31 08 00 00        	mov	byte ptr [r15 + 2097], al
1000049e9: 49 8b 9d 08 04 00 00        	mov	rbx, qword ptr [r13 + 1032]
1000049f0: 49 3b 9d 10 04 00 00        	cmp	rbx, qword ptr [r13 + 1040]
1000049f7: 0f 83 9b 00 00 00           	jae	0x100004a98 <__text+0x1318>
1000049fd: 4c 8d 25 99 58 00 00        	lea	r12, [rip + 22681]      ## 0x10000a29d <dyld_stub_binder+0x10000a29d>
100004a04: eb 21                       	jmp	0x100004a27 <__text+0x12a7>
100004a06: 66 2e 0f 1f 84 00 00 00 00 00       	nop	word ptr cs:[rax + rax]
100004a10: 4c 89 ef                    	mov	rdi, r13
100004a13: 48 89 de                    	mov	rsi, rbx
100004a16: e8 85 ed ff ff              	call	0x1000037a0 <__text+0x20>
100004a1b: 48 89 c3                    	mov	rbx, rax
100004a1e: 49 3b 85 10 04 00 00        	cmp	rax, qword ptr [r13 + 1040]
100004a25: 73 71                       	jae	0x100004a98 <__text+0x1318>
100004a27: 80 7b 11 6f                 	cmp	byte ptr [rbx + 17], 111
100004a2b: 75 e3                       	jne	0x100004a10 <__text+0x1290>
100004a2d: 4c 8d 73 12                 	lea	r14, [rbx + 18]
100004a31: ba 12 00 00 00              	mov	edx, 18
100004a36: 4c 89 f7                    	mov	rdi, r14
100004a39: 48 8d 35 33 58 00 00        	lea	rsi, [rip + 22579]      ## 0x10000a273 <dyld_stub_binder+0x10000a273>
100004a40: e8 11 4e 00 00              	call	0x100009856 <dyld_stub_binder+0x100009856>
100004a45: 85 c0                       	test	eax, eax
100004a47: 75 0b                       	jne	0x100004a54 <__text+0x12d4>
100004a49: 48 8d 43 25                 	lea	rax, [rbx + 37]
100004a4d: 49 89 87 50 0c 00 00        	mov	qword ptr [r15 + 3152], rax
100004a54: ba 16 00 00 00              	mov	edx, 22
100004a59: 4c 89 f7                    	mov	rdi, r14
100004a5c: 48 8d 35 23 58 00 00        	lea	rsi, [rip + 22563]      ## 0x10000a286 <dyld_stub_binder+0x10000a286>
100004a63: e8 ee 4d 00 00              	call	0x100009856 <dyld_stub_binder+0x100009856>
100004a68: 85 c0                       	test	eax, eax
100004a6a: 75 0b                       	jne	0x100004a77 <__text+0x12f7>
100004a6c: 48 8d 43 29                 	lea	rax, [rbx + 41]
100004a70: 49 89 87 58 0c 00 00        	mov	qword ptr [r15 + 3160], rax
100004a77: ba 1d 00 00 00              	mov	edx, 29
100004a7c: 4c 89 f7                    	mov	rdi, r14
100004a7f: 4c 89 e6                    	mov	rsi, r12
100004a82: e8 cf 4d 00 00              	call	0x100009856 <dyld_stub_binder+0x100009856>
100004a87: 85 c0                       	test	eax, eax
100004a89: 75 85                       	jne	0x100004a10 <__text+0x1290>
100004a8b: 41 c6 87 60 0c 00 00 01     	mov	byte ptr [r15 + 3168], 1
100004a93: e9 78 ff ff ff              	jmp	0x100004a10 <__text+0x1290>
100004a98: 48 8d 3d a7 56 00 00        	lea	rdi, [rip + 22183]      ## 0x10000a146 <dyld_stub_binder+0x10000a146>
100004a9f: e8 ac 3f 00 00              	call	0x100008a50 <__text+0x52d0>
100004aa4: 48 85 c0                    	test	rax, rax
100004aa7: 74 24                       	je	0x100004acd <__text+0x134d>
100004aa9: 48 89 c3                    	mov	rbx, rax
100004aac: 48 8d 35 b2 56 00 00        	lea	rsi, [rip + 22194]      ## 0x10000a165 <dyld_stub_binder+0x10000a165>
100004ab3: 48 89 c7                    	mov	rdi, rax
100004ab6: e8 77 4d 00 00              	call	0x100009832 <dyld_stub_binder+0x100009832>
100004abb: 85 c0                       	test	eax, eax
100004abd: 41 0f 95 87 41 0c 00 00     	setne	byte ptr [r15 + 3137]
100004ac5: 48 89 df                    	mov	rdi, rbx
100004ac8: e8 b1 4c 00 00              	call	0x10000977e <dyld_stub_binder+0x10000977e>
100004acd: 41 80 bf 30 08 00 00 00     	cmp	byte ptr [r15 + 2096], 0
100004ad5: 4c 8b a5 c0 f7 ff ff        	mov	r12, qword ptr [rbp - 2112]
100004adc: 0f 84 46 01 00 00           	je	0x100004c28 <__text+0x14a8>
100004ae2: 4c 8d 35 7e 56 00 00        	lea	r14, [rip + 22142]      ## 0x10000a167 <dyld_stub_binder+0x10000a167>
100004ae9: 4c 89 f7                    	mov	rdi, r14
100004aec: e8 5f 3f 00 00              	call	0x100008a50 <__text+0x52d0>
100004af1: 48 89 c3                    	mov	rbx, rax
100004af4: 4c 89 f7                    	mov	rdi, r14
100004af7: e8 84 3f 00 00              	call	0x100008a80 <__text+0x5300>
100004afc: 48 85 db                    	test	rbx, rbx
100004aff: 41 be ff ff ff ff           	mov	r14d, 4294967295
100004b05: 0f 84 fa 00 00 00           	je	0x100004c05 <__text+0x1485>
100004b0b: 80 3b 00                    	cmp	byte ptr [rbx], 0
100004b0e: 0f 84 f1 00 00 00           	je	0x100004c05 <__text+0x1485>
100004b14: 41 c6 87 31 08 00 00 00     	mov	byte ptr [r15 + 2097], 0
100004b1c: 49 8d bf 32 08 00 00        	lea	rdi, [r15 + 2098]
100004b23: 48 8d 15 06 52 00 00        	lea	rdx, [rip + 20998]      ## 0x100009d30 <dyld_stub_binder+0x100009d30>
100004b2a: be 00 04 00 00              	mov	esi, 1024
100004b2f: 48 89 d9                    	mov	rcx, rbx
100004b32: 31 c0                       	xor	eax, eax
100004b34: e8 e1 4c 00 00              	call	0x10000981a <dyld_stub_binder+0x10000981a>
100004b39: 3d 00 04 00 00              	cmp	eax, 1024
100004b3e: 0f 8c 69 01 00 00           	jl	0x100004cad <__text+0x152d>
100004b44: 48 8d 3d 26 56 00 00        	lea	rdi, [rip + 22054]      ## 0x10000a171 <dyld_stub_binder+0x10000a171>
100004b4b: e9 cc 00 00 00              	jmp	0x100004c1c <__text+0x149c>
100004b50: 48 8d 35 3d 50 00 00        	lea	rsi, [rip + 20541]      ## 0x100009b94 <dyld_stub_binder+0x100009b94>
100004b57: 48 89 df                    	mov	rdi, rbx
100004b5a: e8 07 4c 00 00              	call	0x100009766 <dyld_stub_binder+0x100009766>
100004b5f: 48 85 c0                    	test	rax, rax
100004b62: 0f 84 2f 01 00 00           	je	0x100004c97 <__text+0x1517>
100004b68: 49 89 c5                    	mov	r13, rax
100004b6b: 48 8d 05 1a 50 00 00        	lea	rax, [rip + 20506]      ## 0x100009b8c <dyld_stub_binder+0x100009b8c>
100004b72: 48 8b 00                    	mov	rax, qword ptr [rax]
100004b75: 48 89 85 d0 fb ff ff        	mov	qword ptr [rbp - 1072], rax
100004b7c: 48 c1 e8 18                 	shr	rax, 24
100004b80: 04 0d                       	add	al, 13
100004b82: 88 85 d3 fb ff ff           	mov	byte ptr [rbp - 1069], al
100004b88: 48 8d b5 d0 fb ff ff        	lea	rsi, [rbp - 1072]
100004b8f: ba 08 00 00 00              	mov	edx, 8
100004b94: 4c 89 ef                    	mov	rdi, r13
100004b97: e8 74 3d 00 00              	call	0x100008910 <__text+0x5190>
100004b9c: 48 85 c0                    	test	rax, rax
100004b9f: 0f 84 ea 00 00 00           	je	0x100004c8f <__text+0x150f>
100004ba5: 4d 8d af 20 04 00 00        	lea	r13, [r15 + 1056]
100004bac: 48 8d 15 f4 57 00 00        	lea	rdx, [rip + 22516]      ## 0x10000a3a7 <dyld_stub_binder+0x10000a3a7>
100004bb3: be 00 04 00 00              	mov	esi, 1024
100004bb8: 4c 89 ef                    	mov	rdi, r13
100004bbb: 48 89 d9                    	mov	rcx, rbx
100004bbe: 31 c0                       	xor	eax, eax
100004bc0: e8 55 4c 00 00              	call	0x10000981a <dyld_stub_binder+0x10000981a>
100004bc5: 3d ff 03 00 00              	cmp	eax, 1023
100004bca: 0f 8f 6c fd ff ff           	jg	0x10000493c <__text+0x11bc>
100004bd0: 48 89 9d c0 f7 ff ff        	mov	qword ptr [rbp - 2112], rbx
100004bd7: 4c 89 eb                    	mov	rbx, r13
100004bda: 4c 89 ef                    	mov	rdi, r13
100004bdd: e8 ce f2 ff ff              	call	0x100003eb0 <__text+0x730>
100004be2: 49 89 c5                    	mov	r13, rax
100004be5: 4c 89 a5 c8 f7 ff ff        	mov	qword ptr [rbp - 2104], r12
100004bec: 49 89 04 24                 	mov	qword ptr [r12], rax
100004bf0: 48 85 c0                    	test	rax, rax
100004bf3: 0f 85 db fd ff ff           	jne	0x1000049d4 <__text+0x1254>
100004bf9: 48 8d 3d ae 57 00 00        	lea	rdi, [rip + 22446]      ## 0x10000a3ae <dyld_stub_binder+0x10000a3ae>
100004c00: e9 99 00 00 00              	jmp	0x100004c9e <__text+0x151e>
100004c05: 4c 89 ff                    	mov	rdi, r15
100004c08: e8 83 3e 00 00              	call	0x100008a90 <__text+0x5310>
100004c0d: 85 c0                       	test	eax, eax
100004c0f: 0f 89 ea 00 00 00           	jns	0x100004cff <__text+0x157f>
100004c15: 48 8d 3d 77 55 00 00        	lea	rdi, [rip + 21879]      ## 0x10000a193 <dyld_stub_binder+0x10000a193>
100004c1c: 31 c0                       	xor	eax, eax
100004c1e: e8 fd f5 ff ff              	call	0x100004220 <__text+0xaa0>
100004c23: e9 14 fd ff ff              	jmp	0x10000493c <__text+0x11bc>
100004c28: 48 8d 9d d0 fb ff ff        	lea	rbx, [rbp - 1072]
100004c2f: 48 89 df                    	mov	rdi, rbx
100004c32: 4c 89 e6                    	mov	rsi, r12
100004c35: e8 76 06 00 00              	call	0x1000052b0 <__text+0x1b30>
100004c3a: be 00 04 00 00              	mov	esi, 1024
100004c3f: 48 89 df                    	mov	rdi, rbx
100004c42: e8 15 4c 00 00              	call	0x10000985c <dyld_stub_binder+0x10000985c>
100004c47: 48 83 f8 14                 	cmp	rax, 20
100004c4b: 41 be ff ff ff ff           	mov	r14d, 4294967295
100004c51: 72 20                       	jb	0x100004c73 <__text+0x14f3>
100004c53: 48 8d 3c 28                 	lea	rdi, [rax + rbp]
100004c57: 48 81 c7 bd fb ff ff        	add	rdi, -1091
100004c5e: 48 8d 35 55 55 00 00        	lea	rsi, [rip + 21845]      ## 0x10000a1ba <dyld_stub_binder+0x10000a1ba>
100004c65: ba 13 00 00 00              	mov	edx, 19
100004c6a: e8 e7 4b 00 00              	call	0x100009856 <dyld_stub_binder+0x100009856>
100004c6f: 85 c0                       	test	eax, eax
100004c71: 74 60                       	je	0x100004cd3 <__text+0x1553>
100004c73: 49 8b 97 58 0c 00 00        	mov	rdx, qword ptr [r15 + 3160]
100004c7a: 49 8d bf 32 08 00 00        	lea	rdi, [r15 + 2098]
100004c81: 48 85 d2                    	test	rdx, rdx
100004c84: 74 31                       	je	0x100004cb7 <__text+0x1537>
100004c86: 48 8d b5 d0 fb ff ff        	lea	rsi, [rbp - 1072]
100004c8d: eb 6b                       	jmp	0x100004cfa <__text+0x157a>
100004c8f: 4c 89 ef                    	mov	rdi, r13
100004c92: e8 b1 4a 00 00              	call	0x100009748 <dyld_stub_binder+0x100009748>
100004c97: 48 8d 3d bd 56 00 00        	lea	rdi, [rip + 22205]      ## 0x10000a35b <dyld_stub_binder+0x10000a35b>
100004c9e: 48 89 de                    	mov	rsi, rbx
100004ca1: 31 c0                       	xor	eax, eax
100004ca3: e8 78 f5 ff ff              	call	0x100004220 <__text+0xaa0>
100004ca8: e9 8f fc ff ff              	jmp	0x10000493c <__text+0x11bc>
100004cad: 48 89 df                    	mov	rdi, rbx
100004cb0: e8 c9 4a 00 00              	call	0x10000977e <dyld_stub_binder+0x10000977e>
100004cb5: eb 48                       	jmp	0x100004cff <__text+0x157f>
100004cb7: 48 8d 15 72 50 00 00        	lea	rdx, [rip + 20594]      ## 0x100009d30 <dyld_stub_binder+0x100009d30>
100004cbe: 48 8d 8d d0 fb ff ff        	lea	rcx, [rbp - 1072]
100004cc5: be 00 04 00 00              	mov	esi, 1024
100004cca: 31 c0                       	xor	eax, eax
100004ccc: e8 49 4b 00 00              	call	0x10000981a <dyld_stub_binder+0x10000981a>
100004cd1: eb 2c                       	jmp	0x100004cff <__text+0x157f>
100004cd3: 48 8d 9d d0 f7 ff ff        	lea	rbx, [rbp - 2096]
100004cda: 48 8d b5 d0 fb ff ff        	lea	rsi, [rbp - 1072]
100004ce1: 48 89 df                    	mov	rdi, rbx
100004ce4: e8 c7 05 00 00              	call	0x1000052b0 <__text+0x1b30>
100004ce9: 49 8d bf 32 08 00 00        	lea	rdi, [r15 + 2098]
100004cf0: 48 8d 15 d7 54 00 00        	lea	rdx, [rip + 21719]      ## 0x10000a1ce <dyld_stub_binder+0x10000a1ce>
100004cf7: 48 89 de                    	mov	rsi, rbx
100004cfa: e8 81 06 00 00              	call	0x100005380 <__text+0x1c00>
100004cff: 41 80 bf 30 08 00 00 00     	cmp	byte ptr [r15 + 2096], 0
100004d07: 74 0e                       	je	0x100004d17 <__text+0x1597>
100004d09: 41 80 bf 31 08 00 00 00     	cmp	byte ptr [r15 + 2097], 0
100004d11: 0f 84 4c 01 00 00           	je	0x100004e63 <__text+0x16e3>
100004d17: 31 c0                       	xor	eax, eax
100004d19: e8 22 2f 00 00              	call	0x100007c40 <__text+0x44c0>
100004d1e: 4d 8d af 28 08 00 00        	lea	r13, [r15 + 2088]
100004d25: 49 89 87 28 08 00 00        	mov	qword ptr [r15 + 2088], rax
100004d2c: 48 89 c7                    	mov	rdi, rax
100004d2f: 4c 89 fe                    	mov	rsi, r15
100004d32: e8 c9 24 00 00              	call	0x100007200 <__text+0x3a80>
100004d37: 85 c0                       	test	eax, eax
100004d39: 75 63                       	jne	0x100004d9e <__text+0x161e>
100004d3b: 41 80 bf 30 08 00 00 00     	cmp	byte ptr [r15 + 2096], 0
100004d43: 74 1c                       	je	0x100004d61 <__text+0x15e1>
100004d45: 49 8b bf 28 08 00 00        	mov	rdi, qword ptr [r15 + 2088]
100004d4c: 4c 89 fe                    	mov	rsi, r15
100004d4f: e8 2c 2b 00 00              	call	0x100007880 <__text+0x4100>
100004d54: 85 c0                       	test	eax, eax
100004d56: 74 09                       	je	0x100004d61 <__text+0x15e1>
100004d58: 48 8d 3d 7a 54 00 00        	lea	rdi, [rip + 21626]      ## 0x10000a1d9 <dyld_stub_binder+0x10000a1d9>
100004d5f: eb 2d                       	jmp	0x100004d8e <__text+0x160e>
100004d61: 49 8b 7d 00                 	mov	rdi, qword ptr [r13]
100004d65: e8 66 2d 00 00              	call	0x100007ad0 <__text+0x4350>
100004d6a: 85 c0                       	test	eax, eax
100004d6c: 74 09                       	je	0x100004d77 <__text+0x15f7>
100004d6e: 48 8d 3d a3 54 00 00        	lea	rdi, [rip + 21667]      ## 0x10000a218 <dyld_stub_binder+0x10000a218>
100004d75: eb 17                       	jmp	0x100004d8e <__text+0x160e>
100004d77: 49 8b 7d 00                 	mov	rdi, qword ptr [r13]
100004d7b: 4c 89 e6                    	mov	rsi, r12
100004d7e: e8 5d 26 00 00              	call	0x1000073e0 <__text+0x3c60>
100004d83: 85 c0                       	test	eax, eax
100004d85: 74 1f                       	je	0x100004da6 <__text+0x1626>
100004d87: 48 8d 3d c5 54 00 00        	lea	rdi, [rip + 21701]      ## 0x10000a253 <dyld_stub_binder+0x10000a253>
100004d8e: 31 c0                       	xor	eax, eax
100004d90: e8 8b f4 ff ff              	call	0x100004220 <__text+0xaa0>
100004d95: 49 8b 7d 00                 	mov	rdi, qword ptr [r13]
100004d99: e8 62 29 00 00              	call	0x100007700 <__text+0x3f80>
100004d9e: 4c 89 ef                    	mov	rdi, r13
100004da1: e8 da 2e 00 00              	call	0x100007c80 <__text+0x4500>
100004da6: 41 80 bf 31 08 00 00 00     	cmp	byte ptr [r15 + 2097], 0
100004dae: 0f 84 af 00 00 00           	je	0x100004e63 <__text+0x16e3>
100004db4: 4c 89 ff                    	mov	rdi, r15
100004db7: e8 54 f5 ff ff              	call	0x100004310 <__text+0xb90>
100004dbc: 85 c0                       	test	eax, eax
100004dbe: 0f 88 78 fb ff ff           	js	0x10000493c <__text+0x11bc>
100004dc4: 49 8d 9f 32 08 00 00        	lea	rbx, [r15 + 2098]
100004dcb: 48 8d 3d 95 53 00 00        	lea	rdi, [rip + 21397]      ## 0x10000a167 <dyld_stub_binder+0x10000a167>
100004dd2: 48 89 de                    	mov	rsi, rbx
100004dd5: e8 96 3c 00 00              	call	0x100008a70 <__text+0x52f0>
100004dda: 4c 89 ff                    	mov	rdi, r15
100004ddd: e8 ae 44 00 00              	call	0x100009290 <__text+0x5b10>
100004de2: 41 89 c6                    	mov	r14d, eax
100004de5: 49 8b bf 28 08 00 00        	mov	rdi, qword ptr [r15 + 2088]
100004dec: e8 0f 29 00 00              	call	0x100007700 <__text+0x3f80>
100004df1: 4c 89 ef                    	mov	rdi, r13
100004df4: e8 87 2e 00 00              	call	0x100007c80 <__text+0x4500>
100004df9: 48 89 df                    	mov	rdi, rbx
100004dfc: e8 cf 42 00 00              	call	0x1000090d0 <__text+0x5950>
100004e01: 85 c0                       	test	eax, eax
100004e03: 79 33                       	jns	0x100004e38 <__text+0x16b8>
100004e05: 41 8a 87 41 0c 00 00        	mov	al, byte ptr [r15 + 3137]
100004e0c: 84 c0                       	test	al, al
100004e0e: 48 8d 0d d7 54 00 00        	lea	rcx, [rip + 21719]      ## 0x10000a2ec <dyld_stub_binder+0x10000a2ec>
100004e15: 48 8d 3d 9f 54 00 00        	lea	rdi, [rip + 21663]      ## 0x10000a2bb <dyld_stub_binder+0x10000a2bb>
100004e1c: 48 0f 44 f9                 	cmove	rdi, rcx
100004e20: 3c 01                       	cmp	al, 1
100004e22: b8 00 00 00 00              	mov	eax, 0
100004e27: 19 c0                       	sbb	eax, eax
100004e29: f7 d0                       	not	eax
100004e2b: 41 09 c6                    	or	r14d, eax
100004e2e: 48 89 de                    	mov	rsi, rbx
100004e31: 31 c0                       	xor	eax, eax
100004e33: e8 e8 f3 ff ff              	call	0x100004220 <__text+0xaa0>
100004e38: 48 8b bd c8 f7 ff ff        	mov	rdi, qword ptr [rbp - 2104]
100004e3f: e8 1c f3 ff ff              	call	0x100004160 <__text+0x9e0>
100004e44: 41 83 bf 48 0c 00 00 00     	cmp	dword ptr [r15 + 3144], 0
100004e4c: 0f 84 ea fa ff ff           	je	0x10000493c <__text+0x11bc>
100004e52: 41 8b bf 4c 0c 00 00        	mov	edi, dword ptr [r15 + 3148]
100004e59: e8 92 49 00 00              	call	0x1000097f0 <dyld_stub_binder+0x1000097f0>
100004e5e: e9 d9 fa ff ff              	jmp	0x10000493c <__text+0x11bc>
100004e63: 4c 89 ff                    	mov	rdi, r15
100004e66: e8 95 f7 ff ff              	call	0x100004600 <__text+0xe80>
100004e6b: 4c 89 ff                    	mov	rdi, r15
100004e6e: e8 9d f7 ff ff              	call	0x100004610 <__text+0xe90>
100004e73: 41 89 c6                    	mov	r14d, eax
100004e76: 4c 89 ff                    	mov	rdi, r15
100004e79: e8 22 fa ff ff              	call	0x1000048a0 <__text+0x1120>
100004e7e: 49 8b bf 28 08 00 00        	mov	rdi, qword ptr [r15 + 2088]
100004e85: 49 81 c7 28 08 00 00        	add	r15, 2088
100004e8c: e8 6f 28 00 00              	call	0x100007700 <__text+0x3f80>
100004e91: 4c 89 ff                    	mov	rdi, r15
100004e94: e8 e7 2d 00 00              	call	0x100007c80 <__text+0x4500>
100004e99: e9 9e fa ff ff              	jmp	0x10000493c <__text+0x11bc>
100004e9e: e8 5d 48 00 00              	call	0x100009700 <dyld_stub_binder+0x100009700>
100004ea3: 90                          	nop
100004ea4: 90                          	nop
100004ea5: 90                          	nop
100004ea6: 90                          	nop
100004ea7: 90                          	nop
100004ea8: 90                          	nop
100004ea9: 90                          	nop
100004eaa: 90                          	nop
100004eab: 90                          	nop
100004eac: 90                          	nop
100004ead: 90                          	nop
100004eae: 90                          	nop
100004eaf: 90                          	nop
100004eb0: 55                          	push	rbp
100004eb1: 48 89 e5                    	mov	rbp, rsp
100004eb4: 41 56                       	push	r14
100004eb6: 53                          	push	rbx
100004eb7: 48 81 ec d0 00 00 00        	sub	rsp, 208
100004ebe: 48 89 d3                    	mov	rbx, rdx
100004ec1: 48 89 f2                    	mov	rdx, rsi
100004ec4: 49 89 fe                    	mov	r14, rdi
100004ec7: 84 c0                       	test	al, al
100004ec9: 74 29                       	je	0x100004ef4 <__text+0x1774>
100004ecb: 0f 29 85 50 ff ff ff        	movaps	xmmword ptr [rbp - 176], xmm0
100004ed2: 0f 29 8d 60 ff ff ff        	movaps	xmmword ptr [rbp - 160], xmm1
100004ed9: 0f 29 95 70 ff ff ff        	movaps	xmmword ptr [rbp - 144], xmm2
100004ee0: 0f 29 5d 80                 	movaps	xmmword ptr [rbp - 128], xmm3
100004ee4: 0f 29 65 90                 	movaps	xmmword ptr [rbp - 112], xmm4
100004ee8: 0f 29 6d a0                 	movaps	xmmword ptr [rbp - 96], xmm5
100004eec: 0f 29 75 b0                 	movaps	xmmword ptr [rbp - 80], xmm6
100004ef0: 0f 29 7d c0                 	movaps	xmmword ptr [rbp - 64], xmm7
100004ef4: 48 89 9d 30 ff ff ff        	mov	qword ptr [rbp - 208], rbx
100004efb: 48 89 8d 38 ff ff ff        	mov	qword ptr [rbp - 200], rcx
100004f02: 4c 89 85 40 ff ff ff        	mov	qword ptr [rbp - 192], r8
100004f09: 4c 89 8d 48 ff ff ff        	mov	qword ptr [rbp - 184], r9
100004f10: 48 8b 05 f1 70 00 00        	mov	rax, qword ptr [rip + 28913] ## 0x10000c008 <dyld_stub_binder+0x10000c008>
100004f17: 48 8b 00                    	mov	rax, qword ptr [rax]
100004f1a: 48 89 45 e8                 	mov	qword ptr [rbp - 24], rax
100004f1e: 48 8d 85 20 ff ff ff        	lea	rax, [rbp - 224]
100004f25: 48 89 45 e0                 	mov	qword ptr [rbp - 32], rax
100004f29: 48 8d 45 10                 	lea	rax, [rbp + 16]
100004f2d: 48 89 45 d8                 	mov	qword ptr [rbp - 40], rax
100004f31: 48 b8 10 00 00 00 30 00 00 00       	movabs	rax, 206158430224
100004f3b: 48 89 45 d0                 	mov	qword ptr [rbp - 48], rax
100004f3f: 48 8d 4d d0                 	lea	rcx, [rbp - 48]
100004f43: be 00 04 00 00              	mov	esi, 1024
100004f48: 4c 89 f7                    	mov	rdi, r14
100004f4b: e8 30 49 00 00              	call	0x100009880 <dyld_stub_binder+0x100009880>
100004f50: 89 c1                       	mov	ecx, eax
100004f52: b8 ff ff ff ff              	mov	eax, 4294967295
100004f57: 81 f9 ff 03 00 00           	cmp	ecx, 1023
100004f5d: 7f 08                       	jg	0x100004f67 <__text+0x17e7>
100004f5f: 4c 89 f7                    	mov	rdi, r14
100004f62: e8 a9 04 00 00              	call	0x100005410 <__text+0x1c90>
100004f67: 48 8b 0d 9a 70 00 00        	mov	rcx, qword ptr [rip + 28826] ## 0x10000c008 <dyld_stub_binder+0x10000c008>
100004f6e: 48 8b 09                    	mov	rcx, qword ptr [rcx]
100004f71: 48 3b 4d e8                 	cmp	rcx, qword ptr [rbp - 24]
100004f75: 75 0c                       	jne	0x100004f83 <__text+0x1803>
100004f77: 48 81 c4 d0 00 00 00        	add	rsp, 208
100004f7e: 5b                          	pop	rbx
100004f7f: 41 5e                       	pop	r14
100004f81: 5d                          	pop	rbp
100004f82: c3                          	ret
100004f83: e8 78 47 00 00              	call	0x100009700 <dyld_stub_binder+0x100009700>
100004f88: 0f 1f 84 00 00 00 00 00     	nop	dword ptr [rax + rax]
100004f90: 55                          	push	rbp
100004f91: 48 89 e5                    	mov	rbp, rsp
100004f94: 41 56                       	push	r14
100004f96: 53                          	push	rbx
100004f97: 48 89 d1                    	mov	rcx, rdx
100004f9a: 49 89 f6                    	mov	r14, rsi
100004f9d: 48 89 fb                    	mov	rbx, rdi
100004fa0: 48 8d 15 89 4d 00 00        	lea	rdx, [rip + 19849]      ## 0x100009d30 <dyld_stub_binder+0x100009d30>
100004fa7: be 00 04 00 00              	mov	esi, 1024
100004fac: 31 c0                       	xor	eax, eax
100004fae: e8 67 48 00 00              	call	0x10000981a <dyld_stub_binder+0x10000981a>
100004fb3: 3d ff 03 00 00              	cmp	eax, 1023
100004fb8: 7f 31                       	jg	0x100004feb <__text+0x186b>
100004fba: 48 89 df                    	mov	rdi, rbx
100004fbd: be 3a 00 00 00              	mov	esi, 58
100004fc2: e8 65 48 00 00              	call	0x10000982c <dyld_stub_binder+0x10000982c>
100004fc7: 48 85 c0                    	test	rax, rax
100004fca: 74 1f                       	je	0x100004feb <__text+0x186b>
100004fcc: c6 00 00                    	mov	byte ptr [rax], 0
100004fcf: 48 83 c0 01                 	add	rax, 1
100004fd3: 4c 89 f7                    	mov	rdi, r14
100004fd6: 48 89 c6                    	mov	rsi, rax
100004fd9: e8 5a 48 00 00              	call	0x100009838 <dyld_stub_binder+0x100009838>
100004fde: 80 3b 00                    	cmp	byte ptr [rbx], 0
100004fe1: 74 08                       	je	0x100004feb <__text+0x186b>
100004fe3: 41 80 3e 01                 	cmp	byte ptr [r14], 1
100004fe7: 19 c0                       	sbb	eax, eax
100004fe9: eb 05                       	jmp	0x100004ff0 <__text+0x1870>
100004feb: b8 ff ff ff ff              	mov	eax, 4294967295
100004ff0: 5b                          	pop	rbx
100004ff1: 41 5e                       	pop	r14
100004ff3: 5d                          	pop	rbp
100004ff4: c3                          	ret
100004ff5: 66 2e 0f 1f 84 00 00 00 00 00       	nop	word ptr cs:[rax + rax]
100004fff: 90                          	nop
100005000: 55                          	push	rbp
100005001: 48 89 e5                    	mov	rbp, rsp
100005004: 41 57                       	push	r15
100005006: 41 56                       	push	r14
100005008: 41 55                       	push	r13
10000500a: 41 54                       	push	r12
10000500c: 53                          	push	rbx
10000500d: 48 81 ec 18 10 00 00        	sub	rsp, 4120
100005014: 4d 89 c6                    	mov	r14, r8
100005017: 49 89 cf                    	mov	r15, rcx
10000501a: 49 89 d4                    	mov	r12, rdx
10000501d: 49 89 f5                    	mov	r13, rsi
100005020: 48 89 fb                    	mov	rbx, rdi
100005023: 48 8b 05 de 6f 00 00        	mov	rax, qword ptr [rip + 28638] ## 0x10000c008 <dyld_stub_binder+0x10000c008>
10000502a: 48 8b 00                    	mov	rax, qword ptr [rax]
10000502d: 48 89 45 d0                 	mov	qword ptr [rbp - 48], rax
100005031: 48 8d 77 20                 	lea	rsi, [rdi + 32]
100005035: 48 8d bd d0 f7 ff ff        	lea	rdi, [rbp - 2096]
10000503c: e8 6f 02 00 00              	call	0x1000052b0 <__text+0x1b30>
100005041: 48 8d bd d0 fb ff ff        	lea	rdi, [rbp - 1072]
100005048: 4c 89 e6                    	mov	rsi, r12
10000504b: e8 60 02 00 00              	call	0x1000052b0 <__text+0x1b30>
100005050: 48 8b 9b 58 0c 00 00        	mov	rbx, qword ptr [rbx + 3160]
100005057: 48 83 ec 08                 	sub	rsp, 8
10000505b: 48 85 db                    	test	rbx, rbx
10000505e: 74 6b                       	je	0x1000050cb <__text+0x194b>
100005060: 48 8d 35 8e 53 00 00        	lea	rsi, [rip + 21390]      ## 0x10000a3f5 <dyld_stub_binder+0x10000a3f5>
100005067: 48 8d bd d0 f3 ff ff        	lea	rdi, [rbp - 3120]
10000506e: 48 8d 95 d0 f7 ff ff        	lea	rdx, [rbp - 2096]
100005075: 4c 8d 85 d0 fb ff ff        	lea	r8, [rbp - 1072]
10000507c: b9 2f 00 00 00              	mov	ecx, 47
100005081: 41 b9 2f 00 00 00           	mov	r9d, 47
100005087: 31 c0                       	xor	eax, eax
100005089: 41 57                       	push	r15
10000508b: 6a 2f                       	push	47
10000508d: 53                          	push	rbx
10000508e: e8 1d fe ff ff              	call	0x100004eb0 <__text+0x1730>
100005093: 48 83 c4 20                 	add	rsp, 32
100005097: 83 f8 01                    	cmp	eax, 1
10000509a: 75 68                       	jne	0x100005104 <__text+0x1984>
10000509c: 48 8d bd d0 f3 ff ff        	lea	rdi, [rbp - 3120]
1000050a3: 4c 89 f6                    	mov	rsi, r14
1000050a6: e8 15 37 00 00              	call	0x1000087c0 <__text+0x5040>
1000050ab: 89 c1                       	mov	ecx, eax
1000050ad: 31 c0                       	xor	eax, eax
1000050af: 83 f9 ff                    	cmp	ecx, -1
1000050b2: 0f 85 c6 01 00 00           	jne	0x10000527e <__text+0x1afe>
1000050b8: 48 8d 3d 50 53 00 00        	lea	rdi, [rip + 21328]      ## 0x10000a40f <dyld_stub_binder+0x10000a40f>
1000050bf: 48 8d 95 d0 f3 ff ff        	lea	rdx, [rbp - 3120]
1000050c6: e9 91 01 00 00              	jmp	0x10000525c <__text+0x1adc>
1000050cb: 48 8d 35 32 53 00 00        	lea	rsi, [rip + 21298]      ## 0x10000a404 <dyld_stub_binder+0x10000a404>
1000050d2: 48 8d bd d0 f3 ff ff        	lea	rdi, [rbp - 3120]
1000050d9: 48 8d 95 d0 f7 ff ff        	lea	rdx, [rbp - 2096]
1000050e0: 4c 8d 85 d0 fb ff ff        	lea	r8, [rbp - 1072]
1000050e7: b9 2f 00 00 00              	mov	ecx, 47
1000050ec: 41 b9 2f 00 00 00           	mov	r9d, 47
1000050f2: 31 c0                       	xor	eax, eax
1000050f4: 41 57                       	push	r15
1000050f6: e8 b5 fd ff ff              	call	0x100004eb0 <__text+0x1730>
1000050fb: 48 83 c4 10                 	add	rsp, 16
1000050ff: 83 f8 01                    	cmp	eax, 1
100005102: 74 98                       	je	0x10000509c <__text+0x191c>
100005104: 48 8d 35 25 53 00 00        	lea	rsi, [rip + 21285]      ## 0x10000a430 <dyld_stub_binder+0x10000a430>
10000510b: 48 8d bd d0 ef ff ff        	lea	rdi, [rbp - 4144]
100005112: 48 8d 95 d0 f7 ff ff        	lea	rdx, [rbp - 2096]
100005119: b9 2f 00 00 00              	mov	ecx, 47
10000511e: 4d 89 e0                    	mov	r8, r12
100005121: 31 c0                       	xor	eax, eax
100005123: e8 88 fd ff ff              	call	0x100004eb0 <__text+0x1730>
100005128: 83 f8 01                    	cmp	eax, 1
10000512b: 74 56                       	je	0x100005183 <__text+0x1a03>
10000512d: 48 8d 35 07 53 00 00        	lea	rsi, [rip + 21255]      ## 0x10000a43b <dyld_stub_binder+0x10000a43b>
100005134: 48 8d bd d0 ef ff ff        	lea	rdi, [rbp - 4144]
10000513b: 48 8d 95 d0 f7 ff ff        	lea	rdx, [rbp - 2096]
100005142: b9 2f 00 00 00              	mov	ecx, 47
100005147: 4d 89 e0                    	mov	r8, r12
10000514a: 31 c0                       	xor	eax, eax
10000514c: e8 5f fd ff ff              	call	0x100004eb0 <__text+0x1730>
100005151: 83 f8 01                    	cmp	eax, 1
100005154: 74 2d                       	je	0x100005183 <__text+0x1a03>
100005156: 48 8d 35 df 4d 00 00        	lea	rsi, [rip + 19935]      ## 0x100009f3c <dyld_stub_binder+0x100009f3c>
10000515d: 48 8d bd d0 ef ff ff        	lea	rdi, [rbp - 4144]
100005164: 48 8d 95 d0 f7 ff ff        	lea	rdx, [rbp - 2096]
10000516b: b9 2f 00 00 00              	mov	ecx, 47
100005170: 4d 89 e0                    	mov	r8, r12
100005173: 31 c0                       	xor	eax, eax
100005175: e8 36 fd ff ff              	call	0x100004eb0 <__text+0x1730>
10000517a: 83 f8 01                    	cmp	eax, 1
10000517d: 0f 85 e5 00 00 00           	jne	0x100005268 <__text+0x1ae8>
100005183: 4c 89 b5 c8 ef ff ff        	mov	qword ptr [rbp - 4152], r14
10000518a: 49 8b 5d 00                 	mov	rbx, qword ptr [r13]
10000518e: 48 85 db                    	test	rbx, rbx
100005191: 74 4b                       	je	0x1000051de <__text+0x1a5e>
100005193: 45 31 f6                    	xor	r14d, r14d
100005196: 4c 8d a5 d0 ef ff ff        	lea	r12, [rbp - 4144]
10000519d: 0f 1f 00                    	nop	dword ptr [rax]
1000051a0: 48 89 df                    	mov	rdi, rbx
1000051a3: 4c 89 e6                    	mov	rsi, r12
1000051a6: e8 87 46 00 00              	call	0x100009832 <dyld_stub_binder+0x100009832>
1000051ab: 85 c0                       	test	eax, eax
1000051ad: 74 47                       	je	0x1000051f6 <__text+0x1a76>
1000051af: 4b 8b 5c f5 08              	mov	rbx, qword ptr [r13 + 8*r14 + 8]
1000051b4: 49 83 c6 01                 	add	r14, 1
1000051b8: 48 85 db                    	test	rbx, rbx
1000051bb: 75 e3                       	jne	0x1000051a0 <__text+0x1a20>
1000051bd: 41 8d 46 ff                 	lea	eax, [r14 - 1]
1000051c1: 83 f8 13                    	cmp	eax, 19
1000051c4: 72 10                       	jb	0x1000051d6 <__text+0x1a56>
1000051c6: 48 8d 3d 54 53 00 00        	lea	rdi, [rip + 21332]      ## 0x10000a521 <dyld_stub_binder+0x10000a521>
1000051cd: 31 c0                       	xor	eax, eax
1000051cf: e8 4c f0 ff ff              	call	0x100004220 <__text+0xaa0>
1000051d4: eb 68                       	jmp	0x10000523e <__text+0x1abe>
1000051d6: 44 89 f0                    	mov	eax, r14d
1000051d9: 4d 8d 6c c5 00              	lea	r13, [r13 + 8*rax]
1000051de: 48 8d bd d0 ef ff ff        	lea	rdi, [rbp - 4144]
1000051e5: e8 c6 ec ff ff              	call	0x100003eb0 <__text+0x730>
1000051ea: 48 85 c0                    	test	rax, rax
1000051ed: 74 3a                       	je	0x100005229 <__text+0x1aa9>
1000051ef: 48 89 c3                    	mov	rbx, rax
1000051f2: 49 89 45 00                 	mov	qword ptr [r13], rax
1000051f6: 48 89 df                    	mov	rdi, rbx
1000051f9: 4c 89 fe                    	mov	rsi, r15
1000051fc: e8 9f ef ff ff              	call	0x1000041a0 <__text+0xa20>
100005201: 48 85 c0                    	test	rax, rax
100005204: 74 1a                       	je	0x100005220 <__text+0x1aa0>
100005206: 48 89 df                    	mov	rdi, rbx
100005209: 48 89 c6                    	mov	rsi, rax
10000520c: 48 8b 95 c8 ef ff ff        	mov	rdx, qword ptr [rbp - 4152]
100005213: e8 e8 e9 ff ff              	call	0x100003c00 <__text+0x480>
100005218: 85 c0                       	test	eax, eax
10000521a: 78 32                       	js	0x10000524e <__text+0x1ace>
10000521c: 31 c0                       	xor	eax, eax
10000521e: eb 5e                       	jmp	0x10000527e <__text+0x1afe>
100005220: 48 8d 3d 7e 52 00 00        	lea	rdi, [rip + 21118]      ## 0x10000a4a5 <dyld_stub_binder+0x10000a4a5>
100005227: eb 2c                       	jmp	0x100005255 <__text+0x1ad5>
100005229: 48 8d 3d 14 53 00 00        	lea	rdi, [rip + 21268]      ## 0x10000a544 <dyld_stub_binder+0x10000a544>
100005230: 48 8d b5 d0 ef ff ff        	lea	rsi, [rbp - 4144]
100005237: 31 c0                       	xor	eax, eax
100005239: e8 e2 ef ff ff              	call	0x100004220 <__text+0xaa0>
10000523e: 48 8d 3d 2e 52 00 00        	lea	rdi, [rip + 21038]      ## 0x10000a473 <dyld_stub_binder+0x10000a473>
100005245: 48 8d b5 d0 ef ff ff        	lea	rsi, [rbp - 4144]
10000524c: eb 24                       	jmp	0x100005272 <__text+0x1af2>
10000524e: 48 8d 3d 8f 52 00 00        	lea	rdi, [rip + 21135]      ## 0x10000a4e4 <dyld_stub_binder+0x10000a4e4>
100005255: 48 8d 95 d0 ef ff ff        	lea	rdx, [rbp - 4144]
10000525c: 4c 89 fe                    	mov	rsi, r15
10000525f: 31 c0                       	xor	eax, eax
100005261: e8 ba ef ff ff              	call	0x100004220 <__text+0xaa0>
100005266: eb 11                       	jmp	0x100005279 <__text+0x1af9>
100005268: 48 8d 3d d7 51 00 00        	lea	rdi, [rip + 20951]      ## 0x10000a446 <dyld_stub_binder+0x10000a446>
10000526f: 4c 89 e6                    	mov	rsi, r12
100005272: 31 c0                       	xor	eax, eax
100005274: e8 a7 ef ff ff              	call	0x100004220 <__text+0xaa0>
100005279: b8 ff ff ff ff              	mov	eax, 4294967295
10000527e: 48 8b 0d 83 6d 00 00        	mov	rcx, qword ptr [rip + 28035] ## 0x10000c008 <dyld_stub_binder+0x10000c008>
100005285: 48 8b 09                    	mov	rcx, qword ptr [rcx]
100005288: 48 3b 4d d0                 	cmp	rcx, qword ptr [rbp - 48]
10000528c: 75 12                       	jne	0x1000052a0 <__text+0x1b20>
10000528e: 48 81 c4 18 10 00 00        	add	rsp, 4120
100005295: 5b                          	pop	rbx
100005296: 41 5c                       	pop	r12
100005298: 41 5d                       	pop	r13
10000529a: 41 5e                       	pop	r14
10000529c: 41 5f                       	pop	r15
10000529e: 5d                          	pop	rbp
10000529f: c3                          	ret
1000052a0: e8 5b 44 00 00              	call	0x100009700 <dyld_stub_binder+0x100009700>
1000052a5: 90                          	nop
1000052a6: 90                          	nop
1000052a7: 90                          	nop
1000052a8: 90                          	nop
1000052a9: 90                          	nop
1000052aa: 90                          	nop
1000052ab: 90                          	nop
1000052ac: 90                          	nop
1000052ad: 90                          	nop
1000052ae: 90                          	nop
1000052af: 90                          	nop
1000052b0: 55                          	push	rbp
1000052b1: 48 89 e5                    	mov	rbp, rsp
1000052b4: 41 56                       	push	r14
1000052b6: 53                          	push	rbx
1000052b7: 48 81 ec 10 04 00 00        	sub	rsp, 1040
1000052be: 48 89 f1                    	mov	rcx, rsi
1000052c1: 49 89 fe                    	mov	r14, rdi
1000052c4: 48 8b 05 3d 6d 00 00        	mov	rax, qword ptr [rip + 27965] ## 0x10000c008 <dyld_stub_binder+0x10000c008>
1000052cb: 48 8b 00                    	mov	rax, qword ptr [rax]
1000052ce: 48 89 45 e8                 	mov	qword ptr [rbp - 24], rax
1000052d2: 48 8d 15 57 4a 00 00        	lea	rdx, [rip + 19031]      ## 0x100009d30 <dyld_stub_binder+0x100009d30>
1000052d9: 31 db                       	xor	ebx, ebx
1000052db: 48 8d bd e0 fb ff ff        	lea	rdi, [rbp - 1056]
1000052e2: be 00 04 00 00              	mov	esi, 1024
1000052e7: 31 c0                       	xor	eax, eax
1000052e9: e8 2c 45 00 00              	call	0x10000981a <dyld_stub_binder+0x10000981a>
1000052ee: 3d ff 03 00 00              	cmp	eax, 1023
1000052f3: 7f 2d                       	jg	0x100005322 <__text+0x1ba2>
1000052f5: 48 8d bd e0 fb ff ff        	lea	rdi, [rbp - 1056]
1000052fc: e8 1d 44 00 00              	call	0x10000971e <dyld_stub_binder+0x10000971e>
100005301: 48 8d 15 28 4a 00 00        	lea	rdx, [rip + 18984]      ## 0x100009d30 <dyld_stub_binder+0x100009d30>
100005308: be 00 04 00 00              	mov	esi, 1024
10000530d: 4c 89 f7                    	mov	rdi, r14
100005310: 48 89 c1                    	mov	rcx, rax
100005313: 31 c0                       	xor	eax, eax
100005315: e8 00 45 00 00              	call	0x10000981a <dyld_stub_binder+0x10000981a>
10000531a: 3d 00 04 00 00              	cmp	eax, 1024
10000531f: 0f 9c c3                    	setl	bl
100005322: 48 8b 05 df 6c 00 00        	mov	rax, qword ptr [rip + 27871] ## 0x10000c008 <dyld_stub_binder+0x10000c008>
100005329: 48 8b 00                    	mov	rax, qword ptr [rax]
10000532c: 48 3b 45 e8                 	cmp	rax, qword ptr [rbp - 24]
100005330: 75 0e                       	jne	0x100005340 <__text+0x1bc0>
100005332: 89 d8                       	mov	eax, ebx
100005334: 48 81 c4 10 04 00 00        	add	rsp, 1040
10000533b: 5b                          	pop	rbx
10000533c: 41 5e                       	pop	r14
10000533e: 5d                          	pop	rbp
10000533f: c3                          	ret
100005340: e8 bb 43 00 00              	call	0x100009700 <dyld_stub_binder+0x100009700>
100005345: 66 2e 0f 1f 84 00 00 00 00 00       	nop	word ptr cs:[rax + rax]
10000534f: 90                          	nop
100005350: 55                          	push	rbp
100005351: 48 89 e5                    	mov	rbp, rsp
100005354: 53                          	push	rbx
100005355: 50                          	push	rax
100005356: 48 89 fb                    	mov	rbx, rdi
100005359: 48 89 f7                    	mov	rdi, rsi
10000535c: e8 a5 43 00 00              	call	0x100009706 <dyld_stub_binder+0x100009706>
100005361: 48 89 df                    	mov	rdi, rbx
100005364: 48 89 c6                    	mov	rsi, rax
100005367: e8 cc 44 00 00              	call	0x100009838 <dyld_stub_binder+0x100009838>
10000536c: b0 01                       	mov	al, 1
10000536e: 48 83 c4 08                 	add	rsp, 8
100005372: 5b                          	pop	rbx
100005373: 5d                          	pop	rbp
100005374: c3                          	ret
100005375: 66 2e 0f 1f 84 00 00 00 00 00       	nop	word ptr cs:[rax + rax]
10000537f: 90                          	nop
100005380: 55                          	push	rbp
100005381: 48 89 e5                    	mov	rbp, rsp
100005384: 41 57                       	push	r15
100005386: 41 56                       	push	r14
100005388: 41 54                       	push	r12
10000538a: 53                          	push	rbx
10000538b: 49 89 d6                    	mov	r14, rdx
10000538e: 48 89 f1                    	mov	rcx, rsi
100005391: 49 89 ff                    	mov	r15, rdi
100005394: 48 8d 15 95 49 00 00        	lea	rdx, [rip + 18837]      ## 0x100009d30 <dyld_stub_binder+0x100009d30>
10000539b: be 00 04 00 00              	mov	esi, 1024
1000053a0: 31 c0                       	xor	eax, eax
1000053a2: e8 73 44 00 00              	call	0x10000981a <dyld_stub_binder+0x10000981a>
1000053a7: 3d fe 03 00 00              	cmp	eax, 1022
1000053ac: 77 53                       	ja	0x100005401 <__text+0x1c81>
1000053ae: 48 98                       	cdqe
1000053b0: 42 80 7c 38 ff 2f           	cmp	byte ptr [rax + r15 - 1], 47
1000053b6: 74 0b                       	je	0x1000053c3 <__text+0x1c43>
1000053b8: 66 41 c7 04 07 2f 00        	mov	word ptr [r15 + rax], 47
1000053bf: 48 83 c0 02                 	add	rax, 2
1000053c3: bb 00 04 00 00              	mov	ebx, 1024
1000053c8: 48 29 c3                    	sub	rbx, rax
1000053cb: 4c 89 f7                    	mov	rdi, r14
1000053ce: e8 77 44 00 00              	call	0x10000984a <dyld_stub_binder+0x10000984a>
1000053d3: 48 39 d8                    	cmp	rax, rbx
1000053d6: 73 29                       	jae	0x100005401 <__text+0x1c81>
1000053d8: 46 8a 64 30 ff              	mov	r12b, byte ptr [rax + r14 - 1]
1000053dd: 4c 89 ff                    	mov	rdi, r15
1000053e0: 4c 89 f6                    	mov	rsi, r14
1000053e3: 48 89 da                    	mov	rdx, rbx
1000053e6: e8 65 44 00 00              	call	0x100009850 <dyld_stub_binder+0x100009850>
1000053eb: 41 80 fc 2f                 	cmp	r12b, 47
1000053ef: 75 13                       	jne	0x100005404 <__text+0x1c84>
1000053f1: 4c 89 ff                    	mov	rdi, r15
1000053f4: e8 51 44 00 00              	call	0x10000984a <dyld_stub_binder+0x10000984a>
1000053f9: 42 c6 44 38 ff 00           	mov	byte ptr [rax + r15 - 1], 0
1000053ff: eb 03                       	jmp	0x100005404 <__text+0x1c84>
100005401: 45 31 ff                    	xor	r15d, r15d
100005404: 4c 89 f8                    	mov	rax, r15
100005407: 5b                          	pop	rbx
100005408: 41 5c                       	pop	r12
10000540a: 41 5e                       	pop	r14
10000540c: 41 5f                       	pop	r15
10000540e: 5d                          	pop	rbp
10000540f: c3                          	ret
100005410: 55                          	push	rbp
100005411: 48 89 e5                    	mov	rbp, rsp
100005414: 48 81 ec 90 00 00 00        	sub	rsp, 144
10000541b: 48 8d b5 70 ff ff ff        	lea	rsi, [rbp - 144]
100005422: e8 f9 43 00 00              	call	0x100009820 <dyld_stub_binder+0x100009820>
100005427: 31 c9                       	xor	ecx, ecx
100005429: 85 c0                       	test	eax, eax
10000542b: 0f 94 c1                    	sete	cl
10000542e: 89 c8                       	mov	eax, ecx
100005430: 48 81 c4 90 00 00 00        	add	rsp, 144
100005437: 5d                          	pop	rbp
100005438: c3                          	ret
100005439: 0f 1f 80 00 00 00 00        	nop	dword ptr [rax]
100005440: 55                          	push	rbp
100005441: 48 89 e5                    	mov	rbp, rsp
100005444: 48 81 ec 90 00 00 00        	sub	rsp, 144
10000544b: 48 8d b5 70 ff ff ff        	lea	rsi, [rbp - 144]
100005452: e8 63 43 00 00              	call	0x1000097ba <dyld_stub_binder+0x1000097ba>
100005457: 85 c0                       	test	eax, eax
100005459: 0f 99 c1                    	setns	cl
10000545c: 0f b7 85 74 ff ff ff        	movzx	eax, word ptr [rbp - 140]
100005463: 25 00 f0 00 00              	and	eax, 61440
100005468: 3d 00 a0 00 00              	cmp	eax, 40960
10000546d: 0f 94 c0                    	sete	al
100005470: 20 c8                       	and	al, cl
100005472: 48 81 c4 90 00 00 00        	add	rsp, 144
100005479: 5d                          	pop	rbp
10000547a: c3                          	ret
10000547b: 0f 1f 44 00 00              	nop	dword ptr [rax + rax]
100005480: 55                          	push	rbp
100005481: 48 89 e5                    	mov	rbp, rsp
100005484: 5d                          	pop	rbp
100005485: e9 de 43 00 00              	jmp	0x100009868 <dyld_stub_binder+0x100009868>
10000548a: 90                          	nop
10000548b: 90                          	nop
10000548c: 90                          	nop
10000548d: 90                          	nop
10000548e: 90                          	nop
10000548f: 90                          	nop
100005490: 48 85 ff                    	test	rdi, rdi
100005493: 74 7a                       	je	0x10000550f <__text+0x1d8f>
100005495: 55                          	push	rbp
100005496: 48 89 e5                    	mov	rbp, rsp
100005499: 41 56                       	push	r14
10000549b: 53                          	push	rbx
10000549c: 49 89 fe                    	mov	r14, rdi
10000549f: 83 7f 20 00                 	cmp	dword ptr [rdi + 32], 0
1000054a3: 7e 25                       	jle	0x1000054ca <__text+0x1d4a>
1000054a5: 31 db                       	xor	ebx, ebx
1000054a7: 66 0f 1f 84 00 00 00 00 00  	nop	word ptr [rax + rax]
1000054b0: 49 8b 46 28                 	mov	rax, qword ptr [r14 + 40]
1000054b4: 48 8b 3c d8                 	mov	rdi, qword ptr [rax + 8*rbx]
1000054b8: e8 c1 42 00 00              	call	0x10000977e <dyld_stub_binder+0x10000977e>
1000054bd: 48 83 c3 01                 	add	rbx, 1
1000054c1: 49 63 46 20                 	movsxd	rax, dword ptr [r14 + 32]
1000054c5: 48 39 c3                    	cmp	rbx, rax
1000054c8: 7c e6                       	jl	0x1000054b0 <__text+0x1d30>
1000054ca: 49 8b 7e 28                 	mov	rdi, qword ptr [r14 + 40]
1000054ce: e8 ab 42 00 00              	call	0x10000977e <dyld_stub_binder+0x10000977e>
1000054d3: 41 83 7e 30 00              	cmp	dword ptr [r14 + 48], 0
1000054d8: 7e 20                       	jle	0x1000054fa <__text+0x1d7a>
1000054da: 31 db                       	xor	ebx, ebx
1000054dc: 0f 1f 40 00                 	nop	dword ptr [rax]
1000054e0: 49 8b 46 38                 	mov	rax, qword ptr [r14 + 56]
1000054e4: 48 8b 3c d8                 	mov	rdi, qword ptr [rax + 8*rbx]
1000054e8: e8 91 42 00 00              	call	0x10000977e <dyld_stub_binder+0x10000977e>
1000054ed: 48 83 c3 01                 	add	rbx, 1
1000054f1: 49 63 46 30                 	movsxd	rax, dword ptr [r14 + 48]
1000054f5: 48 39 c3                    	cmp	rbx, rax
1000054f8: 7c e6                       	jl	0x1000054e0 <__text+0x1d60>
1000054fa: 49 8b 7e 38                 	mov	rdi, qword ptr [r14 + 56]
1000054fe: e8 7b 42 00 00              	call	0x10000977e <dyld_stub_binder+0x10000977e>
100005503: 4c 89 f7                    	mov	rdi, r14
100005506: 5b                          	pop	rbx
100005507: 41 5e                       	pop	r14
100005509: 5d                          	pop	rbp
10000550a: e9 6f 42 00 00              	jmp	0x10000977e <dyld_stub_binder+0x10000977e>
10000550f: c3                          	ret
100005510: 55                          	push	rbp
100005511: 48 89 e5                    	mov	rbp, rsp
100005514: 41 57                       	push	r15
100005516: 41 56                       	push	r14
100005518: 41 55                       	push	r13
10000551a: 41 54                       	push	r12
10000551c: 53                          	push	rbx
10000551d: 48 81 ec 28 10 00 00        	sub	rsp, 4136
100005524: 48 8b 05 dd 6a 00 00        	mov	rax, qword ptr [rip + 27357] ## 0x10000c008 <dyld_stub_binder+0x10000c008>
10000552b: 48 8b 00                    	mov	rax, qword ptr [rax]
10000552e: 48 89 45 d0                 	mov	qword ptr [rbp - 48], rax
100005532: 4c 8b bf 20 08 00 00        	mov	r15, qword ptr [rdi + 2080]
100005539: bf 01 00 00 00              	mov	edi, 1
10000553e: be 40 00 00 00              	mov	esi, 64
100005543: e8 c4 41 00 00              	call	0x10000970c <dyld_stub_binder+0x10000970c>
100005548: 48 85 c0                    	test	rax, rax
10000554b: 0f 84 f6 03 00 00           	je	0x100005947 <__text+0x21c7>
100005551: 49 89 c6                    	mov	r14, rax
100005554: 31 c0                       	xor	eax, eax
100005556: 48 89 85 b8 ef ff ff        	mov	qword ptr [rbp - 4168], rax
10000555d: 41 c7 46 18 ff ff ff ff     	mov	dword ptr [r14 + 24], 4294967295
100005565: 49 8b 9f 08 04 00 00        	mov	rbx, qword ptr [r15 + 1032]
10000556c: b8 00 00 00 00              	mov	eax, 0
100005571: 48 89 85 b0 ef ff ff        	mov	qword ptr [rbp - 4176], rax
100005578: 49 3b 9f 10 04 00 00        	cmp	rbx, qword ptr [r15 + 1040]
10000557f: 0f 83 b8 01 00 00           	jae	0x10000573d <__text+0x1fbd>
100005585: 31 c0                       	xor	eax, eax
100005587: 48 89 85 b0 ef ff ff        	mov	qword ptr [rbp - 4176], rax
10000558e: 4c 8d 25 cb 4f 00 00        	lea	r12, [rip + 20427]      ## 0x10000a560 <dyld_stub_binder+0x10000a560>
100005595: 31 c0                       	xor	eax, eax
100005597: 48 89 85 b8 ef ff ff        	mov	qword ptr [rbp - 4168], rax
10000559e: eb 2b                       	jmp	0x1000055cb <__text+0x1e4b>
1000055a0: 41 83 06 01                 	add	dword ptr [r14], 1
1000055a4: 66 2e 0f 1f 84 00 00 00 00 00       	nop	word ptr cs:[rax + rax]
1000055ae: 66 90                       	nop
1000055b0: 4c 89 ff                    	mov	rdi, r15
1000055b3: 48 89 de                    	mov	rsi, rbx
1000055b6: e8 e5 e1 ff ff              	call	0x1000037a0 <__text+0x20>
1000055bb: 48 89 c3                    	mov	rbx, rax
1000055be: 49 3b 87 10 04 00 00        	cmp	rax, qword ptr [r15 + 1040]
1000055c5: 0f 83 72 01 00 00           	jae	0x10000573d <__text+0x1fbd>
1000055cb: 80 7b 11 6f                 	cmp	byte ptr [rbx + 17], 111
1000055cf: 75 df                       	jne	0x1000055b0 <__text+0x1e30>
1000055d1: 4c 8d 6b 12                 	lea	r13, [rbx + 18]
1000055d5: ba 04 00 00 00              	mov	edx, 4
1000055da: 4c 89 ef                    	mov	rdi, r13
1000055dd: 4c 89 e6                    	mov	rsi, r12
1000055e0: e8 71 42 00 00              	call	0x100009856 <dyld_stub_binder+0x100009856>
1000055e5: 85 c0                       	test	eax, eax
1000055e7: 74 c7                       	je	0x1000055b0 <__text+0x1e30>
1000055e9: 4c 89 ef                    	mov	rdi, r13
1000055ec: 48 8d 35 72 4f 00 00        	lea	rsi, [rip + 20338]      ## 0x10000a565 <dyld_stub_binder+0x10000a565>
1000055f3: e8 3a 42 00 00              	call	0x100009832 <dyld_stub_binder+0x100009832>
1000055f8: 85 c0                       	test	eax, eax
1000055fa: 74 a4                       	je	0x1000055a0 <__text+0x1e20>
1000055fc: 4c 89 ef                    	mov	rdi, r13
1000055ff: 48 8d 35 61 4f 00 00        	lea	rsi, [rip + 20321]      ## 0x10000a567 <dyld_stub_binder+0x10000a567>
100005606: e8 27 42 00 00              	call	0x100009832 <dyld_stub_binder+0x100009832>
10000560b: 85 c0                       	test	eax, eax
10000560d: 74 91                       	je	0x1000055a0 <__text+0x1e20>
10000560f: 4c 89 ef                    	mov	rdi, r13
100005612: 48 8d 35 56 4f 00 00        	lea	rsi, [rip + 20310]      ## 0x10000a56f <dyld_stub_binder+0x10000a56f>
100005619: e8 14 42 00 00              	call	0x100009832 <dyld_stub_binder+0x100009832>
10000561e: 85 c0                       	test	eax, eax
100005620: 0f 84 d4 00 00 00           	je	0x1000056fa <__text+0x1f7a>
100005626: 4c 89 ef                    	mov	rdi, r13
100005629: 48 8d 35 41 4f 00 00        	lea	rsi, [rip + 20289]      ## 0x10000a571 <dyld_stub_binder+0x10000a571>
100005630: e8 fd 41 00 00              	call	0x100009832 <dyld_stub_binder+0x100009832>
100005635: 85 c0                       	test	eax, eax
100005637: 0f 84 bd 00 00 00           	je	0x1000056fa <__text+0x1f7a>
10000563d: 4c 89 ef                    	mov	rdi, r13
100005640: 48 8d 35 35 4f 00 00        	lea	rsi, [rip + 20277]      ## 0x10000a57c <dyld_stub_binder+0x10000a57c>
100005647: e8 e6 41 00 00              	call	0x100009832 <dyld_stub_binder+0x100009832>
10000564c: 85 c0                       	test	eax, eax
10000564e: 0f 84 b3 00 00 00           	je	0x100005707 <__text+0x1f87>
100005654: 4c 89 ef                    	mov	rdi, r13
100005657: 48 8d 35 20 4f 00 00        	lea	rsi, [rip + 20256]      ## 0x10000a57e <dyld_stub_binder+0x10000a57e>
10000565e: e8 cf 41 00 00              	call	0x100009832 <dyld_stub_binder+0x100009832>
100005663: 85 c0                       	test	eax, eax
100005665: 0f 84 9c 00 00 00           	je	0x100005707 <__text+0x1f87>
10000566b: ba 02 00 00 00              	mov	edx, 2
100005670: 4c 89 ef                    	mov	rdi, r13
100005673: 48 8d 35 0d 4f 00 00        	lea	rsi, [rip + 20237]      ## 0x10000a587 <dyld_stub_binder+0x10000a587>
10000567a: e8 d7 41 00 00              	call	0x100009856 <dyld_stub_binder+0x100009856>
10000567f: 85 c0                       	test	eax, eax
100005681: 0f 84 8a 00 00 00           	je	0x100005711 <__text+0x1f91>
100005687: ba 02 00 00 00              	mov	edx, 2
10000568c: 4c 89 ef                    	mov	rdi, r13
10000568f: 48 8d 35 f4 4e 00 00        	lea	rsi, [rip + 20212]      ## 0x10000a58a <dyld_stub_binder+0x10000a58a>
100005696: e8 bb 41 00 00              	call	0x100009856 <dyld_stub_binder+0x100009856>
10000569b: 85 c0                       	test	eax, eax
10000569d: 0f 84 84 00 00 00           	je	0x100005727 <__text+0x1fa7>
1000056a3: ba 09 00 00 00              	mov	edx, 9
1000056a8: 4c 89 ef                    	mov	rdi, r13
1000056ab: 48 8d 35 db 4e 00 00        	lea	rsi, [rip + 20187]      ## 0x10000a58d <dyld_stub_binder+0x10000a58d>
1000056b2: e8 9f 41 00 00              	call	0x100009856 <dyld_stub_binder+0x100009856>
1000056b7: 85 c0                       	test	eax, eax
1000056b9: 0f 85 f1 fe ff ff           	jne	0x1000055b0 <__text+0x1e30>
1000056bf: 0f b6 43 1b                 	movzx	eax, byte ptr [rbx + 27]
1000056c3: 3c 3d                       	cmp	al, 61
1000056c5: 74 08                       	je	0x1000056cf <__text+0x1f4f>
1000056c7: 3c 20                       	cmp	al, 32
1000056c9: 0f 85 e1 fe ff ff           	jne	0x1000055b0 <__text+0x1e30>
1000056cf: 80 7b 1c 00                 	cmp	byte ptr [rbx + 28], 0
1000056d3: 0f 84 d7 fe ff ff           	je	0x1000055b0 <__text+0x1e30>
1000056d9: 48 8d 7b 1c                 	lea	rdi, [rbx + 28]
1000056dd: 41 c7 46 0c 01 00 00 00     	mov	dword ptr [r14 + 12], 1
1000056e5: 31 f6                       	xor	esi, esi
1000056e7: ba 0a 00 00 00              	mov	edx, 10
1000056ec: e8 71 41 00 00              	call	0x100009862 <dyld_stub_binder+0x100009862>
1000056f1: 49 89 46 10                 	mov	qword ptr [r14 + 16], rax
1000056f5: e9 b6 fe ff ff              	jmp	0x1000055b0 <__text+0x1e30>
1000056fa: 41 c7 46 04 01 00 00 00     	mov	dword ptr [r14 + 4], 1
100005702: e9 a9 fe ff ff              	jmp	0x1000055b0 <__text+0x1e30>
100005707: 41 83 46 08 01              	add	dword ptr [r14 + 8], 1
10000570c: e9 9f fe ff ff              	jmp	0x1000055b0 <__text+0x1e30>
100005711: 48 8b 85 b8 ef ff ff        	mov	rax, qword ptr [rbp - 4168]
100005718: 83 c0 01                    	add	eax, 1
10000571b: 48 89 85 b8 ef ff ff        	mov	qword ptr [rbp - 4168], rax
100005722: e9 89 fe ff ff              	jmp	0x1000055b0 <__text+0x1e30>
100005727: 48 8b 85 b0 ef ff ff        	mov	rax, qword ptr [rbp - 4176]
10000572e: 83 c0 01                    	add	eax, 1
100005731: 48 89 85 b0 ef ff ff        	mov	qword ptr [rbp - 4176], rax
100005738: e9 73 fe ff ff              	jmp	0x1000055b0 <__text+0x1e30>
10000573d: 48 63 bd b8 ef ff ff        	movsxd	rdi, dword ptr [rbp - 4168]
100005744: be 08 00 00 00              	mov	esi, 8
100005749: e8 be 3f 00 00              	call	0x10000970c <dyld_stub_binder+0x10000970c>
10000574e: 48 89 c3                    	mov	rbx, rax
100005751: 49 89 46 28                 	mov	qword ptr [r14 + 40], rax
100005755: 48 63 bd b0 ef ff ff        	movsxd	rdi, dword ptr [rbp - 4176]
10000575c: be 08 00 00 00              	mov	esi, 8
100005761: e8 a6 3f 00 00              	call	0x10000970c <dyld_stub_binder+0x10000970c>
100005766: 49 89 46 38                 	mov	qword ptr [r14 + 56], rax
10000576a: 48 85 c0                    	test	rax, rax
10000576d: 0f 84 cc 01 00 00           	je	0x10000593f <__text+0x21bf>
100005773: 48 85 db                    	test	rbx, rbx
100005776: 0f 84 c3 01 00 00           	je	0x10000593f <__text+0x21bf>
10000577c: 4d 8b af 08 04 00 00        	mov	r13, qword ptr [r15 + 1032]
100005783: 4d 3b af 10 04 00 00        	cmp	r13, qword ptr [r15 + 1040]
10000578a: 0f 83 ba 01 00 00           	jae	0x10000594a <__text+0x21ca>
100005790: 4c 89 b5 b8 ef ff ff        	mov	qword ptr [rbp - 4168], r14
100005797: eb 22                       	jmp	0x1000057bb <__text+0x203b>
100005799: 41 89 4e 1c                 	mov	dword ptr [r14 + 28], ecx
10000579d: 0f 1f 00                    	nop	dword ptr [rax]
1000057a0: 4c 89 ff                    	mov	rdi, r15
1000057a3: 4c 89 ee                    	mov	rsi, r13
1000057a6: e8 f5 df ff ff              	call	0x1000037a0 <__text+0x20>
1000057ab: 49 89 c5                    	mov	r13, rax
1000057ae: 49 3b 87 10 04 00 00        	cmp	rax, qword ptr [r15 + 1040]
1000057b5: 0f 83 8f 01 00 00           	jae	0x10000594a <__text+0x21ca>
1000057bb: 41 80 7d 11 6f              	cmp	byte ptr [r13 + 17], 111
1000057c0: 75 de                       	jne	0x1000057a0 <__text+0x2020>
1000057c2: 49 8d 5d 12                 	lea	rbx, [r13 + 18]
1000057c6: ba 02 00 00 00              	mov	edx, 2
1000057cb: 48 89 df                    	mov	rdi, rbx
1000057ce: 48 8d 35 b2 4d 00 00        	lea	rsi, [rip + 19890]      ## 0x10000a587 <dyld_stub_binder+0x10000a587>
1000057d5: e8 7c 40 00 00              	call	0x100009856 <dyld_stub_binder+0x100009856>
1000057da: 85 c0                       	test	eax, eax
1000057dc: 0f 84 1b 01 00 00           	je	0x1000058fd <__text+0x217d>
1000057e2: ba 02 00 00 00              	mov	edx, 2
1000057e7: 48 89 df                    	mov	rdi, rbx
1000057ea: 48 8d 35 99 4d 00 00        	lea	rsi, [rip + 19865]      ## 0x10000a58a <dyld_stub_binder+0x10000a58a>
1000057f1: e8 60 40 00 00              	call	0x100009856 <dyld_stub_binder+0x100009856>
1000057f6: 85 c0                       	test	eax, eax
1000057f8: 75 a6                       	jne	0x1000057a0 <__text+0x2020>
1000057fa: 4d 8d 65 14                 	lea	r12, [r13 + 20]
1000057fe: 49 8b 46 38                 	mov	rax, qword ptr [r14 + 56]
100005802: 48 89 85 b0 ef ff ff        	mov	qword ptr [rbp - 4176], rax
100005809: 49 63 5e 30                 	movsxd	rbx, dword ptr [r14 + 48]
10000580d: ba 00 04 00 00              	mov	edx, 1024
100005812: 4c 8d b5 c0 ef ff ff        	lea	r14, [rbp - 4160]
100005819: 4c 89 f7                    	mov	rdi, r14
10000581c: 4c 89 e6                    	mov	rsi, r12
10000581f: e8 a2 3f 00 00              	call	0x1000097c6 <dyld_stub_binder+0x1000097c6>
100005824: 4c 89 f7                    	mov	rdi, r14
100005827: 4c 8b b5 b8 ef ff ff        	mov	r14, qword ptr [rbp - 4168]
10000582e: e8 59 40 00 00              	call	0x10000988c <dyld_stub_binder+0x10000988c>
100005833: 48 8b 8d b0 ef ff ff        	mov	rcx, qword ptr [rbp - 4176]
10000583a: 48 89 04 d9                 	mov	qword ptr [rcx + 8*rbx], rax
10000583e: 48 85 c0                    	test	rax, rax
100005841: 0f 84 f8 00 00 00           	je	0x10000593f <__text+0x21bf>
100005847: 41 83 46 30 01              	add	dword ptr [r14 + 48], 1
10000584c: ba 04 00 00 00              	mov	edx, 4
100005851: 4c 89 e7                    	mov	rdi, r12
100005854: 48 8d 35 3c 4d 00 00        	lea	rsi, [rip + 19772]      ## 0x10000a597 <dyld_stub_binder+0x10000a597>
10000585b: e8 f6 3f 00 00              	call	0x100009856 <dyld_stub_binder+0x100009856>
100005860: 85 c0                       	test	eax, eax
100005862: 75 38                       	jne	0x10000589c <__text+0x211c>
100005864: 41 0f b6 45 18              	movzx	eax, byte ptr [r13 + 24]
100005869: b9 01 00 00 00              	mov	ecx, 1
10000586e: 84 c0                       	test	al, al
100005870: 74 26                       	je	0x100005898 <__text+0x2118>
100005872: 3c 3d                       	cmp	al, 61
100005874: 74 04                       	je	0x10000587a <__text+0x20fa>
100005876: 3c 20                       	cmp	al, 32
100005878: 75 22                       	jne	0x10000589c <__text+0x211c>
10000587a: 41 80 7d 19 00              	cmp	byte ptr [r13 + 25], 0
10000587f: 74 17                       	je	0x100005898 <__text+0x2118>
100005881: 49 8d 7d 19                 	lea	rdi, [r13 + 25]
100005885: 48 8d 35 d9 48 00 00        	lea	rsi, [rip + 18649]      ## 0x10000a165 <dyld_stub_binder+0x10000a165>
10000588c: e8 a1 3f 00 00              	call	0x100009832 <dyld_stub_binder+0x100009832>
100005891: 31 c9                       	xor	ecx, ecx
100005893: 85 c0                       	test	eax, eax
100005895: 0f 95 c1                    	setne	cl
100005898: 41 89 4e 18                 	mov	dword ptr [r14 + 24], ecx
10000589c: ba 03 00 00 00              	mov	edx, 3
1000058a1: 4c 89 e7                    	mov	rdi, r12
1000058a4: 48 8d 35 f1 4c 00 00        	lea	rsi, [rip + 19697]      ## 0x10000a59c <dyld_stub_binder+0x10000a59c>
1000058ab: e8 a6 3f 00 00              	call	0x100009856 <dyld_stub_binder+0x100009856>
1000058b0: 85 c0                       	test	eax, eax
1000058b2: 0f 85 e8 fe ff ff           	jne	0x1000057a0 <__text+0x2020>
1000058b8: 41 0f b6 45 17              	movzx	eax, byte ptr [r13 + 23]
1000058bd: b9 01 00 00 00              	mov	ecx, 1
1000058c2: 84 c0                       	test	al, al
1000058c4: 0f 84 cf fe ff ff           	je	0x100005799 <__text+0x2019>
1000058ca: 3c 3d                       	cmp	al, 61
1000058cc: 74 08                       	je	0x1000058d6 <__text+0x2156>
1000058ce: 3c 20                       	cmp	al, 32
1000058d0: 0f 85 ca fe ff ff           	jne	0x1000057a0 <__text+0x2020>
1000058d6: 41 80 7d 18 00              	cmp	byte ptr [r13 + 24], 0
1000058db: 0f 84 b8 fe ff ff           	je	0x100005799 <__text+0x2019>
1000058e1: 49 8d 7d 18                 	lea	rdi, [r13 + 24]
1000058e5: 48 8d 35 79 48 00 00        	lea	rsi, [rip + 18553]      ## 0x10000a165 <dyld_stub_binder+0x10000a165>
1000058ec: e8 41 3f 00 00              	call	0x100009832 <dyld_stub_binder+0x100009832>
1000058f1: 31 c9                       	xor	ecx, ecx
1000058f3: 85 c0                       	test	eax, eax
1000058f5: 0f 95 c1                    	setne	cl
1000058f8: e9 9c fe ff ff              	jmp	0x100005799 <__text+0x2019>
1000058fd: 49 8d 75 14                 	lea	rsi, [r13 + 20]
100005901: 4d 8b 66 28                 	mov	r12, qword ptr [r14 + 40]
100005905: 49 63 5e 20                 	movsxd	rbx, dword ptr [r14 + 32]
100005909: ba 00 04 00 00              	mov	edx, 1024
10000590e: 4c 8d b5 c0 ef ff ff        	lea	r14, [rbp - 4160]
100005915: 4c 89 f7                    	mov	rdi, r14
100005918: e8 a9 3e 00 00              	call	0x1000097c6 <dyld_stub_binder+0x1000097c6>
10000591d: 4c 89 f7                    	mov	rdi, r14
100005920: 4c 8b b5 b8 ef ff ff        	mov	r14, qword ptr [rbp - 4168]
100005927: e8 60 3f 00 00              	call	0x10000988c <dyld_stub_binder+0x10000988c>
10000592c: 49 89 04 dc                 	mov	qword ptr [r12 + 8*rbx], rax
100005930: 48 85 c0                    	test	rax, rax
100005933: 74 0a                       	je	0x10000593f <__text+0x21bf>
100005935: 41 83 46 20 01              	add	dword ptr [r14 + 32], 1
10000593a: e9 61 fe ff ff              	jmp	0x1000057a0 <__text+0x2020>
10000593f: 4c 89 f7                    	mov	rdi, r14
100005942: e8 49 fb ff ff              	call	0x100005490 <__text+0x1d10>
100005947: 45 31 f6                    	xor	r14d, r14d
10000594a: 48 8b 05 b7 66 00 00        	mov	rax, qword ptr [rip + 26295] ## 0x10000c008 <dyld_stub_binder+0x10000c008>
100005951: 48 8b 00                    	mov	rax, qword ptr [rax]
100005954: 48 3b 45 d0                 	cmp	rax, qword ptr [rbp - 48]
100005958: 75 15                       	jne	0x10000596f <__text+0x21ef>
10000595a: 4c 89 f0                    	mov	rax, r14
10000595d: 48 81 c4 28 10 00 00        	add	rsp, 4136
100005964: 5b                          	pop	rbx
100005965: 41 5c                       	pop	r12
100005967: 41 5d                       	pop	r13
100005969: 41 5e                       	pop	r14
10000596b: 41 5f                       	pop	r15
10000596d: 5d                          	pop	rbp
10000596e: c3                          	ret
10000596f: e8 8c 3d 00 00              	call	0x100009700 <dyld_stub_binder+0x100009700>
100005974: 66 2e 0f 1f 84 00 00 00 00 00       	nop	word ptr cs:[rax + rax]
10000597e: 66 90                       	nop
100005980: 81 c7 cc fe ff ff           	add	edi, 4294966988
100005986: 83 ff 04                    	cmp	edi, 4
100005989: 77 24                       	ja	0x1000059af <__text+0x222f>
10000598b: 55                          	push	rbp
10000598c: 48 89 e5                    	mov	rbp, rsp
10000598f: 48 8d 05 4a 00 00 00        	lea	rax, [rip + 74]         ## 0x1000059e0 <__text+0x2260>
100005996: 48 63 0c b8                 	movsxd	rcx, dword ptr [rax + 4*rdi]
10000599a: 48 01 c1                    	add	rcx, rax
10000599d: 5d                          	pop	rbp
10000599e: ff e1                       	jmp	rcx
1000059a0: bf 01 00 00 00              	mov	edi, 1
1000059a5: be 88 01 00 00              	mov	esi, 392
1000059aa: e9 5d 3d 00 00              	jmp	0x10000970c <dyld_stub_binder+0x10000970c>
1000059af: 31 c0                       	xor	eax, eax
1000059b1: c3                          	ret
1000059b2: bf 01 00 00 00              	mov	edi, 1
1000059b7: be 68 01 00 00              	mov	esi, 360
1000059bc: e9 4b 3d 00 00              	jmp	0x10000970c <dyld_stub_binder+0x10000970c>
1000059c1: bf 01 00 00 00              	mov	edi, 1
1000059c6: be a8 01 00 00              	mov	esi, 424
1000059cb: e9 3c 3d 00 00              	jmp	0x10000970c <dyld_stub_binder+0x10000970c>
1000059d0: bf 01 00 00 00              	mov	edi, 1
1000059d5: be b0 01 00 00              	mov	esi, 432
1000059da: e9 2d 3d 00 00              	jmp	0x10000970c <dyld_stub_binder+0x10000970c>
1000059df: 90                          	nop
1000059e0: d2 ff                       	sar	bh, cl
1000059e2: ff ff                       	<unknown>
1000059e4: c0 ff ff                    	sar	bh, 255
1000059e7: ff c0                       	inc	eax
1000059e9: ff ff                       	<unknown>
1000059eb: ff e1                       	jmp	rcx
1000059ed: ff ff                       	<unknown>
1000059ef: ff f0                       	push	rax
1000059f1: ff ff                       	<unknown>
1000059f3: ff 66 2e                    	jmp	qword ptr [rsi + 46]
1000059f6: 0f 1f 84 00 00 00 00 00     	nop	dword ptr [rax + rax]
1000059fe: 66 90                       	nop
100005a00: 55                          	push	rbp
100005a01: 48 89 e5                    	mov	rbp, rsp
100005a04: 53                          	push	rbx
100005a05: 50                          	push	rax
100005a06: 48 89 fb                    	mov	rbx, rdi
100005a09: 48 8d 05 e8 74 00 00        	lea	rax, [rip + 29928]      ## 0x10000cef8 <dyld_stub_binder+0x10000cef8>
100005a10: ff 10                       	call	qword ptr [rax]
100005a12: 48 89 df                    	mov	rdi, rbx
100005a15: 48 83 c4 08                 	add	rsp, 8
100005a19: 5b                          	pop	rbx
100005a1a: 5d                          	pop	rbp
100005a1b: e9 5e 3d 00 00              	jmp	0x10000977e <dyld_stub_binder+0x10000977e>
100005a20: 55                          	push	rbp
100005a21: 48 89 e5                    	mov	rbp, rsp
100005a24: 48 83 ec 60                 	sub	rsp, 96
100005a28: 48 89 f1                    	mov	rcx, rsi
100005a2b: 48 8b 96 20 08 00 00        	mov	rdx, qword ptr [rsi + 2080]
100005a32: b8 cc fe ff ff              	mov	eax, 4294966988
100005a37: 03 82 1c 04 00 00           	add	eax, dword ptr [rdx + 1052]
100005a3d: 83 f8 04                    	cmp	eax, 4
100005a40: 77 19                       	ja	0x100005a5b <__text+0x22db>
100005a42: 48 89 fe                    	mov	rsi, rdi
100005a45: 48 8d 15 74 00 00 00        	lea	rdx, [rip + 116]        ## 0x100005ac0 <__text+0x2340>
100005a4c: 48 63 04 82                 	movsxd	rax, dword ptr [rdx + 4*rax]
100005a50: 48 01 d0                    	add	rax, rdx
100005a53: ff e0                       	jmp	rax
100005a55: 48 8d 56 70                 	lea	rdx, [rsi + 112]
100005a59: eb 20                       	jmp	0x100005a7b <__text+0x22fb>
100005a5b: b8 ff ff ff ff              	mov	eax, 4294967295
100005a60: eb 58                       	jmp	0x100005aba <__text+0x233a>
100005a62: 48 8d 96 f0 00 00 00        	lea	rdx, [rsi + 240]
100005a69: eb 10                       	jmp	0x100005a7b <__text+0x22fb>
100005a6b: 48 8d 96 08 01 00 00        	lea	rdx, [rsi + 264]
100005a72: eb 07                       	jmp	0x100005a7b <__text+0x22fb>
100005a74: 48 8d 96 10 01 00 00        	lea	rdx, [rsi + 272]
100005a7b: 48 83 c1 20                 	add	rcx, 32
100005a7f: 48 8d 05 8a 74 00 00        	lea	rax, [rip + 29834]      ## 0x10000cf10 <dyld_stub_binder+0x10000cf10>
100005a86: 48 8d 7d c0                 	lea	rdi, [rbp - 64]
100005a8a: ff 10                       	call	qword ptr [rax]
100005a8c: 0f 10 45 c0                 	movups	xmm0, xmmword ptr [rbp - 64]
100005a90: 0f 10 4d d0                 	movups	xmm1, xmmword ptr [rbp - 48]
100005a94: 0f 29 4d f0                 	movaps	xmmword ptr [rbp - 16], xmm1
100005a98: 0f 29 45 e0                 	movaps	xmmword ptr [rbp - 32], xmm0
100005a9c: 48 8d 05 2d 75 00 00        	lea	rax, [rip + 29997]      ## 0x10000cfd0 <dyld_stub_binder+0x10000cfd0>
100005aa3: 0f 28 45 e0                 	movaps	xmm0, xmmword ptr [rbp - 32]
100005aa7: 0f 28 4d f0                 	movaps	xmm1, xmmword ptr [rbp - 16]
100005aab: 0f 11 4c 24 10              	movups	xmmword ptr [rsp + 16], xmm1
100005ab0: 0f 11 04 24                 	movups	xmmword ptr [rsp], xmm0
100005ab4: ff 10                       	call	qword ptr [rax]
100005ab6: f7 d8                       	neg	eax
100005ab8: 19 c0                       	sbb	eax, eax
100005aba: 48 83 c4 60                 	add	rsp, 96
100005abe: 5d                          	pop	rbp
100005abf: c3                          	ret
100005ac0: 95                          	xchg	eax, ebp
100005ac1: ff ff                       	<unknown>
100005ac3: ff 95 ff ff ff a2           	call	qword ptr [rbp - 1560281089]
100005ac9: ff ff                       	<unknown>
100005acb: ff ab ff ff ff b4           	jmp	[rbx - 1258291201]
100005ad1: ff ff                       	<unknown>
100005ad3: ff 66 2e                    	jmp	qword ptr [rsi + 46]
100005ad6: 0f 1f 84 00 00 00 00 00     	nop	dword ptr [rax + rax]
100005ade: 66 90                       	nop
100005ae0: 55                          	push	rbp
100005ae1: 48 89 e5                    	mov	rbp, rsp
100005ae4: 48 83 ec 60                 	sub	rsp, 96
100005ae8: 48 89 f1                    	mov	rcx, rsi
100005aeb: 48 8b 96 20 08 00 00        	mov	rdx, qword ptr [rsi + 2080]
100005af2: b8 cc fe ff ff              	mov	eax, 4294966988
100005af7: 03 82 1c 04 00 00           	add	eax, dword ptr [rdx + 1052]
100005afd: 83 f8 04                    	cmp	eax, 4
100005b00: 77 1c                       	ja	0x100005b1e <__text+0x239e>
100005b02: 48 89 fe                    	mov	rsi, rdi
100005b05: 48 8d 15 7c 00 00 00        	lea	rdx, [rip + 124]        ## 0x100005b88 <__text+0x2408>
100005b0c: 48 63 04 82                 	movsxd	rax, dword ptr [rdx + 4*rax]
100005b10: 48 01 d0                    	add	rax, rdx
100005b13: ff e0                       	jmp	rax
100005b15: 48 8d 96 f0 00 00 00        	lea	rdx, [rsi + 240]
100005b1c: eb 20                       	jmp	0x100005b3e <__text+0x23be>
100005b1e: b8 ff ff ff ff              	mov	eax, 4294967295
100005b23: eb 5b                       	jmp	0x100005b80 <__text+0x2400>
100005b25: 48 8d 96 00 01 00 00        	lea	rdx, [rsi + 256]
100005b2c: eb 10                       	jmp	0x100005b3e <__text+0x23be>
100005b2e: 48 8d 96 18 01 00 00        	lea	rdx, [rsi + 280]
100005b35: eb 07                       	jmp	0x100005b3e <__text+0x23be>
100005b37: 48 8d 96 20 01 00 00        	lea	rdx, [rsi + 288]
100005b3e: 48 81 c1 32 08 00 00        	add	rcx, 2098
100005b45: 48 8d 05 c4 73 00 00        	lea	rax, [rip + 29636]      ## 0x10000cf10 <dyld_stub_binder+0x10000cf10>
100005b4c: 48 8d 7d c0                 	lea	rdi, [rbp - 64]
100005b50: ff 10                       	call	qword ptr [rax]
100005b52: 0f 10 45 c0                 	movups	xmm0, xmmword ptr [rbp - 64]
100005b56: 0f 10 4d d0                 	movups	xmm1, xmmword ptr [rbp - 48]
100005b5a: 0f 29 4d f0                 	movaps	xmmword ptr [rbp - 16], xmm1
100005b5e: 0f 29 45 e0                 	movaps	xmmword ptr [rbp - 32], xmm0
100005b62: 48 8d 05 67 74 00 00        	lea	rax, [rip + 29799]      ## 0x10000cfd0 <dyld_stub_binder+0x10000cfd0>
100005b69: 0f 28 45 e0                 	movaps	xmm0, xmmword ptr [rbp - 32]
100005b6d: 0f 28 4d f0                 	movaps	xmm1, xmmword ptr [rbp - 16]
100005b71: 0f 11 4c 24 10              	movups	xmmword ptr [rsp + 16], xmm1
100005b76: 0f 11 04 24                 	movups	xmmword ptr [rsp], xmm0
100005b7a: ff 10                       	call	qword ptr [rax]
100005b7c: f7 d8                       	neg	eax
100005b7e: 19 c0                       	sbb	eax, eax
100005b80: 48 83 c4 60                 	add	rsp, 96
100005b84: 5d                          	pop	rbp
100005b85: c3                          	ret
100005b86: 66 90                       	nop
100005b88: 8d ff                       	<unknown>
100005b8a: ff ff                       	<unknown>
100005b8c: 8d ff                       	<unknown>
100005b8e: ff ff                       	<unknown>
100005b90: 9d                          	popfq
100005b91: ff ff                       	<unknown>
100005b93: ff a6 ff ff ff af           	jmp	qword ptr [rsi - 1342177281]
100005b99: ff ff                       	<unknown>
100005b9b: ff 0f                       	dec	dword ptr [rdi]
100005b9d: 1f                          	<unknown>
100005b9e: 40 00 55 48                 	add	byte ptr [rbp + 72], dl
100005ba2: 89 e5                       	mov	ebp, esp
100005ba4: 41 57                       	push	r15
100005ba6: 41 56                       	push	r14
100005ba8: 41 54                       	push	r12
100005baa: 53                          	push	rbx
100005bab: 48 81 ec a0 08 00 00        	sub	rsp, 2208
100005bb2: 49 89 f7                    	mov	r15, rsi
100005bb5: 49 89 fe                    	mov	r14, rdi
100005bb8: 48 8b 05 49 64 00 00        	mov	rax, qword ptr [rip + 25673] ## 0x10000c008 <dyld_stub_binder+0x10000c008>
100005bbf: 48 8b 00                    	mov	rax, qword ptr [rax]
100005bc2: 48 89 45 d8                 	mov	qword ptr [rbp - 40], rax
100005bc6: 48 8d 9e 32 08 00 00        	lea	rbx, [rsi + 2098]
100005bcd: 48 8d 15 68 43 00 00        	lea	rdx, [rip + 17256]      ## 0x100009f3c <dyld_stub_binder+0x100009f3c>
100005bd4: 4c 8d 0d c5 49 00 00        	lea	r9, [rip + 18885]       ## 0x10000a5a0 <dyld_stub_binder+0x10000a5a0>
100005bdb: 48 8d bd d0 fb ff ff        	lea	rdi, [rbp - 1072]
100005be2: be 00 04 00 00              	mov	esi, 1024
100005be7: 48 89 d9                    	mov	rcx, rbx
100005bea: 41 b8 2f 00 00 00           	mov	r8d, 47
100005bf0: 31 c0                       	xor	eax, eax
100005bf2: e8 23 3c 00 00              	call	0x10000981a <dyld_stub_binder+0x10000981a>
100005bf7: 41 bc ff ff ff ff           	mov	r12d, 4294967295
100005bfd: 3d ff 03 00 00              	cmp	eax, 1023
100005c02: 0f 8f 2d 02 00 00           	jg	0x100005e35 <__text+0x26b5>
100005c08: 48 8d 15 2d 43 00 00        	lea	rdx, [rip + 17197]      ## 0x100009f3c <dyld_stub_binder+0x100009f3c>
100005c0f: 4c 8d 0d 9b 49 00 00        	lea	r9, [rip + 18843]       ## 0x10000a5b1 <dyld_stub_binder+0x10000a5b1>
100005c16: 48 8d bd c0 f7 ff ff        	lea	rdi, [rbp - 2112]
100005c1d: be 00 04 00 00              	mov	esi, 1024
100005c22: 48 89 d9                    	mov	rcx, rbx
100005c25: 41 b8 2f 00 00 00           	mov	r8d, 47
100005c2b: 31 c0                       	xor	eax, eax
100005c2d: e8 e8 3b 00 00              	call	0x10000981a <dyld_stub_binder+0x10000981a>
100005c32: 3d ff 03 00 00              	cmp	eax, 1023
100005c37: 0f 8f f8 01 00 00           	jg	0x100005e35 <__text+0x26b5>
100005c3d: 4c 8d 25 84 72 00 00        	lea	r12, [rip + 29316]      ## 0x10000cec8 <dyld_stub_binder+0x10000cec8>
100005c44: 48 8d bd d0 fb ff ff        	lea	rdi, [rbp - 1072]
100005c4b: 31 f6                       	xor	esi, esi
100005c4d: 41 ff 14 24                 	call	qword ptr [r12]
100005c51: 48 89 85 a0 f7 ff ff        	mov	qword ptr [rbp - 2144], rax
100005c58: 48 8d bd c0 f7 ff ff        	lea	rdi, [rbp - 2112]
100005c5f: 31 f6                       	xor	esi, esi
100005c61: 41 ff 14 24                 	call	qword ptr [r12]
100005c65: 48 89 85 a8 f7 ff ff        	mov	qword ptr [rbp - 2136], rax
100005c6c: 48 89 df                    	mov	rdi, rbx
100005c6f: 31 f6                       	xor	esi, esi
100005c71: 41 ff 14 24                 	call	qword ptr [r12]
100005c75: 48 89 85 b0 f7 ff ff        	mov	qword ptr [rbp - 2128], rax
100005c7c: 49 8b 8f 20 08 00 00        	mov	rcx, qword ptr [r15 + 2080]
100005c83: b8 cc fe ff ff              	mov	eax, 4294966988
100005c88: 03 81 1c 04 00 00           	add	eax, dword ptr [rcx + 1052]
100005c8e: 83 f8 04                    	cmp	eax, 4
100005c91: 77 62                       	ja	0x100005cf5 <__text+0x2575>
100005c93: 48 8d 0d c6 01 00 00        	lea	rcx, [rip + 454]        ## 0x100005e60 <__text+0x26e0>
100005c9a: 48 63 04 81                 	movsxd	rax, dword ptr [rcx + 4*rax]
100005c9e: 48 01 c8                    	add	rax, rcx
100005ca1: ff e0                       	jmp	rax
100005ca3: 48 8d 05 76 72 00 00        	lea	rax, [rip + 29302]      ## 0x10000cf20 <dyld_stub_binder+0x10000cf20>
100005caa: 49 8d 96 00 01 00 00        	lea	rdx, [r14 + 256]
100005cb1: 48 8d bd 60 f7 ff ff        	lea	rdi, [rbp - 2208]
100005cb8: 4c 8d 85 a0 f7 ff ff        	lea	r8, [rbp - 2144]
100005cbf: b9 03 00 00 00              	mov	ecx, 3
100005cc4: 4c 89 f6                    	mov	rsi, r14
100005cc7: ff 10                       	call	qword ptr [rax]
100005cc9: 0f 10 85 60 f7 ff ff        	movups	xmm0, xmmword ptr [rbp - 2208]
100005cd0: 0f 10 8d 70 f7 ff ff        	movups	xmm1, xmmword ptr [rbp - 2192]
100005cd7: 0f 29 8d 90 f7 ff ff        	movaps	xmmword ptr [rbp - 2160], xmm1
100005cde: 0f 29 85 80 f7 ff ff        	movaps	xmmword ptr [rbp - 2176], xmm0
100005ce5: 41 c7 86 f8 00 00 00 01 00 00 00    	mov	dword ptr [r14 + 248], 1
100005cf0: e9 f9 00 00 00              	jmp	0x100005dee <__text+0x266e>
100005cf5: 41 bc ff ff ff ff           	mov	r12d, 4294967295
100005cfb: e9 13 01 00 00              	jmp	0x100005e13 <__text+0x2693>
100005d00: 48 8d 05 19 72 00 00        	lea	rax, [rip + 29209]      ## 0x10000cf20 <dyld_stub_binder+0x10000cf20>
100005d07: 49 8d 96 18 01 00 00        	lea	rdx, [r14 + 280]
100005d0e: 48 8d bd 60 f7 ff ff        	lea	rdi, [rbp - 2208]
100005d15: 4c 8d 85 a0 f7 ff ff        	lea	r8, [rbp - 2144]
100005d1c: b9 03 00 00 00              	mov	ecx, 3
100005d21: 4c 89 f6                    	mov	rsi, r14
100005d24: ff 10                       	call	qword ptr [rax]
100005d26: 0f 10 85 60 f7 ff ff        	movups	xmm0, xmmword ptr [rbp - 2208]
100005d2d: 0f 10 8d 70 f7 ff ff        	movups	xmm1, xmmword ptr [rbp - 2192]
100005d34: 0f 29 8d 90 f7 ff ff        	movaps	xmmword ptr [rbp - 2160], xmm1
100005d3b: 0f 29 85 80 f7 ff ff        	movaps	xmmword ptr [rbp - 2176], xmm0
100005d42: 41 c7 86 10 01 00 00 01 00 00 00    	mov	dword ptr [r14 + 272], 1
100005d4d: e9 9c 00 00 00              	jmp	0x100005dee <__text+0x266e>
100005d52: 48 8d 05 c7 71 00 00        	lea	rax, [rip + 29127]      ## 0x10000cf20 <dyld_stub_binder+0x10000cf20>
100005d59: 49 8d 96 30 01 00 00        	lea	rdx, [r14 + 304]
100005d60: 48 8d bd 60 f7 ff ff        	lea	rdi, [rbp - 2208]
100005d67: 4c 8d 85 a0 f7 ff ff        	lea	r8, [rbp - 2144]
100005d6e: b9 03 00 00 00              	mov	ecx, 3
100005d73: 4c 89 f6                    	mov	rsi, r14
100005d76: ff 10                       	call	qword ptr [rax]
100005d78: 0f 10 85 60 f7 ff ff        	movups	xmm0, xmmword ptr [rbp - 2208]
100005d7f: 0f 10 8d 70 f7 ff ff        	movups	xmm1, xmmword ptr [rbp - 2192]
100005d86: 0f 29 8d 90 f7 ff ff        	movaps	xmmword ptr [rbp - 2160], xmm1
100005d8d: 0f 29 85 80 f7 ff ff        	movaps	xmmword ptr [rbp - 2176], xmm0
100005d94: 41 c7 86 28 01 00 00 01 00 00 00    	mov	dword ptr [r14 + 296], 1
100005d9f: eb 4d                       	jmp	0x100005dee <__text+0x266e>
100005da1: 48 8d 05 78 71 00 00        	lea	rax, [rip + 29048]      ## 0x10000cf20 <dyld_stub_binder+0x10000cf20>
100005da8: 49 8d 96 38 01 00 00        	lea	rdx, [r14 + 312]
100005daf: 48 8d bd 60 f7 ff ff        	lea	rdi, [rbp - 2208]
100005db6: 4c 8d 85 a0 f7 ff ff        	lea	r8, [rbp - 2144]
100005dbd: b9 03 00 00 00              	mov	ecx, 3
100005dc2: 4c 89 f6                    	mov	rsi, r14
100005dc5: ff 10                       	call	qword ptr [rax]
100005dc7: 0f 10 85 60 f7 ff ff        	movups	xmm0, xmmword ptr [rbp - 2208]
100005dce: 0f 10 8d 70 f7 ff ff        	movups	xmm1, xmmword ptr [rbp - 2192]
100005dd5: 0f 29 8d 90 f7 ff ff        	movaps	xmmword ptr [rbp - 2160], xmm1
100005ddc: 0f 29 85 80 f7 ff ff        	movaps	xmmword ptr [rbp - 2176], xmm0
100005de3: 41 c7 86 30 01 00 00 01 00 00 00    	mov	dword ptr [r14 + 304], 1
100005dee: 48 8d 05 db 71 00 00        	lea	rax, [rip + 29147]      ## 0x10000cfd0 <dyld_stub_binder+0x10000cfd0>
100005df5: 0f 28 85 80 f7 ff ff        	movaps	xmm0, xmmword ptr [rbp - 2176]
100005dfc: 0f 28 8d 90 f7 ff ff        	movaps	xmm1, xmmword ptr [rbp - 2160]
100005e03: 0f 11 4c 24 10              	movups	xmmword ptr [rsp + 16], xmm1
100005e08: 0f 11 04 24                 	movups	xmmword ptr [rsp], xmm0
100005e0c: ff 10                       	call	qword ptr [rax]
100005e0e: f7 d8                       	neg	eax
100005e10: 45 19 e4                    	sbb	r12d, r12d
100005e13: 48 8d 1d 6e 71 00 00        	lea	rbx, [rip + 29038]      ## 0x10000cf88 <dyld_stub_binder+0x10000cf88>
100005e1a: 48 8b bd a0 f7 ff ff        	mov	rdi, qword ptr [rbp - 2144]
100005e21: ff 13                       	call	qword ptr [rbx]
100005e23: 48 8b bd a8 f7 ff ff        	mov	rdi, qword ptr [rbp - 2136]
100005e2a: ff 13                       	call	qword ptr [rbx]
100005e2c: 48 8b bd b0 f7 ff ff        	mov	rdi, qword ptr [rbp - 2128]
100005e33: ff 13                       	call	qword ptr [rbx]
100005e35: 48 8b 05 cc 61 00 00        	mov	rax, qword ptr [rip + 25036] ## 0x10000c008 <dyld_stub_binder+0x10000c008>
100005e3c: 48 8b 00                    	mov	rax, qword ptr [rax]
100005e3f: 48 3b 45 d8                 	cmp	rax, qword ptr [rbp - 40]
100005e43: 75 13                       	jne	0x100005e58 <__text+0x26d8>
100005e45: 44 89 e0                    	mov	eax, r12d
100005e48: 48 81 c4 a0 08 00 00        	add	rsp, 2208
100005e4f: 5b                          	pop	rbx
100005e50: 41 5c                       	pop	r12
100005e52: 41 5e                       	pop	r14
100005e54: 41 5f                       	pop	r15
100005e56: 5d                          	pop	rbp
100005e57: c3                          	ret
100005e58: e8 a3 38 00 00              	call	0x100009700 <dyld_stub_binder+0x100009700>
100005e5d: 0f 1f 00                    	nop	dword ptr [rax]
100005e60: 43 fe ff                    	<unknown>
100005e63: ff 43 fe                    	inc	dword ptr [rbx - 2]
100005e66: ff ff                       	<unknown>
100005e68: a0 fe ff ff f2 fe ff ff 41  	movabs	al, byte ptr [4755801201990172670]
100005e71: ff ff                       	<unknown>
100005e73: ff 66 2e                    	jmp	qword ptr [rsi + 46]
100005e76: 0f 1f 84 00 00 00 00 00     	nop	dword ptr [rax + rax]
100005e7e: 66 90                       	nop
100005e80: 55                          	push	rbp
100005e81: 48 89 e5                    	mov	rbp, rsp
100005e84: 41 57                       	push	r15
100005e86: 41 56                       	push	r14
100005e88: 41 55                       	push	r13
100005e8a: 41 54                       	push	r12
100005e8c: 53                          	push	rbx
100005e8d: 48 81 ec 88 00 00 00        	sub	rsp, 136
100005e94: 49 89 f5                    	mov	r13, rsi
100005e97: 49 89 ff                    	mov	r15, rdi
100005e9a: 4c 8b 76 18                 	mov	r14, qword ptr [rsi + 24]
100005e9e: 4d 85 f6                    	test	r14, r14
100005ea1: 74 06                       	je	0x100005ea9 <__text+0x2729>
100005ea3: 49 8d 45 10                 	lea	rax, [r13 + 16]
100005ea7: eb 07                       	jmp	0x100005eb0 <__text+0x2730>
100005ea9: 4d 8b 75 08                 	mov	r14, qword ptr [r13 + 8]
100005ead: 4c 89 e8                    	mov	rax, r13
100005eb0: 4c 63 20                    	movsxd	r12, dword ptr [rax]
100005eb3: be 08 00 00 00              	mov	esi, 8
100005eb8: 4c 89 e7                    	mov	rdi, r12
100005ebb: e8 4c 38 00 00              	call	0x10000970c <dyld_stub_binder+0x10000970c>
100005ec0: 48 85 c0                    	test	rax, rax
100005ec3: 0f 84 8d 00 00 00           	je	0x100005f56 <__text+0x27d6>
100005ec9: 48 89 c3                    	mov	rbx, rax
100005ecc: 4c 89 ad 78 ff ff ff        	mov	qword ptr [rbp - 136], r13
100005ed3: 4c 89 7d c0                 	mov	qword ptr [rbp - 64], r15
100005ed7: 4c 89 65 c8                 	mov	qword ptr [rbp - 56], r12
100005edb: 44 89 e0                    	mov	eax, r12d
100005ede: 48 89 45 d0                 	mov	qword ptr [rbp - 48], rax
100005ee2: 85 c0                       	test	eax, eax
100005ee4: 7e 31                       	jle	0x100005f17 <__text+0x2797>
100005ee6: 44 8b 7d c8                 	mov	r15d, dword ptr [rbp - 56]
100005eea: 45 31 e4                    	xor	r12d, r12d
100005eed: 4c 8d 2d d4 6f 00 00        	lea	r13, [rip + 28628]      ## 0x10000cec8 <dyld_stub_binder+0x10000cec8>
100005ef4: 66 2e 0f 1f 84 00 00 00 00 00       	nop	word ptr cs:[rax + rax]
100005efe: 66 90                       	nop
100005f00: 4b 8b 3c e6                 	mov	rdi, qword ptr [r14 + 8*r12]
100005f04: 31 f6                       	xor	esi, esi
100005f06: 41 ff 55 00                 	call	qword ptr [r13]
100005f0a: 4a 89 04 e3                 	mov	qword ptr [rbx + 8*r12], rax
100005f0e: 49 83 c4 01                 	add	r12, 1
100005f12: 4d 39 e7                    	cmp	r15, r12
100005f15: 75 e9                       	jne	0x100005f00 <__text+0x2780>
100005f17: 48 8b 85 78 ff ff ff        	mov	rax, qword ptr [rbp - 136]
100005f1e: 48 8b 88 20 08 00 00        	mov	rcx, qword ptr [rax + 2080]
100005f25: b8 cc fe ff ff              	mov	eax, 4294966988
100005f2a: 03 81 1c 04 00 00           	add	eax, dword ptr [rcx + 1052]
100005f30: 83 f8 04                    	cmp	eax, 4
100005f33: 77 2c                       	ja	0x100005f61 <__text+0x27e1>
100005f35: 48 8d 0d f4 00 00 00        	lea	rcx, [rip + 244]        ## 0x100006030 <__text+0x28b0>
100005f3c: 48 63 04 81                 	movsxd	rax, dword ptr [rcx + 4*rax]
100005f40: 48 01 c8                    	add	rax, rcx
100005f43: ff e0                       	jmp	rax
100005f45: 48 8d 05 d4 6f 00 00        	lea	rax, [rip + 28628]      ## 0x10000cf20 <dyld_stub_binder+0x10000cf20>
100005f4c: 48 8b 75 c0                 	mov	rsi, qword ptr [rbp - 64]
100005f50: 48 8d 56 60                 	lea	rdx, [rsi + 96]
100005f54: eb 4a                       	jmp	0x100005fa0 <__text+0x2820>
100005f56: 41 be ff ff ff ff           	mov	r14d, 4294967295
100005f5c: e9 b7 00 00 00              	jmp	0x100006018 <__text+0x2898>
100005f61: 49 89 dc                    	mov	r12, rbx
100005f64: 41 be ff ff ff ff           	mov	r14d, 4294967295
100005f6a: eb 73                       	jmp	0x100005fdf <__text+0x285f>
100005f6c: 48 8d 05 ad 6f 00 00        	lea	rax, [rip + 28589]      ## 0x10000cf20 <dyld_stub_binder+0x10000cf20>
100005f73: 48 8b 75 c0                 	mov	rsi, qword ptr [rbp - 64]
100005f77: 48 8d 56 68                 	lea	rdx, [rsi + 104]
100005f7b: eb 23                       	jmp	0x100005fa0 <__text+0x2820>
100005f7d: 48 8d 05 9c 6f 00 00        	lea	rax, [rip + 28572]      ## 0x10000cf20 <dyld_stub_binder+0x10000cf20>
100005f84: 48 8b 75 c0                 	mov	rsi, qword ptr [rbp - 64]
100005f88: 48 8d 56 78                 	lea	rdx, [rsi + 120]
100005f8c: eb 12                       	jmp	0x100005fa0 <__text+0x2820>
100005f8e: 48 8d 05 8b 6f 00 00        	lea	rax, [rip + 28555]      ## 0x10000cf20 <dyld_stub_binder+0x10000cf20>
100005f95: 48 8b 75 c0                 	mov	rsi, qword ptr [rbp - 64]
100005f99: 48 8d 96 80 00 00 00        	lea	rdx, [rsi + 128]
100005fa0: 48 8d 7d 80                 	lea	rdi, [rbp - 128]
100005fa4: 48 8b 4d c8                 	mov	rcx, qword ptr [rbp - 56]
100005fa8: 49 89 dc                    	mov	r12, rbx
100005fab: 49 89 d8                    	mov	r8, rbx
100005fae: ff 10                       	call	qword ptr [rax]
100005fb0: 0f 10 45 80                 	movups	xmm0, xmmword ptr [rbp - 128]
100005fb4: 0f 10 4d 90                 	movups	xmm1, xmmword ptr [rbp - 112]
100005fb8: 0f 29 4d b0                 	movaps	xmmword ptr [rbp - 80], xmm1
100005fbc: 0f 29 45 a0                 	movaps	xmmword ptr [rbp - 96], xmm0
100005fc0: 48 8d 05 09 70 00 00        	lea	rax, [rip + 28681]      ## 0x10000cfd0 <dyld_stub_binder+0x10000cfd0>
100005fc7: 0f 28 45 a0                 	movaps	xmm0, xmmword ptr [rbp - 96]
100005fcb: 0f 28 4d b0                 	movaps	xmm1, xmmword ptr [rbp - 80]
100005fcf: 0f 11 4c 24 10              	movups	xmmword ptr [rsp + 16], xmm1
100005fd4: 0f 11 04 24                 	movups	xmmword ptr [rsp], xmm0
100005fd8: ff 10                       	call	qword ptr [rax]
100005fda: f7 d8                       	neg	eax
100005fdc: 45 19 f6                    	sbb	r14d, r14d
100005fdf: 4c 8b 6d d0                 	mov	r13, qword ptr [rbp - 48]
100005fe3: 45 85 ed                    	test	r13d, r13d
100005fe6: 7e 28                       	jle	0x100006010 <__text+0x2890>
100005fe8: 31 db                       	xor	ebx, ebx
100005fea: 4c 8d 3d 97 6f 00 00        	lea	r15, [rip + 28567]      ## 0x10000cf88 <dyld_stub_binder+0x10000cf88>
100005ff1: 66 2e 0f 1f 84 00 00 00 00 00       	nop	word ptr cs:[rax + rax]
100005ffb: 0f 1f 44 00 00              	nop	dword ptr [rax + rax]
100006000: 49 8b 3c dc                 	mov	rdi, qword ptr [r12 + 8*rbx]
100006004: 41 ff 17                    	call	qword ptr [r15]
100006007: 48 83 c3 01                 	add	rbx, 1
10000600b: 49 39 dd                    	cmp	r13, rbx
10000600e: 75 f0                       	jne	0x100006000 <__text+0x2880>
100006010: 4c 89 e7                    	mov	rdi, r12
100006013: e8 66 37 00 00              	call	0x10000977e <dyld_stub_binder+0x10000977e>
100006018: 44 89 f0                    	mov	eax, r14d
10000601b: 48 81 c4 88 00 00 00        	add	rsp, 136
100006022: 5b                          	pop	rbx
100006023: 41 5c                       	pop	r12
100006025: 41 5d                       	pop	r13
100006027: 41 5e                       	pop	r14
100006029: 41 5f                       	pop	r15
10000602b: 5d                          	pop	rbp
10000602c: c3                          	ret
10000602d: 0f 1f 00                    	nop	dword ptr [rax]
100006030: 15 ff ff ff 15              	adc	eax, 369098751
100006035: ff ff                       	<unknown>
100006037: ff 3c ff                    	<unknown>
10000603a: ff ff                       	<unknown>
10000603c: 4d ff ff                    	<unknown>
10000603f: ff 5e ff                    	call	[rsi - 1]
100006042: ff ff                       	<unknown>
100006044: 66 2e 0f 1f 84 00 00 00 00 00       	nop	word ptr cs:[rax + rax]
10000604e: 66 90                       	nop
100006050: 55                          	push	rbp
100006051: 48 89 e5                    	mov	rbp, rsp
100006054: 41 56                       	push	r14
100006056: 53                          	push	rbx
100006057: 48 83 ec 60                 	sub	rsp, 96
10000605b: 81 c6 cc fe ff ff           	add	esi, 4294966988
100006061: 83 fe 04                    	cmp	esi, 4
100006064: 77 5c                       	ja	0x1000060c2 <__text+0x2942>
100006066: 48 89 d3                    	mov	rbx, rdx
100006069: 49 89 fe                    	mov	r14, rdi
10000606c: 48 8d 05 25 03 00 00        	lea	rax, [rip + 805]        ## 0x100006398 <__text+0x2c18>
100006073: 48 63 0c b0                 	movsxd	rcx, dword ptr [rax + 4*rsi]
100006077: 48 01 c1                    	add	rcx, rax
10000607a: ff e1                       	jmp	rcx
10000607c: 41 c7 86 98 00 00 00 00 00 00 00    	mov	dword ptr [r14 + 152], 0
100006087: 41 c7 86 b0 00 00 00 00 00 00 00    	mov	dword ptr [r14 + 176], 0
100006092: 41 c7 86 c0 00 00 00 01 00 00 00    	mov	dword ptr [r14 + 192], 1
10000609d: 8b 43 08                    	mov	eax, dword ptr [rbx + 8]
1000060a0: 41 89 86 a8 00 00 00        	mov	dword ptr [r14 + 168], eax
1000060a7: 31 c0                       	xor	eax, eax
1000060a9: 83 7b 04 00                 	cmp	dword ptr [rbx + 4], 0
1000060ad: 0f 94 c0                    	sete	al
1000060b0: 41 89 86 c4 00 00 00        	mov	dword ptr [r14 + 196], eax
1000060b7: 8b 03                       	mov	eax, dword ptr [rbx]
1000060b9: 41 89 86 b4 00 00 00        	mov	dword ptr [r14 + 180], eax
1000060c0: eb 4e                       	jmp	0x100006110 <__text+0x2990>
1000060c2: b8 ff ff ff ff              	mov	eax, 4294967295
1000060c7: e9 c1 02 00 00              	jmp	0x10000638d <__text+0x2c0d>
1000060cc: 41 c7 86 98 00 00 00 00 00 00 00    	mov	dword ptr [r14 + 152], 0
1000060d7: 41 c7 86 b4 00 00 00 00 00 00 00    	mov	dword ptr [r14 + 180], 0
1000060e2: 41 c7 86 c4 00 00 00 01 00 00 00    	mov	dword ptr [r14 + 196], 1
1000060ed: 8b 43 08                    	mov	eax, dword ptr [rbx + 8]
1000060f0: 41 89 86 ac 00 00 00        	mov	dword ptr [r14 + 172], eax
1000060f7: 31 c0                       	xor	eax, eax
1000060f9: 83 7b 04 00                 	cmp	dword ptr [rbx + 4], 0
1000060fd: 0f 94 c0                    	sete	al
100006100: 41 89 86 c8 00 00 00        	mov	dword ptr [r14 + 200], eax
100006107: 8b 03                       	mov	eax, dword ptr [rbx]
100006109: 41 89 86 b8 00 00 00        	mov	dword ptr [r14 + 184], eax
100006110: 8b 43 0c                    	mov	eax, dword ptr [rbx + 12]
100006113: 41 89 46 14                 	mov	dword ptr [r14 + 20], eax
100006117: 48 8b 43 10                 	mov	rax, qword ptr [rbx + 16]
10000611b: 49 89 46 18                 	mov	qword ptr [r14 + 24], rax
10000611f: 8b 43 1c                    	mov	eax, dword ptr [rbx + 28]
100006122: 41 89 46 0c                 	mov	dword ptr [r14 + 12], eax
100006126: 48 63 4b 20                 	movsxd	rcx, dword ptr [rbx + 32]
10000612a: 48 85 c9                    	test	rcx, rcx
10000612d: 74 54                       	je	0x100006183 <__text+0x2a03>
10000612f: 48 8d 05 ea 6d 00 00        	lea	rax, [rip + 28138]      ## 0x10000cf20 <dyld_stub_binder+0x10000cf20>
100006136: 49 8d 96 88 00 00 00        	lea	rdx, [r14 + 136]
10000613d: 4c 8b 43 28                 	mov	r8, qword ptr [rbx + 40]
100006141: 48 8d 7d b0                 	lea	rdi, [rbp - 80]
100006145: 4c 89 f6                    	mov	rsi, r14
100006148: ff 10                       	call	qword ptr [rax]
10000614a: 0f 10 45 b0                 	movups	xmm0, xmmword ptr [rbp - 80]
10000614e: 0f 10 4d c0                 	movups	xmm1, xmmword ptr [rbp - 64]
100006152: 0f 29 4d e0                 	movaps	xmmword ptr [rbp - 32], xmm1
100006156: 0f 29 45 d0                 	movaps	xmmword ptr [rbp - 48], xmm0
10000615a: 48 8d 05 6f 6e 00 00        	lea	rax, [rip + 28271]      ## 0x10000cfd0 <dyld_stub_binder+0x10000cfd0>
100006161: 0f 28 45 d0                 	movaps	xmm0, xmmword ptr [rbp - 48]
100006165: 0f 28 4d e0                 	movaps	xmm1, xmmword ptr [rbp - 32]
100006169: 0f 11 4c 24 10              	movups	xmmword ptr [rsp + 16], xmm1
10000616e: 0f 11 04 24                 	movups	xmmword ptr [rsp], xmm0
100006172: ff 10                       	call	qword ptr [rax]
100006174: 89 c1                       	mov	ecx, eax
100006176: b8 ff ff ff ff              	mov	eax, 4294967295
10000617b: 85 c9                       	test	ecx, ecx
10000617d: 0f 85 0a 02 00 00           	jne	0x10000638d <__text+0x2c0d>
100006183: 48 63 4b 30                 	movsxd	rcx, dword ptr [rbx + 48]
100006187: 48 85 c9                    	test	rcx, rcx
10000618a: 0f 84 f3 01 00 00           	je	0x100006383 <__text+0x2c03>
100006190: 48 8d 05 89 6d 00 00        	lea	rax, [rip + 28041]      ## 0x10000cf20 <dyld_stub_binder+0x10000cf20>
100006197: 49 8d 56 78                 	lea	rdx, [r14 + 120]
10000619b: e9 a1 01 00 00              	jmp	0x100006341 <__text+0x2bc1>
1000061a0: 41 c7 86 a8 00 00 00 00 00 00 00    	mov	dword ptr [r14 + 168], 0
1000061ab: 41 c7 86 c4 00 00 00 00 00 00 00    	mov	dword ptr [r14 + 196], 0
1000061b6: 41 c7 86 d4 00 00 00 01 00 00 00    	mov	dword ptr [r14 + 212], 1
1000061c1: 8b 43 08                    	mov	eax, dword ptr [rbx + 8]
1000061c4: 41 89 86 bc 00 00 00        	mov	dword ptr [r14 + 188], eax
1000061cb: 31 c0                       	xor	eax, eax
1000061cd: 83 7b 04 00                 	cmp	dword ptr [rbx + 4], 0
1000061d1: 0f 94 c0                    	sete	al
1000061d4: 41 89 86 d8 00 00 00        	mov	dword ptr [r14 + 216], eax
1000061db: 8b 03                       	mov	eax, dword ptr [rbx]
1000061dd: 41 89 86 c8 00 00 00        	mov	dword ptr [r14 + 200], eax
1000061e4: 8b 43 0c                    	mov	eax, dword ptr [rbx + 12]
1000061e7: 41 89 46 14                 	mov	dword ptr [r14 + 20], eax
1000061eb: 48 8b 43 10                 	mov	rax, qword ptr [rbx + 16]
1000061ef: 49 89 46 18                 	mov	qword ptr [r14 + 24], rax
1000061f3: 8b 43 1c                    	mov	eax, dword ptr [rbx + 28]
1000061f6: 41 89 46 0c                 	mov	dword ptr [r14 + 12], eax
1000061fa: 48 63 4b 20                 	movsxd	rcx, dword ptr [rbx + 32]
1000061fe: 48 85 c9                    	test	rcx, rcx
100006201: 74 54                       	je	0x100006257 <__text+0x2ad7>
100006203: 48 8d 05 16 6d 00 00        	lea	rax, [rip + 27926]      ## 0x10000cf20 <dyld_stub_binder+0x10000cf20>
10000620a: 49 8d 96 98 00 00 00        	lea	rdx, [r14 + 152]
100006211: 4c 8b 43 28                 	mov	r8, qword ptr [rbx + 40]
100006215: 48 8d 7d b0                 	lea	rdi, [rbp - 80]
100006219: 4c 89 f6                    	mov	rsi, r14
10000621c: ff 10                       	call	qword ptr [rax]
10000621e: 0f 10 45 b0                 	movups	xmm0, xmmword ptr [rbp - 80]
100006222: 0f 10 4d c0                 	movups	xmm1, xmmword ptr [rbp - 64]
100006226: 0f 29 4d e0                 	movaps	xmmword ptr [rbp - 32], xmm1
10000622a: 0f 29 45 d0                 	movaps	xmmword ptr [rbp - 48], xmm0
10000622e: 48 8d 05 9b 6d 00 00        	lea	rax, [rip + 28059]      ## 0x10000cfd0 <dyld_stub_binder+0x10000cfd0>
100006235: 0f 28 45 d0                 	movaps	xmm0, xmmword ptr [rbp - 48]
100006239: 0f 28 4d e0                 	movaps	xmm1, xmmword ptr [rbp - 32]
10000623d: 0f 11 4c 24 10              	movups	xmmword ptr [rsp + 16], xmm1
100006242: 0f 11 04 24                 	movups	xmmword ptr [rsp], xmm0
100006246: ff 10                       	call	qword ptr [rax]
100006248: 89 c1                       	mov	ecx, eax
10000624a: b8 ff ff ff ff              	mov	eax, 4294967295
10000624f: 85 c9                       	test	ecx, ecx
100006251: 0f 85 36 01 00 00           	jne	0x10000638d <__text+0x2c0d>
100006257: 48 63 4b 30                 	movsxd	rcx, dword ptr [rbx + 48]
10000625b: 48 85 c9                    	test	rcx, rcx
10000625e: 0f 84 1f 01 00 00           	je	0x100006383 <__text+0x2c03>
100006264: 48 8d 05 b5 6c 00 00        	lea	rax, [rip + 27829]      ## 0x10000cf20 <dyld_stub_binder+0x10000cf20>
10000626b: 49 8d 96 88 00 00 00        	lea	rdx, [r14 + 136]
100006272: e9 ca 00 00 00              	jmp	0x100006341 <__text+0x2bc1>
100006277: 41 c7 86 b0 00 00 00 00 00 00 00    	mov	dword ptr [r14 + 176], 0
100006282: 41 c7 86 cc 00 00 00 00 00 00 00    	mov	dword ptr [r14 + 204], 0
10000628d: 41 c7 86 dc 00 00 00 01 00 00 00    	mov	dword ptr [r14 + 220], 1
100006298: 8b 43 08                    	mov	eax, dword ptr [rbx + 8]
10000629b: 41 89 86 c4 00 00 00        	mov	dword ptr [r14 + 196], eax
1000062a2: 31 c0                       	xor	eax, eax
1000062a4: 83 7b 04 00                 	cmp	dword ptr [rbx + 4], 0
1000062a8: 0f 94 c0                    	sete	al
1000062ab: 41 89 86 e0 00 00 00        	mov	dword ptr [r14 + 224], eax
1000062b2: 8b 03                       	mov	eax, dword ptr [rbx]
1000062b4: 41 89 86 d0 00 00 00        	mov	dword ptr [r14 + 208], eax
1000062bb: 8b 43 0c                    	mov	eax, dword ptr [rbx + 12]
1000062be: 41 89 46 14                 	mov	dword ptr [r14 + 20], eax
1000062c2: 48 8b 43 10                 	mov	rax, qword ptr [rbx + 16]
1000062c6: 49 89 46 18                 	mov	qword ptr [r14 + 24], rax
1000062ca: 8b 43 1c                    	mov	eax, dword ptr [rbx + 28]
1000062cd: 41 89 46 0c                 	mov	dword ptr [r14 + 12], eax
1000062d1: 48 63 4b 20                 	movsxd	rcx, dword ptr [rbx + 32]
1000062d5: 48 85 c9                    	test	rcx, rcx
1000062d8: 74 50                       	je	0x10000632a <__text+0x2baa>
1000062da: 48 8d 05 3f 6c 00 00        	lea	rax, [rip + 27711]      ## 0x10000cf20 <dyld_stub_binder+0x10000cf20>
1000062e1: 49 8d 96 a0 00 00 00        	lea	rdx, [r14 + 160]
1000062e8: 4c 8b 43 28                 	mov	r8, qword ptr [rbx + 40]
1000062ec: 48 8d 7d b0                 	lea	rdi, [rbp - 80]
1000062f0: 4c 89 f6                    	mov	rsi, r14
1000062f3: ff 10                       	call	qword ptr [rax]
1000062f5: 0f 10 45 b0                 	movups	xmm0, xmmword ptr [rbp - 80]
1000062f9: 0f 10 4d c0                 	movups	xmm1, xmmword ptr [rbp - 64]
1000062fd: 0f 29 4d e0                 	movaps	xmmword ptr [rbp - 32], xmm1
100006301: 0f 29 45 d0                 	movaps	xmmword ptr [rbp - 48], xmm0
100006305: 48 8d 05 c4 6c 00 00        	lea	rax, [rip + 27844]      ## 0x10000cfd0 <dyld_stub_binder+0x10000cfd0>
10000630c: 0f 28 45 d0                 	movaps	xmm0, xmmword ptr [rbp - 48]
100006310: 0f 28 4d e0                 	movaps	xmm1, xmmword ptr [rbp - 32]
100006314: 0f 11 4c 24 10              	movups	xmmword ptr [rsp + 16], xmm1
100006319: 0f 11 04 24                 	movups	xmmword ptr [rsp], xmm0
10000631d: ff 10                       	call	qword ptr [rax]
10000631f: 89 c1                       	mov	ecx, eax
100006321: b8 ff ff ff ff              	mov	eax, 4294967295
100006326: 85 c9                       	test	ecx, ecx
100006328: 75 63                       	jne	0x10000638d <__text+0x2c0d>
10000632a: 48 63 4b 30                 	movsxd	rcx, dword ptr [rbx + 48]
10000632e: 48 85 c9                    	test	rcx, rcx
100006331: 74 50                       	je	0x100006383 <__text+0x2c03>
100006333: 48 8d 05 e6 6b 00 00        	lea	rax, [rip + 27622]      ## 0x10000cf20 <dyld_stub_binder+0x10000cf20>
10000633a: 49 8d 96 90 00 00 00        	lea	rdx, [r14 + 144]
100006341: 4c 8b 43 38                 	mov	r8, qword ptr [rbx + 56]
100006345: 48 8d 7d b0                 	lea	rdi, [rbp - 80]
100006349: 4c 89 f6                    	mov	rsi, r14
10000634c: ff 10                       	call	qword ptr [rax]
10000634e: 0f 10 45 b0                 	movups	xmm0, xmmword ptr [rbp - 80]
100006352: 0f 10 4d c0                 	movups	xmm1, xmmword ptr [rbp - 64]
100006356: 0f 29 4d e0                 	movaps	xmmword ptr [rbp - 32], xmm1
10000635a: 0f 29 45 d0                 	movaps	xmmword ptr [rbp - 48], xmm0
10000635e: 48 8d 05 6b 6c 00 00        	lea	rax, [rip + 27755]      ## 0x10000cfd0 <dyld_stub_binder+0x10000cfd0>
100006365: 0f 28 45 d0                 	movaps	xmm0, xmmword ptr [rbp - 48]
100006369: 0f 28 4d e0                 	movaps	xmm1, xmmword ptr [rbp - 32]
10000636d: 0f 11 4c 24 10              	movups	xmmword ptr [rsp + 16], xmm1
100006372: 0f 11 04 24                 	movups	xmmword ptr [rsp], xmm0
100006376: ff 10                       	call	qword ptr [rax]
100006378: 89 c1                       	mov	ecx, eax
10000637a: b8 ff ff ff ff              	mov	eax, 4294967295
10000637f: 85 c9                       	test	ecx, ecx
100006381: 75 0a                       	jne	0x10000638d <__text+0x2c0d>
100006383: 41 c7 46 10 01 00 00 00     	mov	dword ptr [r14 + 16], 1
10000638b: 31 c0                       	xor	eax, eax
10000638d: 48 83 c4 60                 	add	rsp, 96
100006391: 5b                          	pop	rbx
100006392: 41 5e                       	pop	r14
100006394: 5d                          	pop	rbp
100006395: c3                          	ret
100006396: 66 90                       	nop
100006398: e4 fc                       	in	al, 252
10000639a: ff ff                       	<unknown>
10000639c: e4 fc                       	in	al, 252
10000639e: ff ff                       	<unknown>
1000063a0: 34 fd                       	xor	al, -3
1000063a2: ff ff                       	<unknown>
1000063a4: 08 fe                       	or	dh, bh
1000063a6: ff ff                       	<unknown>
1000063a8: df fe                       	<unknown>
1000063aa: ff ff                       	<unknown>
1000063ac: 0f 1f 40 00                 	nop	dword ptr [rax]
1000063b0: 55                          	push	rbp
1000063b1: 48 89 e5                    	mov	rbp, rsp
1000063b4: 41 56                       	push	r14
1000063b6: 53                          	push	rbx
1000063b7: 48 83 ec 70                 	sub	rsp, 112
1000063bb: 48 89 fb                    	mov	rbx, rdi
1000063be: 48 8d 05 fb 6b 00 00        	lea	rax, [rip + 27643]      ## 0x10000cfc0 <dyld_stub_binder+0x10000cfc0>
1000063c5: 4c 8d 75 c8                 	lea	r14, [rbp - 56]
1000063c9: 4c 89 f7                    	mov	rdi, r14
1000063cc: ff 10                       	call	qword ptr [rax]
1000063ce: 8b 43 18                    	mov	eax, dword ptr [rbx + 24]
1000063d1: 89 45 e4                    	mov	dword ptr [rbp - 28], eax
1000063d4: 8b 43 1c                    	mov	eax, dword ptr [rbx + 28]
1000063d7: 89 45 e8                    	mov	dword ptr [rbp - 24], eax
1000063da: c7 45 d8 01 00 00 00        	mov	dword ptr [rbp - 40], 1
1000063e1: 48 8d 05 08 6b 00 00        	lea	rax, [rip + 27400]      ## 0x10000cef0 <dyld_stub_binder+0x10000cef0>
1000063e8: 48 8d 7d a8                 	lea	rdi, [rbp - 88]
1000063ec: 4c 89 f6                    	mov	rsi, r14
1000063ef: ff 10                       	call	qword ptr [rax]
1000063f1: 48 8d 05 d8 6b 00 00        	lea	rax, [rip + 27608]      ## 0x10000cfd0 <dyld_stub_binder+0x10000cfd0>
1000063f8: 0f 10 45 a8                 	movups	xmm0, xmmword ptr [rbp - 88]
1000063fc: 0f 10 4d b8                 	movups	xmm1, xmmword ptr [rbp - 72]
100006400: 0f 11 4c 24 10              	movups	xmmword ptr [rsp + 16], xmm1
100006405: 0f 11 04 24                 	movups	xmmword ptr [rsp], xmm0
100006409: ff 10                       	call	qword ptr [rax]
10000640b: f7 d8                       	neg	eax
10000640d: 19 c0                       	sbb	eax, eax
10000640f: 48 83 c4 70                 	add	rsp, 112
100006413: 5b                          	pop	rbx
100006414: 41 5e                       	pop	r14
100006416: 5d                          	pop	rbp
100006417: c3                          	ret
100006418: 90                          	nop
100006419: 90                          	nop
10000641a: 90                          	nop
10000641b: 90                          	nop
10000641c: 90                          	nop
10000641d: 90                          	nop
10000641e: 90                          	nop
10000641f: 90                          	nop
100006420: 55                          	push	rbp
100006421: 48 89 e5                    	mov	rbp, rsp
100006424: 53                          	push	rbx
100006425: 50                          	push	rax
100006426: 48 89 fb                    	mov	rbx, rdi
100006429: 48 8d 35 8d 41 00 00        	lea	rsi, [rip + 16781]      ## 0x10000a5bd <dyld_stub_binder+0x10000a5bd>
100006430: e8 01 33 00 00              	call	0x100009736 <dyld_stub_binder+0x100009736>
100006435: 48 89 05 84 6a 00 00        	mov	qword ptr [rip + 27268], rax ## 0x10000cec0 <dyld_stub_binder+0x10000cec0>
10000643c: 48 85 c0                    	test	rax, rax
10000643f: 0f 84 46 05 00 00           	je	0x10000698b <__text+0x320b>
100006445: 48 8d 35 97 41 00 00        	lea	rsi, [rip + 16791]      ## 0x10000a5e3 <dyld_stub_binder+0x10000a5e3>
10000644c: 48 89 df                    	mov	rdi, rbx
10000644f: e8 e2 32 00 00              	call	0x100009736 <dyld_stub_binder+0x100009736>
100006454: 48 89 05 6d 6a 00 00        	mov	qword ptr [rip + 27245], rax ## 0x10000cec8 <dyld_stub_binder+0x10000cec8>
10000645b: 48 85 c0                    	test	rax, rax
10000645e: 0f 84 33 05 00 00           	je	0x100006997 <__text+0x3217>
100006464: 48 8d 35 aa 41 00 00        	lea	rsi, [rip + 16810]      ## 0x10000a615 <dyld_stub_binder+0x10000a615>
10000646b: 48 89 df                    	mov	rdi, rbx
10000646e: e8 c3 32 00 00              	call	0x100009736 <dyld_stub_binder+0x100009736>
100006473: 48 89 05 56 6a 00 00        	mov	qword ptr [rip + 27222], rax ## 0x10000ced0 <dyld_stub_binder+0x10000ced0>
10000647a: 48 85 c0                    	test	rax, rax
10000647d: 0f 84 20 05 00 00           	je	0x1000069a3 <__text+0x3223>
100006483: 48 8d 35 cb 41 00 00        	lea	rsi, [rip + 16843]      ## 0x10000a655 <dyld_stub_binder+0x10000a655>
10000648a: 48 89 df                    	mov	rdi, rbx
10000648d: e8 a4 32 00 00              	call	0x100009736 <dyld_stub_binder+0x100009736>
100006492: 48 89 05 3f 6a 00 00        	mov	qword ptr [rip + 27199], rax ## 0x10000ced8 <dyld_stub_binder+0x10000ced8>
100006499: 48 85 c0                    	test	rax, rax
10000649c: 0f 84 0d 05 00 00           	je	0x1000069af <__text+0x322f>
1000064a2: 48 8d 35 d6 41 00 00        	lea	rsi, [rip + 16854]      ## 0x10000a67f <dyld_stub_binder+0x10000a67f>
1000064a9: 48 89 df                    	mov	rdi, rbx
1000064ac: e8 85 32 00 00              	call	0x100009736 <dyld_stub_binder+0x100009736>
1000064b1: 48 89 05 28 6a 00 00        	mov	qword ptr [rip + 27176], rax ## 0x10000cee0 <dyld_stub_binder+0x10000cee0>
1000064b8: 48 85 c0                    	test	rax, rax
1000064bb: 0f 84 fa 04 00 00           	je	0x1000069bb <__text+0x323b>
1000064c1: 48 8d 35 f9 41 00 00        	lea	rsi, [rip + 16889]      ## 0x10000a6c1 <dyld_stub_binder+0x10000a6c1>
1000064c8: 48 89 df                    	mov	rdi, rbx
1000064cb: e8 66 32 00 00              	call	0x100009736 <dyld_stub_binder+0x100009736>
1000064d0: 48 89 05 11 6a 00 00        	mov	qword ptr [rip + 27153], rax ## 0x10000cee8 <dyld_stub_binder+0x10000cee8>
1000064d7: 48 85 c0                    	test	rax, rax
1000064da: 0f 84 e7 04 00 00           	je	0x1000069c7 <__text+0x3247>
1000064e0: 48 8d 35 0e 42 00 00        	lea	rsi, [rip + 16910]      ## 0x10000a6f5 <dyld_stub_binder+0x10000a6f5>
1000064e7: 48 89 df                    	mov	rdi, rbx
1000064ea: e8 47 32 00 00              	call	0x100009736 <dyld_stub_binder+0x100009736>
1000064ef: 48 89 05 fa 69 00 00        	mov	qword ptr [rip + 27130], rax ## 0x10000cef0 <dyld_stub_binder+0x10000cef0>
1000064f6: 48 85 c0                    	test	rax, rax
1000064f9: 0f 84 d4 04 00 00           	je	0x1000069d3 <__text+0x3253>
1000064ff: 48 8d 35 23 42 00 00        	lea	rsi, [rip + 16931]      ## 0x10000a729 <dyld_stub_binder+0x10000a729>
100006506: 48 89 df                    	mov	rdi, rbx
100006509: e8 28 32 00 00              	call	0x100009736 <dyld_stub_binder+0x100009736>
10000650e: 48 89 05 e3 69 00 00        	mov	qword ptr [rip + 27107], rax ## 0x10000cef8 <dyld_stub_binder+0x10000cef8>
100006515: 48 85 c0                    	test	rax, rax
100006518: 0f 84 c1 04 00 00           	je	0x1000069df <__text+0x325f>
10000651e: 48 8d 35 34 42 00 00        	lea	rsi, [rip + 16948]      ## 0x10000a759 <dyld_stub_binder+0x10000a759>
100006525: 48 89 df                    	mov	rdi, rbx
100006528: e8 09 32 00 00              	call	0x100009736 <dyld_stub_binder+0x100009736>
10000652d: 48 89 05 cc 69 00 00        	mov	qword ptr [rip + 27084], rax ## 0x10000cf00 <dyld_stub_binder+0x10000cf00>
100006534: 48 85 c0                    	test	rax, rax
100006537: 0f 84 ae 04 00 00           	je	0x1000069eb <__text+0x326b>
10000653d: 48 8d 35 5f 42 00 00        	lea	rsi, [rip + 16991]      ## 0x10000a7a3 <dyld_stub_binder+0x10000a7a3>
100006544: 48 89 df                    	mov	rdi, rbx
100006547: e8 ea 31 00 00              	call	0x100009736 <dyld_stub_binder+0x100009736>
10000654c: 48 89 05 b5 69 00 00        	mov	qword ptr [rip + 27061], rax ## 0x10000cf08 <dyld_stub_binder+0x10000cf08>
100006553: 48 85 c0                    	test	rax, rax
100006556: 0f 84 9b 04 00 00           	je	0x1000069f7 <__text+0x3277>
10000655c: 48 8d 35 6e 42 00 00        	lea	rsi, [rip + 17006]      ## 0x10000a7d1 <dyld_stub_binder+0x10000a7d1>
100006563: 48 89 df                    	mov	rdi, rbx
100006566: e8 cb 31 00 00              	call	0x100009736 <dyld_stub_binder+0x100009736>
10000656b: 48 89 05 9e 69 00 00        	mov	qword ptr [rip + 27038], rax ## 0x10000cf10 <dyld_stub_binder+0x10000cf10>
100006572: 48 85 c0                    	test	rax, rax
100006575: 0f 84 88 04 00 00           	je	0x100006a03 <__text+0x3283>
10000657b: 48 8d 35 91 42 00 00        	lea	rsi, [rip + 17041]      ## 0x10000a813 <dyld_stub_binder+0x10000a813>
100006582: 48 89 df                    	mov	rdi, rbx
100006585: e8 ac 31 00 00              	call	0x100009736 <dyld_stub_binder+0x100009736>
10000658a: 48 89 05 87 69 00 00        	mov	qword ptr [rip + 27015], rax ## 0x10000cf18 <dyld_stub_binder+0x10000cf18>
100006591: 48 85 c0                    	test	rax, rax
100006594: 0f 84 75 04 00 00           	je	0x100006a0f <__text+0x328f>
10000659a: 48 8d 35 aa 42 00 00        	lea	rsi, [rip + 17066]      ## 0x10000a84b <dyld_stub_binder+0x10000a84b>
1000065a1: 48 89 df                    	mov	rdi, rbx
1000065a4: e8 8d 31 00 00              	call	0x100009736 <dyld_stub_binder+0x100009736>
1000065a9: 48 89 05 70 69 00 00        	mov	qword ptr [rip + 26992], rax ## 0x10000cf20 <dyld_stub_binder+0x10000cf20>
1000065b0: 48 85 c0                    	test	rax, rax
1000065b3: 0f 84 62 04 00 00           	je	0x100006a1b <__text+0x329b>
1000065b9: 48 8d 35 d3 42 00 00        	lea	rsi, [rip + 17107]      ## 0x10000a893 <dyld_stub_binder+0x10000a893>
1000065c0: 48 89 df                    	mov	rdi, rbx
1000065c3: e8 6e 31 00 00              	call	0x100009736 <dyld_stub_binder+0x100009736>
1000065c8: 48 89 05 59 69 00 00        	mov	qword ptr [rip + 26969], rax ## 0x10000cf28 <dyld_stub_binder+0x10000cf28>
1000065cf: 48 85 c0                    	test	rax, rax
1000065d2: 0f 84 4f 04 00 00           	je	0x100006a27 <__text+0x32a7>
1000065d8: 48 8d 35 de 42 00 00        	lea	rsi, [rip + 17118]      ## 0x10000a8bd <dyld_stub_binder+0x10000a8bd>
1000065df: 48 89 df                    	mov	rdi, rbx
1000065e2: e8 4f 31 00 00              	call	0x100009736 <dyld_stub_binder+0x100009736>
1000065e7: 48 89 05 42 69 00 00        	mov	qword ptr [rip + 26946], rax ## 0x10000cf30 <dyld_stub_binder+0x10000cf30>
1000065ee: 48 85 c0                    	test	rax, rax
1000065f1: 0f 84 3c 04 00 00           	je	0x100006a33 <__text+0x32b3>
1000065f7: 48 8d 35 e9 42 00 00        	lea	rsi, [rip + 17129]      ## 0x10000a8e7 <dyld_stub_binder+0x10000a8e7>
1000065fe: 48 89 df                    	mov	rdi, rbx
100006601: e8 30 31 00 00              	call	0x100009736 <dyld_stub_binder+0x100009736>
100006606: 48 89 05 2b 69 00 00        	mov	qword ptr [rip + 26923], rax ## 0x10000cf38 <dyld_stub_binder+0x10000cf38>
10000660d: 48 85 c0                    	test	rax, rax
100006610: 0f 84 29 04 00 00           	je	0x100006a3f <__text+0x32bf>
100006616: 48 8d 35 0e 43 00 00        	lea	rsi, [rip + 17166]      ## 0x10000a92b <dyld_stub_binder+0x10000a92b>
10000661d: 48 89 df                    	mov	rdi, rbx
100006620: e8 11 31 00 00              	call	0x100009736 <dyld_stub_binder+0x100009736>
100006625: 48 89 05 14 69 00 00        	mov	qword ptr [rip + 26900], rax ## 0x10000cf40 <dyld_stub_binder+0x10000cf40>
10000662c: 48 85 c0                    	test	rax, rax
10000662f: 0f 84 16 04 00 00           	je	0x100006a4b <__text+0x32cb>
100006635: 48 8d 35 1f 43 00 00        	lea	rsi, [rip + 17183]      ## 0x10000a95b <dyld_stub_binder+0x10000a95b>
10000663c: 48 89 df                    	mov	rdi, rbx
10000663f: e8 f2 30 00 00              	call	0x100009736 <dyld_stub_binder+0x100009736>
100006644: 48 89 05 fd 68 00 00        	mov	qword ptr [rip + 26877], rax ## 0x10000cf48 <dyld_stub_binder+0x10000cf48>
10000664b: 48 85 c0                    	test	rax, rax
10000664e: 0f 84 03 04 00 00           	je	0x100006a57 <__text+0x32d7>
100006654: 48 8d 35 2a 43 00 00        	lea	rsi, [rip + 17194]      ## 0x10000a985 <dyld_stub_binder+0x10000a985>
10000665b: 48 89 df                    	mov	rdi, rbx
10000665e: e8 d3 30 00 00              	call	0x100009736 <dyld_stub_binder+0x100009736>
100006663: 48 89 05 e6 68 00 00        	mov	qword ptr [rip + 26854], rax ## 0x10000cf50 <dyld_stub_binder+0x10000cf50>
10000666a: 48 85 c0                    	test	rax, rax
10000666d: 0f 84 f0 03 00 00           	je	0x100006a63 <__text+0x32e3>
100006673: 48 8d 35 39 43 00 00        	lea	rsi, [rip + 17209]      ## 0x10000a9b3 <dyld_stub_binder+0x10000a9b3>
10000667a: 48 89 df                    	mov	rdi, rbx
10000667d: e8 b4 30 00 00              	call	0x100009736 <dyld_stub_binder+0x100009736>
100006682: 48 89 05 cf 68 00 00        	mov	qword ptr [rip + 26831], rax ## 0x10000cf58 <dyld_stub_binder+0x10000cf58>
100006689: 48 85 c0                    	test	rax, rax
10000668c: 0f 84 dd 03 00 00           	je	0x100006a6f <__text+0x32ef>
100006692: 48 8d 35 4c 43 00 00        	lea	rsi, [rip + 17228]      ## 0x10000a9e5 <dyld_stub_binder+0x10000a9e5>
100006699: 48 89 df                    	mov	rdi, rbx
10000669c: e8 95 30 00 00              	call	0x100009736 <dyld_stub_binder+0x100009736>
1000066a1: 48 89 05 b8 68 00 00        	mov	qword ptr [rip + 26808], rax ## 0x10000cf60 <dyld_stub_binder+0x10000cf60>
1000066a8: 48 85 c0                    	test	rax, rax
1000066ab: 0f 84 ca 03 00 00           	je	0x100006a7b <__text+0x32fb>
1000066b1: 48 8d 35 65 43 00 00        	lea	rsi, [rip + 17253]      ## 0x10000aa1d <dyld_stub_binder+0x10000aa1d>
1000066b8: 48 89 df                    	mov	rdi, rbx
1000066bb: e8 76 30 00 00              	call	0x100009736 <dyld_stub_binder+0x100009736>
1000066c0: 48 89 05 a1 68 00 00        	mov	qword ptr [rip + 26785], rax ## 0x10000cf68 <dyld_stub_binder+0x10000cf68>
1000066c7: 48 85 c0                    	test	rax, rax
1000066ca: 0f 84 b7 03 00 00           	je	0x100006a87 <__text+0x3307>
1000066d0: 48 8d 35 88 43 00 00        	lea	rsi, [rip + 17288]      ## 0x10000aa5f <dyld_stub_binder+0x10000aa5f>
1000066d7: 48 89 df                    	mov	rdi, rbx
1000066da: e8 57 30 00 00              	call	0x100009736 <dyld_stub_binder+0x100009736>
1000066df: 48 89 05 8a 68 00 00        	mov	qword ptr [rip + 26762], rax ## 0x10000cf70 <dyld_stub_binder+0x10000cf70>
1000066e6: 48 85 c0                    	test	rax, rax
1000066e9: 0f 84 a4 03 00 00           	je	0x100006a93 <__text+0x3313>
1000066ef: 48 8d 35 a7 43 00 00        	lea	rsi, [rip + 17319]      ## 0x10000aa9d <dyld_stub_binder+0x10000aa9d>
1000066f6: 48 89 df                    	mov	rdi, rbx
1000066f9: e8 38 30 00 00              	call	0x100009736 <dyld_stub_binder+0x100009736>
1000066fe: 48 89 05 73 68 00 00        	mov	qword ptr [rip + 26739], rax ## 0x10000cf78 <dyld_stub_binder+0x10000cf78>
100006705: 48 85 c0                    	test	rax, rax
100006708: 0f 84 91 03 00 00           	je	0x100006a9f <__text+0x331f>
10000670e: 48 8d 35 b6 43 00 00        	lea	rsi, [rip + 17334]      ## 0x10000aacb <dyld_stub_binder+0x10000aacb>
100006715: 48 89 df                    	mov	rdi, rbx
100006718: e8 19 30 00 00              	call	0x100009736 <dyld_stub_binder+0x100009736>
10000671d: 48 89 05 5c 68 00 00        	mov	qword ptr [rip + 26716], rax ## 0x10000cf80 <dyld_stub_binder+0x10000cf80>
100006724: 48 85 c0                    	test	rax, rax
100006727: 0f 84 7e 03 00 00           	je	0x100006aab <__text+0x332b>
10000672d: 48 8d 35 e7 43 00 00        	lea	rsi, [rip + 17383]      ## 0x10000ab1b <dyld_stub_binder+0x10000ab1b>
100006734: 48 89 df                    	mov	rdi, rbx
100006737: e8 fa 2f 00 00              	call	0x100009736 <dyld_stub_binder+0x100009736>
10000673c: 48 89 05 45 68 00 00        	mov	qword ptr [rip + 26693], rax ## 0x10000cf88 <dyld_stub_binder+0x10000cf88>
100006743: 48 85 c0                    	test	rax, rax
100006746: 0f 84 6b 03 00 00           	je	0x100006ab7 <__text+0x3337>
10000674c: 48 8d 35 f6 43 00 00        	lea	rsi, [rip + 17398]      ## 0x10000ab49 <dyld_stub_binder+0x10000ab49>
100006753: 48 89 df                    	mov	rdi, rbx
100006756: e8 db 2f 00 00              	call	0x100009736 <dyld_stub_binder+0x100009736>
10000675b: 48 89 05 2e 68 00 00        	mov	qword ptr [rip + 26670], rax ## 0x10000cf90 <dyld_stub_binder+0x10000cf90>
100006762: 48 85 c0                    	test	rax, rax
100006765: 0f 84 58 03 00 00           	je	0x100006ac3 <__text+0x3343>
10000676b: 48 8d 35 0b 44 00 00        	lea	rsi, [rip + 17419]      ## 0x10000ab7d <dyld_stub_binder+0x10000ab7d>
100006772: 48 89 df                    	mov	rdi, rbx
100006775: e8 bc 2f 00 00              	call	0x100009736 <dyld_stub_binder+0x100009736>
10000677a: 48 89 05 17 68 00 00        	mov	qword ptr [rip + 26647], rax ## 0x10000cf98 <dyld_stub_binder+0x10000cf98>
100006781: 48 85 c0                    	test	rax, rax
100006784: 0f 84 45 03 00 00           	je	0x100006acf <__text+0x334f>
10000678a: 48 8d 35 2a 44 00 00        	lea	rsi, [rip + 17450]      ## 0x10000abbb <dyld_stub_binder+0x10000abbb>
100006791: 48 89 df                    	mov	rdi, rbx
100006794: e8 9d 2f 00 00              	call	0x100009736 <dyld_stub_binder+0x100009736>
100006799: 48 89 05 00 68 00 00        	mov	qword ptr [rip + 26624], rax ## 0x10000cfa0 <dyld_stub_binder+0x10000cfa0>
1000067a0: 48 85 c0                    	test	rax, rax
1000067a3: 0f 84 32 03 00 00           	je	0x100006adb <__text+0x335b>
1000067a9: 48 8d 35 57 44 00 00        	lea	rsi, [rip + 17495]      ## 0x10000ac07 <dyld_stub_binder+0x10000ac07>
1000067b0: 48 89 df                    	mov	rdi, rbx
1000067b3: e8 7e 2f 00 00              	call	0x100009736 <dyld_stub_binder+0x100009736>
1000067b8: 48 89 05 e9 67 00 00        	mov	qword ptr [rip + 26601], rax ## 0x10000cfa8 <dyld_stub_binder+0x10000cfa8>
1000067bf: 48 85 c0                    	test	rax, rax
1000067c2: 0f 84 1c 03 00 00           	je	0x100006ae4 <__text+0x3364>
1000067c8: 48 8d 35 78 44 00 00        	lea	rsi, [rip + 17528]      ## 0x10000ac47 <dyld_stub_binder+0x10000ac47>
1000067cf: 48 89 df                    	mov	rdi, rbx
1000067d2: e8 5f 2f 00 00              	call	0x100009736 <dyld_stub_binder+0x100009736>
1000067d7: 48 89 05 d2 67 00 00        	mov	qword ptr [rip + 26578], rax ## 0x10000cfb0 <dyld_stub_binder+0x10000cfb0>
1000067de: 48 85 c0                    	test	rax, rax
1000067e1: 0f 84 06 03 00 00           	je	0x100006aed <__text+0x336d>
1000067e7: 48 8d 35 99 44 00 00        	lea	rsi, [rip + 17561]      ## 0x10000ac87 <dyld_stub_binder+0x10000ac87>
1000067ee: 48 89 df                    	mov	rdi, rbx
1000067f1: e8 40 2f 00 00              	call	0x100009736 <dyld_stub_binder+0x100009736>
1000067f6: 48 89 05 bb 67 00 00        	mov	qword ptr [rip + 26555], rax ## 0x10000cfb8 <dyld_stub_binder+0x10000cfb8>
1000067fd: 48 85 c0                    	test	rax, rax
100006800: 0f 84 f0 02 00 00           	je	0x100006af6 <__text+0x3376>
100006806: 48 8d 35 a6 44 00 00        	lea	rsi, [rip + 17574]      ## 0x10000acb3 <dyld_stub_binder+0x10000acb3>
10000680d: 48 89 df                    	mov	rdi, rbx
100006810: e8 21 2f 00 00              	call	0x100009736 <dyld_stub_binder+0x100009736>
100006815: 48 89 05 a4 67 00 00        	mov	qword ptr [rip + 26532], rax ## 0x10000cfc0 <dyld_stub_binder+0x10000cfc0>
10000681c: 48 85 c0                    	test	rax, rax
10000681f: 0f 84 da 02 00 00           	je	0x100006aff <__text+0x337f>
100006825: 48 8d 35 d7 44 00 00        	lea	rsi, [rip + 17623]      ## 0x10000ad03 <dyld_stub_binder+0x10000ad03>
10000682c: 48 89 df                    	mov	rdi, rbx
10000682f: e8 02 2f 00 00              	call	0x100009736 <dyld_stub_binder+0x100009736>
100006834: 48 89 05 8d 67 00 00        	mov	qword ptr [rip + 26509], rax ## 0x10000cfc8 <dyld_stub_binder+0x10000cfc8>
10000683b: 48 85 c0                    	test	rax, rax
10000683e: 0f 84 c4 02 00 00           	je	0x100006b08 <__text+0x3388>
100006844: 48 8d 35 fa 44 00 00        	lea	rsi, [rip + 17658]      ## 0x10000ad45 <dyld_stub_binder+0x10000ad45>
10000684b: 48 89 df                    	mov	rdi, rbx
10000684e: e8 e3 2e 00 00              	call	0x100009736 <dyld_stub_binder+0x100009736>
100006853: 48 89 05 76 67 00 00        	mov	qword ptr [rip + 26486], rax ## 0x10000cfd0 <dyld_stub_binder+0x10000cfd0>
10000685a: 48 85 c0                    	test	rax, rax
10000685d: 0f 84 ae 02 00 00           	je	0x100006b11 <__text+0x3391>
100006863: 48 8d 35 13 45 00 00        	lea	rsi, [rip + 17683]      ## 0x10000ad7d <dyld_stub_binder+0x10000ad7d>
10000686a: 48 89 df                    	mov	rdi, rbx
10000686d: e8 c4 2e 00 00              	call	0x100009736 <dyld_stub_binder+0x100009736>
100006872: 48 89 05 5f 67 00 00        	mov	qword ptr [rip + 26463], rax ## 0x10000cfd8 <dyld_stub_binder+0x10000cfd8>
100006879: 48 85 c0                    	test	rax, rax
10000687c: 0f 84 98 02 00 00           	je	0x100006b1a <__text+0x339a>
100006882: 48 8d 35 26 45 00 00        	lea	rsi, [rip + 17702]      ## 0x10000adaf <dyld_stub_binder+0x10000adaf>
100006889: 48 89 df                    	mov	rdi, rbx
10000688c: e8 a5 2e 00 00              	call	0x100009736 <dyld_stub_binder+0x100009736>
100006891: 48 89 05 48 67 00 00        	mov	qword ptr [rip + 26440], rax ## 0x10000cfe0 <dyld_stub_binder+0x10000cfe0>
100006898: 48 85 c0                    	test	rax, rax
10000689b: 0f 84 82 02 00 00           	je	0x100006b23 <__text+0x33a3>
1000068a1: 48 8d 35 39 45 00 00        	lea	rsi, [rip + 17721]      ## 0x10000ade1 <dyld_stub_binder+0x10000ade1>
1000068a8: 48 89 df                    	mov	rdi, rbx
1000068ab: e8 86 2e 00 00              	call	0x100009736 <dyld_stub_binder+0x100009736>
1000068b0: 48 89 05 31 67 00 00        	mov	qword ptr [rip + 26417], rax ## 0x10000cfe8 <dyld_stub_binder+0x10000cfe8>
1000068b7: 48 85 c0                    	test	rax, rax
1000068ba: 0f 84 6c 02 00 00           	je	0x100006b2c <__text+0x33ac>
1000068c0: 48 8d 35 4e 45 00 00        	lea	rsi, [rip + 17742]      ## 0x10000ae15 <dyld_stub_binder+0x10000ae15>
1000068c7: 48 89 df                    	mov	rdi, rbx
1000068ca: e8 67 2e 00 00              	call	0x100009736 <dyld_stub_binder+0x100009736>
1000068cf: 48 89 05 1a 67 00 00        	mov	qword ptr [rip + 26394], rax ## 0x10000cff0 <dyld_stub_binder+0x10000cff0>
1000068d6: 48 85 c0                    	test	rax, rax
1000068d9: 0f 84 56 02 00 00           	je	0x100006b35 <__text+0x33b5>
1000068df: 48 8d 35 63 45 00 00        	lea	rsi, [rip + 17763]      ## 0x10000ae49 <dyld_stub_binder+0x10000ae49>
1000068e6: 48 89 df                    	mov	rdi, rbx
1000068e9: e8 48 2e 00 00              	call	0x100009736 <dyld_stub_binder+0x100009736>
1000068ee: 48 89 05 03 67 00 00        	mov	qword ptr [rip + 26371], rax ## 0x10000cff8 <dyld_stub_binder+0x10000cff8>
1000068f5: 48 85 c0                    	test	rax, rax
1000068f8: 0f 84 40 02 00 00           	je	0x100006b3e <__text+0x33be>
1000068fe: 48 8d 35 8a 45 00 00        	lea	rsi, [rip + 17802]      ## 0x10000ae8f <dyld_stub_binder+0x10000ae8f>
100006905: 48 89 df                    	mov	rdi, rbx
100006908: e8 29 2e 00 00              	call	0x100009736 <dyld_stub_binder+0x100009736>
10000690d: 48 89 05 ec 66 00 00        	mov	qword ptr [rip + 26348], rax ## 0x10000d000 <dyld_stub_binder+0x10000d000>
100006914: 48 85 c0                    	test	rax, rax
100006917: 0f 84 2a 02 00 00           	je	0x100006b47 <__text+0x33c7>
10000691d: 48 8d 35 a7 45 00 00        	lea	rsi, [rip + 17831]      ## 0x10000aecb <dyld_stub_binder+0x10000aecb>
100006924: 48 89 df                    	mov	rdi, rbx
100006927: e8 0a 2e 00 00              	call	0x100009736 <dyld_stub_binder+0x100009736>
10000692c: 48 89 05 d5 66 00 00        	mov	qword ptr [rip + 26325], rax ## 0x10000d008 <dyld_stub_binder+0x10000d008>
100006933: 48 85 c0                    	test	rax, rax
100006936: 0f 84 14 02 00 00           	je	0x100006b50 <__text+0x33d0>
10000693c: 48 8d 35 c4 45 00 00        	lea	rsi, [rip + 17860]      ## 0x10000af07 <dyld_stub_binder+0x10000af07>
100006943: 48 89 df                    	mov	rdi, rbx
100006946: e8 eb 2d 00 00              	call	0x100009736 <dyld_stub_binder+0x100009736>
10000694b: 48 89 05 be 66 00 00        	mov	qword ptr [rip + 26302], rax ## 0x10000d010 <dyld_stub_binder+0x10000d010>
100006952: 48 85 c0                    	test	rax, rax
100006955: 0f 84 fe 01 00 00           	je	0x100006b59 <__text+0x33d9>
10000695b: 48 8d 35 d5 45 00 00        	lea	rsi, [rip + 17877]      ## 0x10000af37 <dyld_stub_binder+0x10000af37>
100006962: 48 89 df                    	mov	rdi, rbx
100006965: e8 cc 2d 00 00              	call	0x100009736 <dyld_stub_binder+0x100009736>
10000696a: 48 89 c1                    	mov	rcx, rax
10000696d: 48 89 05 a4 66 00 00        	mov	qword ptr [rip + 26276], rax ## 0x10000d018 <dyld_stub_binder+0x10000d018>
100006974: 31 c0                       	xor	eax, eax
100006976: 48 85 c9                    	test	rcx, rcx
100006979: 0f 85 ed 01 00 00           	jne	0x100006b6c <__text+0x33ec>
10000697f: 48 8d 3d c3 45 00 00        	lea	rdi, [rip + 17859]      ## 0x10000af49 <dyld_stub_binder+0x10000af49>
100006986: e9 d5 01 00 00              	jmp	0x100006b60 <__text+0x33e0>
10000698b: 48 8d 3d 35 3c 00 00        	lea	rdi, [rip + 15413]      ## 0x10000a5c7 <dyld_stub_binder+0x10000a5c7>
100006992: e9 c9 01 00 00              	jmp	0x100006b60 <__text+0x33e0>
100006997: 48 8d 3d 55 3c 00 00        	lea	rdi, [rip + 15445]      ## 0x10000a5f3 <dyld_stub_binder+0x10000a5f3>
10000699e: e9 bd 01 00 00              	jmp	0x100006b60 <__text+0x33e0>
1000069a3: 48 8d 3d 82 3c 00 00        	lea	rdi, [rip + 15490]      ## 0x10000a62c <dyld_stub_binder+0x10000a62c>
1000069aa: e9 b1 01 00 00              	jmp	0x100006b60 <__text+0x33e0>
1000069af: 48 8d 3d ab 3c 00 00        	lea	rdi, [rip + 15531]      ## 0x10000a661 <dyld_stub_binder+0x10000a661>
1000069b6: e9 a5 01 00 00              	jmp	0x100006b60 <__text+0x33e0>
1000069bb: 48 8d 3d d5 3c 00 00        	lea	rdi, [rip + 15573]      ## 0x10000a697 <dyld_stub_binder+0x10000a697>
1000069c2: e9 99 01 00 00              	jmp	0x100006b60 <__text+0x33e0>
1000069c7: 48 8d 3d 04 3d 00 00        	lea	rdi, [rip + 15620]      ## 0x10000a6d2 <dyld_stub_binder+0x10000a6d2>
1000069ce: e9 8d 01 00 00              	jmp	0x100006b60 <__text+0x33e0>
1000069d3: 48 8d 3d 2c 3d 00 00        	lea	rdi, [rip + 15660]      ## 0x10000a706 <dyld_stub_binder+0x10000a706>
1000069da: e9 81 01 00 00              	jmp	0x100006b60 <__text+0x33e0>
1000069df: 48 8d 3d 52 3d 00 00        	lea	rdi, [rip + 15698]      ## 0x10000a738 <dyld_stub_binder+0x10000a738>
1000069e6: e9 75 01 00 00              	jmp	0x100006b60 <__text+0x33e0>
1000069eb: 48 8d 3d 83 3d 00 00        	lea	rdi, [rip + 15747]      ## 0x10000a775 <dyld_stub_binder+0x10000a775>
1000069f2: e9 69 01 00 00              	jmp	0x100006b60 <__text+0x33e0>
1000069f7: 48 8d 3d b3 3d 00 00        	lea	rdi, [rip + 15795]      ## 0x10000a7b1 <dyld_stub_binder+0x10000a7b1>
1000069fe: e9 5d 01 00 00              	jmp	0x100006b60 <__text+0x33e0>
100006a03: 48 8d 3d df 3d 00 00        	lea	rdi, [rip + 15839]      ## 0x10000a7e9 <dyld_stub_binder+0x10000a7e9>
100006a0a: e9 51 01 00 00              	jmp	0x100006b60 <__text+0x33e0>
100006a0f: 48 8d 3d 10 3e 00 00        	lea	rdi, [rip + 15888]      ## 0x10000a826 <dyld_stub_binder+0x10000a826>
100006a16: e9 45 01 00 00              	jmp	0x100006b60 <__text+0x33e0>
100006a1b: 48 8d 3d 44 3e 00 00        	lea	rdi, [rip + 15940]      ## 0x10000a866 <dyld_stub_binder+0x10000a866>
100006a22: e9 39 01 00 00              	jmp	0x100006b60 <__text+0x33e0>
100006a27: 48 8d 3d 71 3e 00 00        	lea	rdi, [rip + 15985]      ## 0x10000a89f <dyld_stub_binder+0x10000a89f>
100006a2e: e9 2d 01 00 00              	jmp	0x100006b60 <__text+0x33e0>
100006a33: 48 8d 3d 8f 3e 00 00        	lea	rdi, [rip + 16015]      ## 0x10000a8c9 <dyld_stub_binder+0x10000a8c9>
100006a3a: e9 21 01 00 00              	jmp	0x100006b60 <__text+0x33e0>
100006a3f: 48 8d 3d ba 3e 00 00        	lea	rdi, [rip + 16058]      ## 0x10000a900 <dyld_stub_binder+0x10000a900>
100006a46: e9 15 01 00 00              	jmp	0x100006b60 <__text+0x33e0>
100006a4b: 48 8d 3d e8 3e 00 00        	lea	rdi, [rip + 16104]      ## 0x10000a93a <dyld_stub_binder+0x10000a93a>
100006a52: e9 09 01 00 00              	jmp	0x100006b60 <__text+0x33e0>
100006a57: 48 8d 3d 09 3f 00 00        	lea	rdi, [rip + 16137]      ## 0x10000a967 <dyld_stub_binder+0x10000a967>
100006a5e: e9 fd 00 00 00              	jmp	0x100006b60 <__text+0x33e0>
100006a63: 48 8d 3d 29 3f 00 00        	lea	rdi, [rip + 16169]      ## 0x10000a993 <dyld_stub_binder+0x10000a993>
100006a6a: e9 f1 00 00 00              	jmp	0x100006b60 <__text+0x33e0>
100006a6f: 48 8d 3d 4d 3f 00 00        	lea	rdi, [rip + 16205]      ## 0x10000a9c3 <dyld_stub_binder+0x10000a9c3>
100006a76: e9 e5 00 00 00              	jmp	0x100006b60 <__text+0x33e0>
100006a7b: 48 8d 3d 76 3f 00 00        	lea	rdi, [rip + 16246]      ## 0x10000a9f8 <dyld_stub_binder+0x10000a9f8>
100006a82: e9 d9 00 00 00              	jmp	0x100006b60 <__text+0x33e0>
100006a87: 48 8d 3d a7 3f 00 00        	lea	rdi, [rip + 16295]      ## 0x10000aa35 <dyld_stub_binder+0x10000aa35>
100006a8e: e9 cd 00 00 00              	jmp	0x100006b60 <__text+0x33e0>
100006a93: 48 8d 3d db 3f 00 00        	lea	rdi, [rip + 16347]      ## 0x10000aa75 <dyld_stub_binder+0x10000aa75>
100006a9a: e9 c1 00 00 00              	jmp	0x100006b60 <__text+0x33e0>
100006a9f: 48 8d 3d 05 40 00 00        	lea	rdi, [rip + 16389]      ## 0x10000aaab <dyld_stub_binder+0x10000aaab>
100006aa6: e9 b5 00 00 00              	jmp	0x100006b60 <__text+0x33e0>
100006aab: 48 8d 3d 38 40 00 00        	lea	rdi, [rip + 16440]      ## 0x10000aaea <dyld_stub_binder+0x10000aaea>
100006ab2: e9 a9 00 00 00              	jmp	0x100006b60 <__text+0x33e0>
100006ab7: 48 8d 3d 6b 40 00 00        	lea	rdi, [rip + 16491]      ## 0x10000ab29 <dyld_stub_binder+0x10000ab29>
100006abe: e9 9d 00 00 00              	jmp	0x100006b60 <__text+0x33e0>
100006ac3: 48 8d 3d 90 40 00 00        	lea	rdi, [rip + 16528]      ## 0x10000ab5a <dyld_stub_binder+0x10000ab5a>
100006aca: e9 91 00 00 00              	jmp	0x100006b60 <__text+0x33e0>
100006acf: 48 8d 3d bd 40 00 00        	lea	rdi, [rip + 16573]      ## 0x10000ab93 <dyld_stub_binder+0x10000ab93>
100006ad6: e9 85 00 00 00              	jmp	0x100006b60 <__text+0x33e0>
100006adb: 48 8d 3d f6 40 00 00        	lea	rdi, [rip + 16630]      ## 0x10000abd8 <dyld_stub_binder+0x10000abd8>
100006ae2: eb 7c                       	jmp	0x100006b60 <__text+0x33e0>
100006ae4: 48 8d 3d 33 41 00 00        	lea	rdi, [rip + 16691]      ## 0x10000ac1e <dyld_stub_binder+0x10000ac1e>
100006aeb: eb 73                       	jmp	0x100006b60 <__text+0x33e0>
100006aed: 48 8d 3d 6a 41 00 00        	lea	rdi, [rip + 16746]      ## 0x10000ac5e <dyld_stub_binder+0x10000ac5e>
100006af4: eb 6a                       	jmp	0x100006b60 <__text+0x33e0>
100006af6: 48 8d 3d 97 41 00 00        	lea	rdi, [rip + 16791]      ## 0x10000ac94 <dyld_stub_binder+0x10000ac94>
100006afd: eb 61                       	jmp	0x100006b60 <__text+0x33e0>
100006aff: 48 8d 3d cc 41 00 00        	lea	rdi, [rip + 16844]      ## 0x10000acd2 <dyld_stub_binder+0x10000acd2>
100006b06: eb 58                       	jmp	0x100006b60 <__text+0x33e0>
100006b08: 48 8d 3d 0c 42 00 00        	lea	rdi, [rip + 16908]      ## 0x10000ad1b <dyld_stub_binder+0x10000ad1b>
100006b0f: eb 4f                       	jmp	0x100006b60 <__text+0x33e0>
100006b11: 48 8d 3d 40 42 00 00        	lea	rdi, [rip + 16960]      ## 0x10000ad58 <dyld_stub_binder+0x10000ad58>
100006b18: eb 46                       	jmp	0x100006b60 <__text+0x33e0>
100006b1a: 48 8d 3d 6c 42 00 00        	lea	rdi, [rip + 17004]      ## 0x10000ad8d <dyld_stub_binder+0x10000ad8d>
100006b21: eb 3d                       	jmp	0x100006b60 <__text+0x33e0>
100006b23: 48 8d 3d 95 42 00 00        	lea	rdi, [rip + 17045]      ## 0x10000adbf <dyld_stub_binder+0x10000adbf>
100006b2a: eb 34                       	jmp	0x100006b60 <__text+0x33e0>
100006b2c: 48 8d 3d bf 42 00 00        	lea	rdi, [rip + 17087]      ## 0x10000adf2 <dyld_stub_binder+0x10000adf2>
100006b33: eb 2b                       	jmp	0x100006b60 <__text+0x33e0>
100006b35: 48 8d 3d ea 42 00 00        	lea	rdi, [rip + 17130]      ## 0x10000ae26 <dyld_stub_binder+0x10000ae26>
100006b3c: eb 22                       	jmp	0x100006b60 <__text+0x33e0>
100006b3e: 48 8d 3d 1e 43 00 00        	lea	rdi, [rip + 17182]      ## 0x10000ae63 <dyld_stub_binder+0x10000ae63>
100006b45: eb 19                       	jmp	0x100006b60 <__text+0x33e0>
100006b47: 48 8d 3d 56 43 00 00        	lea	rdi, [rip + 17238]      ## 0x10000aea4 <dyld_stub_binder+0x10000aea4>
100006b4e: eb 10                       	jmp	0x100006b60 <__text+0x33e0>
100006b50: 48 8d 3d 89 43 00 00        	lea	rdi, [rip + 17289]      ## 0x10000aee0 <dyld_stub_binder+0x10000aee0>
100006b57: eb 07                       	jmp	0x100006b60 <__text+0x33e0>
100006b59: 48 8d 3d b6 43 00 00        	lea	rdi, [rip + 17334]      ## 0x10000af16 <dyld_stub_binder+0x10000af16>
100006b60: 31 c0                       	xor	eax, eax
100006b62: e8 b9 d6 ff ff              	call	0x100004220 <__text+0xaa0>
100006b67: b8 ff ff ff ff              	mov	eax, 4294967295
100006b6c: 48 83 c4 08                 	add	rsp, 8
100006b70: 5b                          	pop	rbx
100006b71: 5d                          	pop	rbp
100006b72: c3                          	ret
100006b73: 90                          	nop
100006b74: 90                          	nop
100006b75: 90                          	nop
100006b76: 90                          	nop
100006b77: 90                          	nop
100006b78: 90                          	nop
100006b79: 90                          	nop
100006b7a: 90                          	nop
100006b7b: 90                          	nop
100006b7c: 90                          	nop
100006b7d: 90                          	nop
100006b7e: 90                          	nop
100006b7f: 90                          	nop
100006b80: 55                          	push	rbp
100006b81: 48 89 e5                    	mov	rbp, rsp
100006b84: 41 57                       	push	r15
100006b86: 41 56                       	push	r14
100006b88: 53                          	push	rbx
100006b89: 48 81 ec 48 04 00 00        	sub	rsp, 1096
100006b90: 49 89 fe                    	mov	r14, rdi
100006b93: 48 8b 05 6e 54 00 00        	mov	rax, qword ptr [rip + 21614] ## 0x10000c008 <dyld_stub_binder+0x10000c008>
100006b9a: 48 8b 00                    	mov	rax, qword ptr [rax]
100006b9d: 48 89 45 e0                 	mov	qword ptr [rbp - 32], rax
100006ba1: 4c 8b bf 20 08 00 00        	mov	r15, qword ptr [rdi + 2080]
100006ba8: 49 8d 9f 20 04 00 00        	lea	rbx, [r15 + 1056]
100006baf: 48 8d 15 7a 31 00 00        	lea	rdx, [rip + 12666]      ## 0x100009d30 <dyld_stub_binder+0x100009d30>
100006bb6: 48 8d 7d a0                 	lea	rdi, [rbp - 96]
100006bba: be 40 00 00 00              	mov	esi, 64
100006bbf: 48 89 d9                    	mov	rcx, rbx
100006bc2: 31 c0                       	xor	eax, eax
100006bc4: e8 51 2c 00 00              	call	0x10000981a <dyld_stub_binder+0x10000981a>
100006bc9: 83 f8 40                    	cmp	eax, 64
100006bcc: 72 1b                       	jb	0x100006be9 <__text+0x3469>
100006bce: 48 63 f0                    	movsxd	rsi, eax
100006bd1: 48 8d 3d 95 43 00 00        	lea	rdi, [rip + 17301]      ## 0x10000af6d <dyld_stub_binder+0x10000af6d>
100006bd8: 48 89 da                    	mov	rdx, rbx
100006bdb: b9 40 00 00 00              	mov	ecx, 64
100006be0: 31 c0                       	xor	eax, eax
100006be2: e8 39 d6 ff ff              	call	0x100004220 <__text+0xaa0>
100006be7: eb 7d                       	jmp	0x100006c66 <__text+0x34e6>
100006be9: 49 8d 9e 32 08 00 00        	lea	rbx, [r14 + 2098]
100006bf0: 48 8d bd a0 fb ff ff        	lea	rdi, [rbp - 1120]
100006bf7: 48 8d 55 a0                 	lea	rdx, [rbp - 96]
100006bfb: 48 89 de                    	mov	rsi, rbx
100006bfe: e8 7d e7 ff ff              	call	0x100005380 <__text+0x1c00>
100006c03: 48 85 c0                    	test	rax, rax
100006c06: 74 29                       	je	0x100006c31 <__text+0x34b1>
100006c08: 48 8d bd a0 fb ff ff        	lea	rdi, [rbp - 1120]
100006c0f: e8 5c 26 00 00              	call	0x100009270 <__text+0x5af0>
100006c14: 49 89 86 38 0c 00 00        	mov	qword ptr [r14 + 3128], rax
100006c1b: 48 85 c0                    	test	rax, rax
100006c1e: 74 29                       	je	0x100006c49 <__text+0x34c9>
100006c20: 41 8b b7 1c 04 00 00        	mov	esi, dword ptr [r15 + 1052]
100006c27: 48 89 c7                    	mov	rdi, rax
100006c2a: e8 f1 f7 ff ff              	call	0x100006420 <__text+0x2ca0>
100006c2f: eb 3a                       	jmp	0x100006c6b <__text+0x34eb>
100006c31: 48 8d 3d 87 43 00 00        	lea	rdi, [rip + 17287]      ## 0x10000afbf <dyld_stub_binder+0x10000afbf>
100006c38: 48 89 de                    	mov	rsi, rbx
100006c3b: ba 00 04 00 00              	mov	edx, 1024
100006c40: 31 c0                       	xor	eax, eax
100006c42: e8 d9 d5 ff ff              	call	0x100004220 <__text+0xaa0>
100006c47: eb 1d                       	jmp	0x100006c66 <__text+0x34e6>
100006c49: e8 dc 2a 00 00              	call	0x10000972a <dyld_stub_binder+0x10000972a>
100006c4e: 48 8d 3d b8 43 00 00        	lea	rdi, [rip + 17336]      ## 0x10000b00d <dyld_stub_binder+0x10000b00d>
100006c55: 48 8d b5 a0 fb ff ff        	lea	rsi, [rbp - 1120]
100006c5c: 48 89 c2                    	mov	rdx, rax
100006c5f: 31 c0                       	xor	eax, eax
100006c61: e8 ba d5 ff ff              	call	0x100004220 <__text+0xaa0>
100006c66: b8 ff ff ff ff              	mov	eax, 4294967295
100006c6b: 48 8b 0d 96 53 00 00        	mov	rcx, qword ptr [rip + 21398] ## 0x10000c008 <dyld_stub_binder+0x10000c008>
100006c72: 48 8b 09                    	mov	rcx, qword ptr [rcx]
100006c75: 48 3b 4d e0                 	cmp	rcx, qword ptr [rbp - 32]
100006c79: 75 0e                       	jne	0x100006c89 <__text+0x3509>
100006c7b: 48 81 c4 48 04 00 00        	add	rsp, 1096
100006c82: 5b                          	pop	rbx
100006c83: 41 5e                       	pop	r14
100006c85: 41 5f                       	pop	r15
100006c87: 5d                          	pop	rbp
100006c88: c3                          	ret
100006c89: e8 72 2a 00 00              	call	0x100009700 <dyld_stub_binder+0x100009700>
100006c8e: 66 90                       	nop
100006c90: 55                          	push	rbp
100006c91: 48 89 e5                    	mov	rbp, rsp
100006c94: 41 57                       	push	r15
100006c96: 41 56                       	push	r14
100006c98: 41 54                       	push	r12
100006c9a: 53                          	push	rbx
100006c9b: 48 83 ec 60                 	sub	rsp, 96
100006c9f: 48 89 fb                    	mov	rbx, rdi
100006ca2: 48 8b 87 20 08 00 00        	mov	rax, qword ptr [rdi + 2080]
100006ca9: 44 8b a0 1c 04 00 00        	mov	r12d, dword ptr [rax + 1052]
100006cb0: e8 5b e8 ff ff              	call	0x100005510 <__text+0x1d90>
100006cb5: 49 89 c6                    	mov	r14, rax
100006cb8: 48 85 c0                    	test	rax, rax
100006cbb: 0f 84 23 01 00 00           	je	0x100006de4 <__text+0x3664>
100006cc1: 4c 89 f7                    	mov	rdi, r14
100006cc4: e8 e7 f6 ff ff              	call	0x1000063b0 <__text+0x2c30>
100006cc9: 85 c0                       	test	eax, eax
100006ccb: 0f 88 1c 01 00 00           	js	0x100006ded <__text+0x366d>
100006cd1: 44 89 e7                    	mov	edi, r12d
100006cd4: e8 a7 ec ff ff              	call	0x100005980 <__text+0x2200>
100006cd9: 48 85 c0                    	test	rax, rax
100006cdc: 0f 84 14 01 00 00           	je	0x100006df6 <__text+0x3676>
100006ce2: 49 89 c7                    	mov	r15, rax
100006ce5: 48 8d 05 14 62 00 00        	lea	rax, [rip + 25108]      ## 0x10000cf00 <dyld_stub_binder+0x10000cf00>
100006cec: 4c 89 ff                    	mov	rdi, r15
100006cef: ff 10                       	call	qword ptr [rax]
100006cf1: 4c 89 ff                    	mov	rdi, r15
100006cf4: 48 89 de                    	mov	rsi, rbx
100006cf7: e8 24 ed ff ff              	call	0x100005a20 <__text+0x22a0>
100006cfc: 85 c0                       	test	eax, eax
100006cfe: 0f 88 27 01 00 00           	js	0x100006e2b <__text+0x36ab>
100006d04: 4c 89 ff                    	mov	rdi, r15
100006d07: 48 89 de                    	mov	rsi, rbx
100006d0a: e8 d1 ed ff ff              	call	0x100005ae0 <__text+0x2360>
100006d0f: 85 c0                       	test	eax, eax
100006d11: 0f 88 1d 01 00 00           	js	0x100006e34 <__text+0x36b4>
100006d17: 4c 89 ff                    	mov	rdi, r15
100006d1a: 48 89 de                    	mov	rsi, rbx
100006d1d: e8 7e ee ff ff              	call	0x100005ba0 <__text+0x2420>
100006d22: 85 c0                       	test	eax, eax
100006d24: 0f 88 13 01 00 00           	js	0x100006e3d <__text+0x36bd>
100006d2a: 4c 89 ff                    	mov	rdi, r15
100006d2d: 48 89 de                    	mov	rsi, rbx
100006d30: e8 4b f1 ff ff              	call	0x100005e80 <__text+0x2700>
100006d35: 85 c0                       	test	eax, eax
100006d37: 0f 88 09 01 00 00           	js	0x100006e46 <__text+0x36c6>
100006d3d: 4c 89 ff                    	mov	rdi, r15
100006d40: 44 89 e6                    	mov	esi, r12d
100006d43: 4c 89 f2                    	mov	rdx, r14
100006d46: e8 05 f3 ff ff              	call	0x100006050 <__text+0x28d0>
100006d4b: 85 c0                       	test	eax, eax
100006d4d: 0f 88 fc 00 00 00           	js	0x100006e4f <__text+0x36cf>
100006d53: 41 83 7e 04 00              	cmp	dword ptr [r14 + 4], 0
100006d58: 74 1e                       	je	0x100006d78 <__text+0x35f8>
100006d5a: 48 8b 05 b7 52 00 00        	mov	rax, qword ptr [rip + 21175] ## 0x10000c018 <dyld_stub_binder+0x10000c018>
100006d61: 48 8b 38                    	mov	rdi, qword ptr [rax]
100006d64: e8 f1 29 00 00              	call	0x10000975a <dyld_stub_binder+0x10000975a>
100006d69: 48 8b 05 a0 52 00 00        	mov	rax, qword ptr [rip + 21152] ## 0x10000c010 <dyld_stub_binder+0x10000c010>
100006d70: 48 8b 38                    	mov	rdi, qword ptr [rax]
100006d73: e8 e2 29 00 00              	call	0x10000975a <dyld_stub_binder+0x10000975a>
100006d78: 48 8d 05 61 61 00 00        	lea	rax, [rip + 24929]      ## 0x10000cee0 <dyld_stub_binder+0x10000cee0>
100006d7f: 48 8d 7d a0                 	lea	rdi, [rbp - 96]
100006d83: 4c 89 fe                    	mov	rsi, r15
100006d86: ff 10                       	call	qword ptr [rax]
100006d88: 0f 10 45 a0                 	movups	xmm0, xmmword ptr [rbp - 96]
100006d8c: 0f 10 4d b0                 	movups	xmm1, xmmword ptr [rbp - 80]
100006d90: 0f 29 4d d0                 	movaps	xmmword ptr [rbp - 48], xmm1
100006d94: 0f 29 45 c0                 	movaps	xmmword ptr [rbp - 64], xmm0
100006d98: 48 8d 05 31 62 00 00        	lea	rax, [rip + 25137]      ## 0x10000cfd0 <dyld_stub_binder+0x10000cfd0>
100006d9f: 0f 28 45 c0                 	movaps	xmm0, xmmword ptr [rbp - 64]
100006da3: 0f 28 4d d0                 	movaps	xmm1, xmmword ptr [rbp - 48]
100006da7: 0f 11 4c 24 10              	movups	xmmword ptr [rsp + 16], xmm1
100006dac: 0f 11 04 24                 	movups	xmmword ptr [rsp], xmm0
100006db0: ff 10                       	call	qword ptr [rax]
100006db2: 85 c0                       	test	eax, eax
100006db4: 0f 84 9e 00 00 00           	je	0x100006e58 <__text+0x36d8>
100006dba: 48 8d 3d bd 43 00 00        	lea	rdi, [rip + 17341]      ## 0x10000b17e <dyld_stub_binder+0x10000b17e>
100006dc1: 31 c0                       	xor	eax, eax
100006dc3: e8 58 d4 ff ff              	call	0x100004220 <__text+0xaa0>
100006dc8: 48 8d 05 01 61 00 00        	lea	rax, [rip + 24833]      ## 0x10000ced0 <dyld_stub_binder+0x10000ced0>
100006dcf: 0f 28 45 c0                 	movaps	xmm0, xmmword ptr [rbp - 64]
100006dd3: 0f 28 4d d0                 	movaps	xmm1, xmmword ptr [rbp - 48]
100006dd7: 0f 11 4c 24 10              	movups	xmmword ptr [rsp + 16], xmm1
100006ddc: 0f 11 04 24                 	movups	xmmword ptr [rsp], xmm0
100006de0: ff 10                       	call	qword ptr [rax]
100006de2: eb 23                       	jmp	0x100006e07 <__text+0x3687>
100006de4: 48 8d 3d 59 42 00 00        	lea	rdi, [rip + 16985]      ## 0x10000b044 <dyld_stub_binder+0x10000b044>
100006deb: eb 10                       	jmp	0x100006dfd <__text+0x367d>
100006ded: 48 8d 3d 73 42 00 00        	lea	rdi, [rip + 17011]      ## 0x10000b067 <dyld_stub_binder+0x10000b067>
100006df4: eb 07                       	jmp	0x100006dfd <__text+0x367d>
100006df6: 48 8d 3d a1 42 00 00        	lea	rdi, [rip + 17057]      ## 0x10000b09e <dyld_stub_binder+0x10000b09e>
100006dfd: 45 31 ff                    	xor	r15d, r15d
100006e00: 31 c0                       	xor	eax, eax
100006e02: e8 19 d4 ff ff              	call	0x100004220 <__text+0xaa0>
100006e07: bb ff ff ff ff              	mov	ebx, 4294967295
100006e0c: 4c 89 ff                    	mov	rdi, r15
100006e0f: e8 ec eb ff ff              	call	0x100005a00 <__text+0x2280>
100006e14: 4c 89 f7                    	mov	rdi, r14
100006e17: e8 74 e6 ff ff              	call	0x100005490 <__text+0x1d10>
100006e1c: 89 d8                       	mov	eax, ebx
100006e1e: 48 83 c4 60                 	add	rsp, 96
100006e22: 5b                          	pop	rbx
100006e23: 41 5c                       	pop	r12
100006e25: 41 5e                       	pop	r14
100006e27: 41 5f                       	pop	r15
100006e29: 5d                          	pop	rbp
100006e2a: c3                          	ret
100006e2b: 48 8d 3d b0 42 00 00        	lea	rdi, [rip + 17072]      ## 0x10000b0e2 <dyld_stub_binder+0x10000b0e2>
100006e32: eb cc                       	jmp	0x100006e00 <__text+0x3680>
100006e34: 48 8d 3d c4 42 00 00        	lea	rdi, [rip + 17092]      ## 0x10000b0ff <dyld_stub_binder+0x10000b0ff>
100006e3b: eb c3                       	jmp	0x100006e00 <__text+0x3680>
100006e3d: 48 8d 3d dc 42 00 00        	lea	rdi, [rip + 17116]      ## 0x10000b120 <dyld_stub_binder+0x10000b120>
100006e44: eb ba                       	jmp	0x100006e00 <__text+0x3680>
100006e46: 48 8d 3d f7 42 00 00        	lea	rdi, [rip + 17143]      ## 0x10000b144 <dyld_stub_binder+0x10000b144>
100006e4d: eb b1                       	jmp	0x100006e00 <__text+0x3680>
100006e4f: 48 8d 3d 07 43 00 00        	lea	rdi, [rip + 17159]      ## 0x10000b15d <dyld_stub_binder+0x10000b15d>
100006e56: eb a8                       	jmp	0x100006e00 <__text+0x3680>
100006e58: 31 db                       	xor	ebx, ebx
100006e5a: eb b0                       	jmp	0x100006e0c <__text+0x368c>
100006e5c: 0f 1f 40 00                 	nop	dword ptr [rax]
100006e60: 55                          	push	rbp
100006e61: 48 89 e5                    	mov	rbp, rsp
100006e64: 41 57                       	push	r15
100006e66: 41 56                       	push	r14
100006e68: 41 55                       	push	r13
100006e6a: 41 54                       	push	r12
100006e6c: 53                          	push	rbx
100006e6d: 50                          	push	rax
100006e6e: 4c 8b b7 20 08 00 00        	mov	r14, qword ptr [rdi + 2080]
100006e75: 48 8d 05 7c 61 00 00        	lea	rax, [rip + 24956]      ## 0x10000cff8 <dyld_stub_binder+0x10000cff8>
100006e7c: 48 81 c7 32 08 00 00        	add	rdi, 2098
100006e83: ff 10                       	call	qword ptr [rax]
100006e85: 48 85 c0                    	test	rax, rax
100006e88: 0f 84 fa 00 00 00           	je	0x100006f88 <__text+0x3808>
100006e8e: 48 8d 0d 4b 61 00 00        	lea	rcx, [rip + 24907]      ## 0x10000cfe0 <dyld_stub_binder+0x10000cfe0>
100006e95: 48 8d 3d 35 43 00 00        	lea	rdi, [rip + 17205]      ## 0x10000b1d1 <dyld_stub_binder+0x10000b1d1>
100006e9c: 48 89 c6                    	mov	rsi, rax
100006e9f: ff 11                       	call	qword ptr [rcx]
100006ea1: 49 8b 9e 08 04 00 00        	mov	rbx, qword ptr [r14 + 1032]
100006ea8: 31 c0                       	xor	eax, eax
100006eaa: 49 3b 9e 10 04 00 00        	cmp	rbx, qword ptr [r14 + 1040]
100006eb1: 0f 83 e8 00 00 00           	jae	0x100006f9f <__text+0x381f>
100006eb7: 4c 8d 3d 82 60 00 00        	lea	r15, [rip + 24706]      ## 0x10000cf40 <dyld_stub_binder+0x10000cf40>
100006ebe: eb 24                       	jmp	0x100006ee4 <__text+0x3764>
100006ec0: 4d 85 ed                    	test	r13, r13
100006ec3: 0f 84 cd 00 00 00           	je	0x100006f96 <__text+0x3816>
100006ec9: 4c 89 f7                    	mov	rdi, r14
100006ecc: 48 89 de                    	mov	rsi, rbx
100006ecf: e8 cc c8 ff ff              	call	0x1000037a0 <__text+0x20>
100006ed4: 48 89 c3                    	mov	rbx, rax
100006ed7: 49 3b 86 10 04 00 00        	cmp	rax, qword ptr [r14 + 1040]
100006ede: 0f 83 b9 00 00 00           	jae	0x100006f9d <__text+0x381d>
100006ee4: 0f b6 43 11                 	movzx	eax, byte ptr [rbx + 17]
100006ee8: 0c 20                       	or	al, 32
100006eea: 3c 6d                       	cmp	al, 109
100006eec: 75 db                       	jne	0x100006ec9 <__text+0x3749>
100006eee: 4c 89 f7                    	mov	rdi, r14
100006ef1: 48 89 de                    	mov	rsi, rbx
100006ef4: e8 b7 c8 ff ff              	call	0x1000037b0 <__text+0x30>
100006ef9: 49 89 c4                    	mov	r12, rax
100006efc: 8b 73 0c                    	mov	esi, dword ptr [rbx + 12]
100006eff: 48 89 c7                    	mov	rdi, rax
100006f02: 48 8d 05 77 60 00 00        	lea	rax, [rip + 24695]      ## 0x10000cf80 <dyld_stub_binder+0x10000cf80>
100006f09: ff 10                       	call	qword ptr [rax]
100006f0b: 49 89 c5                    	mov	r13, rax
100006f0e: 4c 89 e7                    	mov	rdi, r12
100006f11: e8 68 28 00 00              	call	0x10000977e <dyld_stub_binder+0x10000977e>
100006f16: 4d 85 ed                    	test	r13, r13
100006f19: 74 35                       	je	0x100006f50 <__text+0x37d0>
100006f1b: 4c 8d 63 12                 	lea	r12, [rbx + 18]
100006f1f: 4c 89 e7                    	mov	rdi, r12
100006f22: 4c 89 ee                    	mov	rsi, r13
100006f25: 48 8d 05 3c 60 00 00        	lea	rax, [rip + 24636]      ## 0x10000cf68 <dyld_stub_binder+0x10000cf68>
100006f2c: ff 10                       	call	qword ptr [rax]
100006f2e: 49 89 c5                    	mov	r13, rax
100006f31: 48 85 c0                    	test	rax, rax
100006f34: 75 2f                       	jne	0x100006f65 <__text+0x37e5>
100006f36: 48 8d 3d cd 42 00 00        	lea	rdi, [rip + 17101]      ## 0x10000b20a <dyld_stub_binder+0x10000b20a>
100006f3d: 4c 89 e6                    	mov	rsi, r12
100006f40: eb 19                       	jmp	0x100006f5b <__text+0x37db>
100006f42: 66 2e 0f 1f 84 00 00 00 00 00       	nop	word ptr cs:[rax + rax]
100006f4c: 0f 1f 40 00                 	nop	dword ptr [rax]
100006f50: 48 8d 73 12                 	lea	rsi, [rbx + 18]
100006f54: 48 8d 3d 7f 42 00 00        	lea	rdi, [rip + 17023]      ## 0x10000b1da <dyld_stub_binder+0x10000b1da>
100006f5b: 31 c0                       	xor	eax, eax
100006f5d: e8 be d2 ff ff              	call	0x100004220 <__text+0xaa0>
100006f62: 45 31 ed                    	xor	r13d, r13d
100006f65: 41 ff 17                    	call	qword ptr [r15]
100006f68: 48 85 c0                    	test	rax, rax
100006f6b: 0f 84 4f ff ff ff           	je	0x100006ec0 <__text+0x3740>
100006f71: 48 8d 05 d0 5f 00 00        	lea	rax, [rip + 24528]      ## 0x10000cf48 <dyld_stub_binder+0x10000cf48>
100006f78: ff 10                       	call	qword ptr [rax]
100006f7a: 48 8d 05 a7 5f 00 00        	lea	rax, [rip + 24487]      ## 0x10000cf28 <dyld_stub_binder+0x10000cf28>
100006f81: ff 10                       	call	qword ptr [rax]
100006f83: e9 38 ff ff ff              	jmp	0x100006ec0 <__text+0x3740>
100006f88: 48 8d 3d 1d 42 00 00        	lea	rdi, [rip + 16925]      ## 0x10000b1ac <dyld_stub_binder+0x10000b1ac>
100006f8f: 31 c0                       	xor	eax, eax
100006f91: e8 8a d2 ff ff              	call	0x100004220 <__text+0xaa0>
100006f96: b8 ff ff ff ff              	mov	eax, 4294967295
100006f9b: eb 02                       	jmp	0x100006f9f <__text+0x381f>
100006f9d: 31 c0                       	xor	eax, eax
100006f9f: 48 83 c4 08                 	add	rsp, 8
100006fa3: 5b                          	pop	rbx
100006fa4: 41 5c                       	pop	r12
100006fa6: 41 5d                       	pop	r13
100006fa8: 41 5e                       	pop	r14
100006faa: 41 5f                       	pop	r15
100006fac: 5d                          	pop	rbp
100006fad: c3                          	ret
100006fae: 66 90                       	nop
100006fb0: 55                          	push	rbp
100006fb1: 48 89 e5                    	mov	rbp, rsp
100006fb4: 41 57                       	push	r15
100006fb6: 41 56                       	push	r14
100006fb8: 41 55                       	push	r13
100006fba: 41 54                       	push	r12
100006fbc: 53                          	push	rbx
100006fbd: 50                          	push	rax
100006fbe: 49 89 f6                    	mov	r14, rsi
100006fc1: 48 89 fb                    	mov	rbx, rdi
100006fc4: 48 8d 05 0d 60 00 00        	lea	rax, [rip + 24589]      ## 0x10000cfd8 <dyld_stub_binder+0x10000cfd8>
100006fcb: 48 8d 3d 57 42 00 00        	lea	rdi, [rip + 16983]      ## 0x10000b229 <dyld_stub_binder+0x10000b229>
100006fd2: ff 10                       	call	qword ptr [rax]
100006fd4: 48 85 c0                    	test	rax, rax
100006fd7: 74 7b                       	je	0x100007054 <__text+0x38d4>
100006fd9: 49 89 c7                    	mov	r15, rax
100006fdc: 48 8d 05 15 60 00 00        	lea	rax, [rip + 24597]      ## 0x10000cff8 <dyld_stub_binder+0x10000cff8>
100006fe3: 48 8d bb 20 04 00 00        	lea	rdi, [rbx + 1056]
100006fea: ff 10                       	call	qword ptr [rax]
100006fec: 49 89 c4                    	mov	r12, rax
100006fef: 48 8b 83 20 08 00 00        	mov	rax, qword ptr [rbx + 2080]
100006ff6: 41 8b 56 04                 	mov	edx, dword ptr [r14 + 4]
100006ffa: 48 03 90 00 04 00 00        	add	rdx, qword ptr [rax + 1024]
100007001: 48 8d 0d f8 5f 00 00        	lea	rcx, [rip + 24568]      ## 0x10000d000 <dyld_stub_binder+0x10000d000>
100007008: 48 8d 3d 4f 42 00 00        	lea	rdi, [rip + 16975]      ## 0x10000b25e <dyld_stub_binder+0x10000b25e>
10000700f: 45 31 f6                    	xor	r14d, r14d
100007012: 4c 89 e6                    	mov	rsi, r12
100007015: 31 c0                       	xor	eax, eax
100007017: ff 11                       	call	qword ptr [rcx]
100007019: 48 89 c3                    	mov	rbx, rax
10000701c: 4c 8d 2d 9d 5e 00 00        	lea	r13, [rip + 24221]      ## 0x10000cec0 <dyld_stub_binder+0x10000cec0>
100007023: 4c 89 e7                    	mov	rdi, r12
100007026: 41 ff 55 00                 	call	qword ptr [r13]
10000702a: 48 8d 05 47 5f 00 00        	lea	rax, [rip + 24391]      ## 0x10000cf78 <dyld_stub_binder+0x10000cf78>
100007031: 4c 89 ff                    	mov	rdi, r15
100007034: 48 89 de                    	mov	rsi, rbx
100007037: ff 10                       	call	qword ptr [rax]
100007039: 41 89 c7                    	mov	r15d, eax
10000703c: 48 89 df                    	mov	rdi, rbx
10000703f: 41 ff 55 00                 	call	qword ptr [r13]
100007043: 45 85 ff                    	test	r15d, r15d
100007046: 74 20                       	je	0x100007068 <__text+0x38e8>
100007048: 48 8d 3d 17 42 00 00        	lea	rdi, [rip + 16919]      ## 0x10000b266 <dyld_stub_binder+0x10000b266>
10000704f: 45 89 fe                    	mov	r14d, r15d
100007052: eb 0d                       	jmp	0x100007061 <__text+0x38e1>
100007054: 41 be ff ff ff ff           	mov	r14d, 4294967295
10000705a: 48 8d 3d cd 41 00 00        	lea	rdi, [rip + 16845]      ## 0x10000b22e <dyld_stub_binder+0x10000b22e>
100007061: 31 c0                       	xor	eax, eax
100007063: e8 b8 d1 ff ff              	call	0x100004220 <__text+0xaa0>
100007068: 44 89 f0                    	mov	eax, r14d
10000706b: 48 83 c4 08                 	add	rsp, 8
10000706f: 5b                          	pop	rbx
100007070: 41 5c                       	pop	r12
100007072: 41 5d                       	pop	r13
100007074: 41 5e                       	pop	r14
100007076: 41 5f                       	pop	r15
100007078: 5d                          	pop	rbp
100007079: c3                          	ret
10000707a: 66 0f 1f 44 00 00           	nop	word ptr [rax + rax]
100007080: 55                          	push	rbp
100007081: 48 89 e5                    	mov	rbp, rsp
100007084: 41 57                       	push	r15
100007086: 41 56                       	push	r14
100007088: 41 55                       	push	r13
10000708a: 41 54                       	push	r12
10000708c: 53                          	push	rbx
10000708d: 48 83 ec 18                 	sub	rsp, 24
100007091: 4c 8b bf 20 08 00 00        	mov	r15, qword ptr [rdi + 2080]
100007098: 49 8b 9f 08 04 00 00        	mov	rbx, qword ptr [r15 + 1032]
10000709f: 31 c0                       	xor	eax, eax
1000070a1: 49 3b 9f 10 04 00 00        	cmp	rbx, qword ptr [r15 + 1040]
1000070a8: 0f 83 ec 00 00 00           	jae	0x10000719a <__text+0x3a1a>
1000070ae: 48 89 7d c8                 	mov	qword ptr [rbp - 56], rdi
1000070b2: 48 8d 87 20 04 00 00        	lea	rax, [rdi + 1056]
1000070b9: 48 89 45 d0                 	mov	qword ptr [rbp - 48], rax
1000070bd: eb 1c                       	jmp	0x1000070db <__text+0x395b>
1000070bf: 90                          	nop
1000070c0: 4c 89 ff                    	mov	rdi, r15
1000070c3: 48 89 de                    	mov	rsi, rbx
1000070c6: e8 d5 c6 ff ff              	call	0x1000037a0 <__text+0x20>
1000070cb: 48 89 c3                    	mov	rbx, rax
1000070ce: 49 3b 87 10 04 00 00        	cmp	rax, qword ptr [r15 + 1040]
1000070d5: 0f 83 a8 00 00 00           	jae	0x100007183 <__text+0x3a03>
1000070db: 80 7b 11 7a                 	cmp	byte ptr [rbx + 17], 122
1000070df: 75 df                       	jne	0x1000070c0 <__text+0x3940>
1000070e1: 48 8d 3d 41 41 00 00        	lea	rdi, [rip + 16705]      ## 0x10000b229 <dyld_stub_binder+0x10000b229>
1000070e8: 48 8d 05 e9 5e 00 00        	lea	rax, [rip + 24297]      ## 0x10000cfd8 <dyld_stub_binder+0x10000cfd8>
1000070ef: ff 10                       	call	qword ptr [rax]
1000070f1: 48 85 c0                    	test	rax, rax
1000070f4: 0f 84 8d 00 00 00           	je	0x100007187 <__text+0x3a07>
1000070fa: 49 89 c5                    	mov	r13, rax
1000070fd: 48 8b 7d d0                 	mov	rdi, qword ptr [rbp - 48]
100007101: 48 8d 05 f0 5e 00 00        	lea	rax, [rip + 24304]      ## 0x10000cff8 <dyld_stub_binder+0x10000cff8>
100007108: ff 10                       	call	qword ptr [rax]
10000710a: 49 89 c4                    	mov	r12, rax
10000710d: 48 8b 45 c8                 	mov	rax, qword ptr [rbp - 56]
100007111: 48 8b 80 20 08 00 00        	mov	rax, qword ptr [rax + 2080]
100007118: 8b 53 04                    	mov	edx, dword ptr [rbx + 4]
10000711b: 48 03 90 00 04 00 00        	add	rdx, qword ptr [rax + 1024]
100007122: 48 8d 3d 35 41 00 00        	lea	rdi, [rip + 16693]      ## 0x10000b25e <dyld_stub_binder+0x10000b25e>
100007129: 4c 89 e6                    	mov	rsi, r12
10000712c: 31 c0                       	xor	eax, eax
10000712e: 48 8d 0d cb 5e 00 00        	lea	rcx, [rip + 24267]      ## 0x10000d000 <dyld_stub_binder+0x10000d000>
100007135: ff 11                       	call	qword ptr [rcx]
100007137: 49 89 c6                    	mov	r14, rax
10000713a: 4c 89 e7                    	mov	rdi, r12
10000713d: 4c 8d 25 7c 5d 00 00        	lea	r12, [rip + 23932]      ## 0x10000cec0 <dyld_stub_binder+0x10000cec0>
100007144: 41 ff 14 24                 	call	qword ptr [r12]
100007148: 4c 89 ef                    	mov	rdi, r13
10000714b: 4c 89 f6                    	mov	rsi, r14
10000714e: 48 8d 05 23 5e 00 00        	lea	rax, [rip + 24099]      ## 0x10000cf78 <dyld_stub_binder+0x10000cf78>
100007155: ff 10                       	call	qword ptr [rax]
100007157: 41 89 c5                    	mov	r13d, eax
10000715a: 4c 89 f7                    	mov	rdi, r14
10000715d: 41 ff 14 24                 	call	qword ptr [r12]
100007161: 45 85 ed                    	test	r13d, r13d
100007164: 0f 84 56 ff ff ff           	je	0x1000070c0 <__text+0x3940>
10000716a: 48 8d 3d f5 40 00 00        	lea	rdi, [rip + 16629]      ## 0x10000b266 <dyld_stub_binder+0x10000b266>
100007171: 31 c0                       	xor	eax, eax
100007173: e8 a8 d0 ff ff              	call	0x100004220 <__text+0xaa0>
100007178: 45 85 ed                    	test	r13d, r13d
10000717b: 0f 89 3f ff ff ff           	jns	0x1000070c0 <__text+0x3940>
100007181: eb 12                       	jmp	0x100007195 <__text+0x3a15>
100007183: 31 c0                       	xor	eax, eax
100007185: eb 13                       	jmp	0x10000719a <__text+0x3a1a>
100007187: 48 8d 3d a0 40 00 00        	lea	rdi, [rip + 16544]      ## 0x10000b22e <dyld_stub_binder+0x10000b22e>
10000718e: 31 c0                       	xor	eax, eax
100007190: e8 8b d0 ff ff              	call	0x100004220 <__text+0xaa0>
100007195: b8 ff ff ff ff              	mov	eax, 4294967295
10000719a: 48 83 c4 18                 	add	rsp, 24
10000719e: 5b                          	pop	rbx
10000719f: 41 5c                       	pop	r12
1000071a1: 41 5d                       	pop	r13
1000071a3: 41 5e                       	pop	r14
1000071a5: 41 5f                       	pop	r15
1000071a7: 5d                          	pop	rbp
1000071a8: c3                          	ret
1000071a9: 0f 1f 80 00 00 00 00        	nop	dword ptr [rax]
1000071b0: 55                          	push	rbp
1000071b1: 48 89 e5                    	mov	rbp, rsp
1000071b4: 53                          	push	rbx
1000071b5: 50                          	push	rax
1000071b6: 80 bf 40 0c 00 00 00        	cmp	byte ptr [rdi + 3136], 0
1000071bd: 74 39                       	je	0x1000071f8 <__text+0x3a78>
1000071bf: 48 8d 05 22 5d 00 00        	lea	rax, [rip + 23842]      ## 0x10000cee8 <dyld_stub_binder+0x10000cee8>
1000071c6: ff 10                       	call	qword ptr [rax]
1000071c8: 85 c0                       	test	eax, eax
1000071ca: 74 2c                       	je	0x1000071f8 <__text+0x3a78>
1000071cc: 48 8d 1d f5 5d 00 00        	lea	rbx, [rip + 24053]      ## 0x10000cfc8 <dyld_stub_binder+0x10000cfc8>
1000071d3: 48 8d 3d b5 40 00 00        	lea	rdi, [rip + 16565]      ## 0x10000b28f <dyld_stub_binder+0x10000b28f>
1000071da: 31 f6                       	xor	esi, esi
1000071dc: ff 13                       	call	qword ptr [rbx]
1000071de: 48 8d 3d 2b 41 00 00        	lea	rdi, [rip + 16683]      ## 0x10000b310 <dyld_stub_binder+0x10000b310>
1000071e5: 31 f6                       	xor	esi, esi
1000071e7: ff 13                       	call	qword ptr [rbx]
1000071e9: 48 8d 05 e8 5c 00 00        	lea	rax, [rip + 23784]      ## 0x10000ced8 <dyld_stub_binder+0x10000ced8>
1000071f0: 48 83 c4 08                 	add	rsp, 8
1000071f4: 5b                          	pop	rbx
1000071f5: 5d                          	pop	rbp
1000071f6: ff 20                       	jmp	qword ptr [rax]
1000071f8: 48 83 c4 08                 	add	rsp, 8
1000071fc: 5b                          	pop	rbx
1000071fd: 5d                          	pop	rbp
1000071fe: c3                          	ret
1000071ff: 90                          	nop
100007200: 55                          	push	rbp
100007201: 48 89 e5                    	mov	rbp, rsp
100007204: 41 57                       	push	r15
100007206: 41 56                       	push	r14
100007208: 41 55                       	push	r13
10000720a: 41 54                       	push	r12
10000720c: 53                          	push	rbx
10000720d: 50                          	push	rax
10000720e: 48 8b 9e 20 08 00 00        	mov	rbx, qword ptr [rsi + 2080]
100007215: 48 8b 83 08 04 00 00        	mov	rax, qword ptr [rbx + 1032]
10000721c: 41 bc ff ff ff ff           	mov	r12d, 4294967295
100007222: 48 3b 83 10 04 00 00        	cmp	rax, qword ptr [rbx + 1040]
100007229: 0f 83 95 01 00 00           	jae	0x1000073c4 <__text+0x3c44>
10000722f: 49 89 f5                    	mov	r13, rsi
100007232: 49 89 ff                    	mov	r15, rdi
100007235: 66 2e 0f 1f 84 00 00 00 00 00       	nop	word ptr cs:[rax + rax]
10000723f: 90                          	nop
100007240: 80 78 11 6c                 	cmp	byte ptr [rax + 17], 108
100007244: 74 19                       	je	0x10000725f <__text+0x3adf>
100007246: 48 89 df                    	mov	rdi, rbx
100007249: 48 89 c6                    	mov	rsi, rax
10000724c: e8 4f c5 ff ff              	call	0x1000037a0 <__text+0x20>
100007251: 48 3b 83 10 04 00 00        	cmp	rax, qword ptr [rbx + 1040]
100007258: 72 e6                       	jb	0x100007240 <__text+0x3ac0>
10000725a: e9 65 01 00 00              	jmp	0x1000073c4 <__text+0x3c44>
10000725f: 48 89 df                    	mov	rdi, rbx
100007262: 48 89 c6                    	mov	rsi, rax
100007265: e8 46 c5 ff ff              	call	0x1000037b0 <__text+0x30>
10000726a: 48 85 c0                    	test	rax, rax
10000726d: 0f 84 51 01 00 00           	je	0x1000073c4 <__text+0x3c44>
100007273: 49 89 c6                    	mov	r14, rax
100007276: 49 8d 7f 48                 	lea	rdi, [r15 + 72]
10000727a: 49 81 c5 32 08 00 00        	add	r13, 2098
100007281: 4c 89 ee                    	mov	rsi, r13
100007284: 48 89 c2                    	mov	rdx, rax
100007287: e8 f4 e0 ff ff              	call	0x100005380 <__text+0x1c00>
10000728c: 48 85 c0                    	test	rax, rax
10000728f: 0f 84 07 01 00 00           	je	0x10000739c <__text+0x3c1c>
100007295: 49 8d bf 48 04 00 00        	lea	rdi, [r15 + 1096]
10000729c: 49 8d 56 10                 	lea	rdx, [r14 + 16]
1000072a0: 4c 89 ee                    	mov	rsi, r13
1000072a3: e8 d8 e0 ff ff              	call	0x100005380 <__text+0x1c00>
1000072a8: 48 85 c0                    	test	rax, rax
1000072ab: 0f 84 f4 00 00 00           	je	0x1000073a5 <__text+0x3c25>
1000072b1: 49 8d bf 48 08 00 00        	lea	rdi, [r15 + 2120]
1000072b8: 49 8d 56 20                 	lea	rdx, [r14 + 32]
1000072bc: 4c 89 ee                    	mov	rsi, r13
1000072bf: e8 bc e0 ff ff              	call	0x100005380 <__text+0x1c00>
1000072c4: 48 85 c0                    	test	rax, rax
1000072c7: 0f 84 d8 00 00 00           	je	0x1000073a5 <__text+0x3c25>
1000072cd: 45 8b 6e 30                 	mov	r13d, dword ptr [r14 + 48]
1000072d1: 41 0f cd                    	bswap	r13d
1000072d4: 45 89 af 50 0c 00 00        	mov	dword ptr [r15 + 3152], r13d
1000072db: 41 8d 45 01                 	lea	eax, [r13 + 1]
1000072df: 48 63 f0                    	movsxd	rsi, eax
1000072e2: bf 01 00 00 00              	mov	edi, 1
1000072e7: e8 20 24 00 00              	call	0x10000970c <dyld_stub_binder+0x10000970c>
1000072ec: 48 89 c3                    	mov	rbx, rax
1000072ef: 49 89 87 48 0c 00 00        	mov	qword ptr [r15 + 3144], rax
1000072f6: 41 8b 46 38                 	mov	eax, dword ptr [r14 + 56]
1000072fa: 0f c8                       	bswap	eax
1000072fc: 41 89 87 60 0c 00 00        	mov	dword ptr [r15 + 3168], eax
100007303: 48 63 f8                    	movsxd	rdi, eax
100007306: e8 b5 24 00 00              	call	0x1000097c0 <dyld_stub_binder+0x1000097c0>
10000730b: 48 89 45 d0                 	mov	qword ptr [rbp - 48], rax
10000730f: 49 89 87 58 0c 00 00        	mov	qword ptr [r15 + 3160], rax
100007316: 41 8b 46 40                 	mov	eax, dword ptr [r14 + 64]
10000731a: 0f c8                       	bswap	eax
10000731c: 41 89 87 70 0c 00 00        	mov	dword ptr [r15 + 3184], eax
100007323: 48 63 f8                    	movsxd	rdi, eax
100007326: e8 95 24 00 00              	call	0x1000097c0 <dyld_stub_binder+0x1000097c0>
10000732b: 49 89 87 68 0c 00 00        	mov	qword ptr [r15 + 3176], rax
100007332: 48 85 db                    	test	rbx, rbx
100007335: 74 77                       	je	0x1000073ae <__text+0x3c2e>
100007337: 48 83 7d d0 00              	cmp	qword ptr [rbp - 48], 0
10000733c: 74 70                       	je	0x1000073ae <__text+0x3c2e>
10000733e: 48 85 c0                    	test	rax, rax
100007341: 74 6b                       	je	0x1000073ae <__text+0x3c2e>
100007343: 41 8b 76 34                 	mov	esi, dword ptr [r14 + 52]
100007347: 0f ce                       	bswap	esi
100007349: 4c 01 f6                    	add	rsi, r14
10000734c: 49 63 d5                    	movsxd	rdx, r13d
10000734f: 48 89 df                    	mov	rdi, rbx
100007352: e8 7b 24 00 00              	call	0x1000097d2 <dyld_stub_binder+0x1000097d2>
100007357: 49 8b bf 58 0c 00 00        	mov	rdi, qword ptr [r15 + 3160]
10000735e: 41 8b 76 3c                 	mov	esi, dword ptr [r14 + 60]
100007362: 0f ce                       	bswap	esi
100007364: 4c 01 f6                    	add	rsi, r14
100007367: 49 63 97 60 0c 00 00        	movsxd	rdx, dword ptr [r15 + 3168]
10000736e: e8 5f 24 00 00              	call	0x1000097d2 <dyld_stub_binder+0x1000097d2>
100007373: 49 8b bf 68 0c 00 00        	mov	rdi, qword ptr [r15 + 3176]
10000737a: 41 8b 76 44                 	mov	esi, dword ptr [r14 + 68]
10000737e: 0f ce                       	bswap	esi
100007380: 4c 01 f6                    	add	rsi, r14
100007383: 49 63 97 70 0c 00 00        	movsxd	rdx, dword ptr [r15 + 3184]
10000738a: e8 43 24 00 00              	call	0x1000097d2 <dyld_stub_binder+0x1000097d2>
10000738f: 4c 89 f7                    	mov	rdi, r14
100007392: e8 e7 23 00 00              	call	0x10000977e <dyld_stub_binder+0x10000977e>
100007397: 45 31 e4                    	xor	r12d, r12d
10000739a: eb 28                       	jmp	0x1000073c4 <__text+0x3c44>
10000739c: 48 8d 3d ee 3f 00 00        	lea	rdi, [rip + 16366]      ## 0x10000b391 <dyld_stub_binder+0x10000b391>
1000073a3: eb 10                       	jmp	0x1000073b5 <__text+0x3c35>
1000073a5: 48 8d 3d 2d 40 00 00        	lea	rdi, [rip + 16429]      ## 0x10000b3d9 <dyld_stub_binder+0x10000b3d9>
1000073ac: eb 07                       	jmp	0x1000073b5 <__text+0x3c35>
1000073ae: 48 8d 3d 6b 40 00 00        	lea	rdi, [rip + 16491]      ## 0x10000b420 <dyld_stub_binder+0x10000b420>
1000073b5: 31 c0                       	xor	eax, eax
1000073b7: e8 64 ce ff ff              	call	0x100004220 <__text+0xaa0>
1000073bc: 4c 89 f7                    	mov	rdi, r14
1000073bf: e8 ba 23 00 00              	call	0x10000977e <dyld_stub_binder+0x10000977e>
1000073c4: 44 89 e0                    	mov	eax, r12d
1000073c7: 48 83 c4 08                 	add	rsp, 8
1000073cb: 5b                          	pop	rbx
1000073cc: 41 5c                       	pop	r12
1000073ce: 41 5d                       	pop	r13
1000073d0: 41 5e                       	pop	r14
1000073d2: 41 5f                       	pop	r15
1000073d4: 5d                          	pop	rbp
1000073d5: c3                          	ret
1000073d6: 66 2e 0f 1f 84 00 00 00 00 00       	nop	word ptr cs:[rax + rax]
1000073e0: 55                          	push	rbp
1000073e1: 48 89 e5                    	mov	rbp, rsp
1000073e4: 41 57                       	push	r15
1000073e6: 41 56                       	push	r14
1000073e8: 41 54                       	push	r12
1000073ea: 53                          	push	rbx
1000073eb: 49 89 f7                    	mov	r15, rsi
1000073ee: 48 89 fb                    	mov	rbx, rdi
1000073f1: 4c 8d 25 70 5c 00 00        	lea	r12, [rip + 23664]      ## 0x10000d068 <dyld_stub_binder+0x10000d068>
1000073f8: 41 ff 14 24                 	call	qword ptr [r12]
1000073fc: 41 be ff ff ff ff           	mov	r14d, 4294967295
100007402: 80 bb 74 0c 00 00 00        	cmp	byte ptr [rbx + 3188], 0
100007409: 0f 84 92 00 00 00           	je	0x1000074a1 <__text+0x3d21>
10000740f: 48 8d 05 1a 5c 00 00        	lea	rax, [rip + 23578]      ## 0x10000d030 <dyld_stub_binder+0x10000d030>
100007416: 4c 89 ff                    	mov	rdi, r15
100007419: ff 10                       	call	qword ptr [rax]
10000741b: 48 8d 05 36 5c 00 00        	lea	rax, [rip + 23606]      ## 0x10000d058 <dyld_stub_binder+0x10000d058>
100007422: 48 8d 7b 40                 	lea	rdi, [rbx + 64]
100007426: 48 8d 35 83 00 00 00        	lea	rsi, [rip + 131]        ## 0x1000074b0 <__text+0x3d30>
10000742d: 48 89 da                    	mov	rdx, rbx
100007430: 31 c9                       	xor	ecx, ecx
100007432: 45 31 c0                    	xor	r8d, r8d
100007435: ff 10                       	call	qword ptr [rax]
100007437: 85 c0                       	test	eax, eax
100007439: 74 24                       	je	0x10000745f <__text+0x3cdf>
10000743b: 48 8d 3d 16 40 00 00        	lea	rdi, [rip + 16406]      ## 0x10000b458 <dyld_stub_binder+0x10000b458>
100007442: 31 c0                       	xor	eax, eax
100007444: e8 d7 cd ff ff              	call	0x100004220 <__text+0xaa0>
100007449: 48 8d 05 20 5c 00 00        	lea	rax, [rip + 23584]      ## 0x10000d070 <dyld_stub_binder+0x10000d070>
100007450: 48 89 df                    	mov	rdi, rbx
100007453: ff 10                       	call	qword ptr [rax]
100007455: 48 89 df                    	mov	rdi, rbx
100007458: e8 a3 02 00 00              	call	0x100007700 <__text+0x3f80>
10000745d: eb 42                       	jmp	0x1000074a1 <__text+0x3d21>
10000745f: 4c 8d 73 10                 	lea	r14, [rbx + 16]
100007463: 4c 89 f7                    	mov	rdi, r14
100007466: 41 ff 14 24                 	call	qword ptr [r12]
10000746a: 4c 8d 3d ff 5b 00 00        	lea	r15, [rip + 23551]      ## 0x10000d070 <dyld_stub_binder+0x10000d070>
100007471: 48 89 df                    	mov	rdi, rbx
100007474: 41 ff 17                    	call	qword ptr [r15]
100007477: 48 8d 05 0a 5c 00 00        	lea	rax, [rip + 23562]      ## 0x10000d088 <dyld_stub_binder+0x10000d088>
10000747e: 48 83 c3 18                 	add	rbx, 24
100007482: 48 89 df                    	mov	rdi, rbx
100007485: 4c 89 f6                    	mov	rsi, r14
100007488: 31 d2                       	xor	edx, edx
10000748a: ff 10                       	call	qword ptr [rax]
10000748c: 4c 89 f7                    	mov	rdi, r14
10000748f: 41 ff 17                    	call	qword ptr [r15]
100007492: 48 8d 05 df 5b 00 00        	lea	rax, [rip + 23519]      ## 0x10000d078 <dyld_stub_binder+0x10000d078>
100007499: 48 89 df                    	mov	rdi, rbx
10000749c: ff 10                       	call	qword ptr [rax]
10000749e: 45 31 f6                    	xor	r14d, r14d
1000074a1: 44 89 f0                    	mov	eax, r14d
1000074a4: 5b                          	pop	rbx
1000074a5: 41 5c                       	pop	r12
1000074a7: 41 5e                       	pop	r14
1000074a9: 41 5f                       	pop	r15
1000074ab: 5d                          	pop	rbp
1000074ac: c3                          	ret
1000074ad: 0f 1f 00                    	nop	dword ptr [rax]
1000074b0: 55                          	push	rbp
1000074b1: 48 89 e5                    	mov	rbp, rsp
1000074b4: 41 57                       	push	r15
1000074b6: 41 56                       	push	r14
1000074b8: 41 55                       	push	r13
1000074ba: 41 54                       	push	r12
1000074bc: 53                          	push	rbx
1000074bd: 50                          	push	rax
1000074be: 48 89 fb                    	mov	rbx, rdi
1000074c1: 48 8d 05 a0 5b 00 00        	lea	rax, [rip + 23456]      ## 0x10000d068 <dyld_stub_binder+0x10000d068>
1000074c8: ff 10                       	call	qword ptr [rax]
1000074ca: c6 43 30 00                 	mov	byte ptr [rbx + 48], 0
1000074ce: 48 8d 05 53 5b 00 00        	lea	rax, [rip + 23379]      ## 0x10000d028 <dyld_stub_binder+0x10000d028>
1000074d5: ff 10                       	call	qword ptr [rax]
1000074d7: 48 89 43 38                 	mov	qword ptr [rbx + 56], rax
1000074db: 48 83 7b 40 00              	cmp	qword ptr [rbx + 64], 0
1000074e0: 75 11                       	jne	0x1000074f3 <__text+0x3d73>
1000074e2: 48 8d 05 77 5b 00 00        	lea	rax, [rip + 23415]      ## 0x10000d060 <dyld_stub_binder+0x10000d060>
1000074e9: ff 10                       	call	qword ptr [rax]
1000074eb: 48 89 43 40                 	mov	qword ptr [rbx + 64], rax
1000074ef: 48 8b 43 38                 	mov	rax, qword ptr [rbx + 56]
1000074f3: 4c 8d 2d b6 5b 00 00        	lea	r13, [rip + 23478]      ## 0x10000d0b0 <dyld_stub_binder+0x10000d0b0>
1000074fa: 48 8d 35 3b 41 00 00        	lea	rsi, [rip + 16699]      ## 0x10000b63c <dyld_stub_binder+0x10000b63c>
100007501: 48 8d 15 28 09 00 00        	lea	rdx, [rip + 2344]       ## 0x100007e30 <__text+0x46b0>
100007508: 48 89 c7                    	mov	rdi, rax
10000750b: 48 89 d9                    	mov	rcx, rbx
10000750e: 45 31 c0                    	xor	r8d, r8d
100007511: 41 ff 55 00                 	call	qword ptr [r13]
100007515: 49 89 c6                    	mov	r14, rax
100007518: 48 8b 7b 38                 	mov	rdi, qword ptr [rbx + 56]
10000751c: 48 8d 35 21 41 00 00        	lea	rsi, [rip + 16673]      ## 0x10000b644 <dyld_stub_binder+0x10000b644>
100007523: 48 8d 15 16 09 00 00        	lea	rdx, [rip + 2326]       ## 0x100007e40 <__text+0x46c0>
10000752a: 48 89 d9                    	mov	rcx, rbx
10000752d: 45 31 c0                    	xor	r8d, r8d
100007530: 41 ff 55 00                 	call	qword ptr [r13]
100007534: 49 89 c7                    	mov	r15, rax
100007537: 48 8b 7b 38                 	mov	rdi, qword ptr [rbx + 56]
10000753b: 48 8d 35 12 41 00 00        	lea	rsi, [rip + 16658]      ## 0x10000b654 <dyld_stub_binder+0x10000b654>
100007542: 48 8d 15 c7 09 00 00        	lea	rdx, [rip + 2503]       ## 0x100007f10 <__text+0x4790>
100007549: 48 89 d9                    	mov	rcx, rbx
10000754c: 45 31 c0                    	xor	r8d, r8d
10000754f: 41 ff 55 00                 	call	qword ptr [r13]
100007553: 49 89 c4                    	mov	r12, rax
100007556: 48 8d 05 8b 5b 00 00        	lea	rax, [rip + 23435]      ## 0x10000d0e8 <dyld_stub_binder+0x10000d0e8>
10000755d: 48 8b 7b 38                 	mov	rdi, qword ptr [rbx + 56]
100007561: 48 8d 35 f1 40 00 00        	lea	rsi, [rip + 16625]      ## 0x10000b659 <dyld_stub_binder+0x10000b659>
100007568: ba ff ff ff ff              	mov	edx, 4294967295
10000756d: 31 c9                       	xor	ecx, ecx
10000756f: ff 10                       	call	qword ptr [rax]
100007571: 48 8b 7b 38                 	mov	rdi, qword ptr [rbx + 56]
100007575: 48 8d 35 f7 40 00 00        	lea	rsi, [rip + 16631]      ## 0x10000b673 <dyld_stub_binder+0x10000b673>
10000757c: 48 8d 15 9d 09 00 00        	lea	rdx, [rip + 2461]       ## 0x100007f20 <__text+0x47a0>
100007583: 48 89 d9                    	mov	rcx, rbx
100007586: 45 31 c0                    	xor	r8d, r8d
100007589: 41 ff 55 00                 	call	qword ptr [r13]
10000758d: 4d 85 f6                    	test	r14, r14
100007590: 4c 8d 2d d1 5a 00 00        	lea	r13, [rip + 23249]      ## 0x10000d068 <dyld_stub_binder+0x10000d068>
100007597: 74 31                       	je	0x1000075ca <__text+0x3e4a>
100007599: 4d 85 ff                    	test	r15, r15
10000759c: 74 2c                       	je	0x1000075ca <__text+0x3e4a>
10000759e: 4d 85 e4                    	test	r12, r12
1000075a1: 74 27                       	je	0x1000075ca <__text+0x3e4a>
1000075a3: 48 85 c0                    	test	rax, rax
1000075a6: 74 22                       	je	0x1000075ca <__text+0x3e4a>
1000075a8: 48 8d 05 71 5a 00 00        	lea	rax, [rip + 23153]      ## 0x10000d020 <dyld_stub_binder+0x10000d020>
1000075af: 48 8b 7b 38                 	mov	rdi, qword ptr [rbx + 56]
1000075b3: ff 10                       	call	qword ptr [rax]
1000075b5: 41 89 c6                    	mov	r14d, eax
1000075b8: 48 8d 05 49 5b 00 00        	lea	rax, [rip + 23369]      ## 0x10000d108 <dyld_stub_binder+0x10000d108>
1000075bf: 48 8b 7b 38                 	mov	rdi, qword ptr [rbx + 56]
1000075c3: ff 10                       	call	qword ptr [rax]
1000075c5: 44 09 f0                    	or	eax, r14d
1000075c8: 74 6a                       	je	0x100007634 <__text+0x3eb4>
1000075ca: 48 89 df                    	mov	rdi, rbx
1000075cd: e8 2e 01 00 00              	call	0x100007700 <__text+0x3f80>
1000075d2: 4c 8d 25 97 5a 00 00        	lea	r12, [rip + 23191]      ## 0x10000d070 <dyld_stub_binder+0x10000d070>
1000075d9: 48 89 df                    	mov	rdi, rbx
1000075dc: 41 ff 14 24                 	call	qword ptr [r12]
1000075e0: 4c 8d 73 10                 	lea	r14, [rbx + 16]
1000075e4: 4c 89 f7                    	mov	rdi, r14
1000075e7: 41 ff 55 00                 	call	qword ptr [r13]
1000075eb: 4c 8d 3d 8e 5a 00 00        	lea	r15, [rip + 23182]      ## 0x10000d080 <dyld_stub_binder+0x10000d080>
1000075f2: 48 8d 7b 18                 	lea	rdi, [rbx + 24]
1000075f6: 41 ff 17                    	call	qword ptr [r15]
1000075f9: 4c 89 f7                    	mov	rdi, r14
1000075fc: 41 ff 14 24                 	call	qword ptr [r12]
100007600: 48 8d 05 41 5a 00 00        	lea	rax, [rip + 23105]      ## 0x10000d048 <dyld_stub_binder+0x10000d048>
100007607: ff 10                       	call	qword ptr [rax]
100007609: 4c 8d 73 28                 	lea	r14, [rbx + 40]
10000760d: 4c 89 f7                    	mov	rdi, r14
100007610: 41 ff 55 00                 	call	qword ptr [r13]
100007614: 48 83 c3 20                 	add	rbx, 32
100007618: 48 89 df                    	mov	rdi, rbx
10000761b: 41 ff 17                    	call	qword ptr [r15]
10000761e: 4c 89 f7                    	mov	rdi, r14
100007621: 4c 89 e0                    	mov	rax, r12
100007624: 48 83 c4 08                 	add	rsp, 8
100007628: 5b                          	pop	rbx
100007629: 41 5c                       	pop	r12
10000762b: 41 5d                       	pop	r13
10000762d: 41 5e                       	pop	r14
10000762f: 41 5f                       	pop	r15
100007631: 5d                          	pop	rbp
100007632: ff 20                       	jmp	qword ptr [rax]
100007634: 48 8d 05 8d 5a 00 00        	lea	rax, [rip + 23181]      ## 0x10000d0c8 <dyld_stub_binder+0x10000d0c8>
10000763b: 48 8b bb 58 0c 00 00        	mov	rdi, qword ptr [rbx + 3160]
100007642: 8b b3 60 0c 00 00           	mov	esi, dword ptr [rbx + 3168]
100007648: ff 10                       	call	qword ptr [rax]
10000764a: 4c 8d 0d 7f 5a 00 00        	lea	r9, [rip + 23167]       ## 0x10000d0d0 <dyld_stub_binder+0x10000d0d0>
100007651: 48 8b 7b 38                 	mov	rdi, qword ptr [rbx + 56]
100007655: 48 8d 35 1e 40 00 00        	lea	rsi, [rip + 16414]      ## 0x10000b67a <dyld_stub_binder+0x10000b67a>
10000765c: 31 d2                       	xor	edx, edx
10000765e: 48 89 c1                    	mov	rcx, rax
100007661: 41 b8 01 00 00 00           	mov	r8d, 1
100007667: 41 ff 11                    	call	qword ptr [r9]
10000766a: 48 8b bb 58 0c 00 00        	mov	rdi, qword ptr [rbx + 3160]
100007671: e8 08 21 00 00              	call	0x10000977e <dyld_stub_binder+0x10000977e>
100007676: 48 c7 83 58 0c 00 00 00 00 00 00    	mov	qword ptr [rbx + 3160], 0
100007681: 48 8b 7b 38                 	mov	rdi, qword ptr [rbx + 56]
100007685: 48 8b b3 48 0c 00 00        	mov	rsi, qword ptr [rbx + 3144]
10000768c: 8b 93 50 0c 00 00           	mov	edx, dword ptr [rbx + 3152]
100007692: b9 01 00 00 00              	mov	ecx, 1
100007697: 48 8d 05 4a 5a 00 00        	lea	rax, [rip + 23114]      ## 0x10000d0e8 <dyld_stub_binder+0x10000d0e8>
10000769e: ff 10                       	call	qword ptr [rax]
1000076a0: 4c 8d 73 10                 	lea	r14, [rbx + 16]
1000076a4: 4c 89 f7                    	mov	rdi, r14
1000076a7: 41 ff 55 00                 	call	qword ptr [r13]
1000076ab: 48 8d 05 ce 59 00 00        	lea	rax, [rip + 22990]      ## 0x10000d080 <dyld_stub_binder+0x10000d080>
1000076b2: 48 8d 7b 18                 	lea	rdi, [rbx + 24]
1000076b6: ff 10                       	call	qword ptr [rax]
1000076b8: 48 8d 05 b1 59 00 00        	lea	rax, [rip + 22961]      ## 0x10000d070 <dyld_stub_binder+0x10000d070>
1000076bf: 4c 89 f7                    	mov	rdi, r14
1000076c2: ff 10                       	call	qword ptr [rax]
1000076c4: 4c 8d 35 45 5a 00 00        	lea	r14, [rip + 23109]      ## 0x10000d110 <dyld_stub_binder+0x10000d110>
1000076cb: 41 ff 16                    	call	qword ptr [r14]
1000076ce: 85 c0                       	test	eax, eax
1000076d0: 0f 8e f4 fe ff ff           	jle	0x1000075ca <__text+0x3e4a>
1000076d6: 4c 8d 3d 5b 59 00 00        	lea	r15, [rip + 22875]      ## 0x10000d038 <dyld_stub_binder+0x10000d038>
1000076dd: 0f 1f 00                    	nop	dword ptr [rax]
1000076e0: 80 7b 30 00                 	cmp	byte ptr [rbx + 48], 0
1000076e4: 0f 85 e0 fe ff ff           	jne	0x1000075ca <__text+0x3e4a>
1000076ea: 31 ff                       	xor	edi, edi
1000076ec: 41 ff 17                    	call	qword ptr [r15]
1000076ef: 41 ff 16                    	call	qword ptr [r14]
1000076f2: 85 c0                       	test	eax, eax
1000076f4: 7f ea                       	jg	0x1000076e0 <__text+0x3f60>
1000076f6: e9 cf fe ff ff              	jmp	0x1000075ca <__text+0x3e4a>
1000076fb: 0f 1f 44 00 00              	nop	dword ptr [rax + rax]
100007700: 55                          	push	rbp
100007701: 48 89 e5                    	mov	rbp, rsp
100007704: 41 57                       	push	r15
100007706: 41 56                       	push	r14
100007708: 41 55                       	push	r13
10000770a: 41 54                       	push	r12
10000770c: 53                          	push	rbx
10000770d: 48 83 ec 18                 	sub	rsp, 24
100007711: 48 85 ff                    	test	rdi, rdi
100007714: 0f 84 35 01 00 00           	je	0x10000784f <__text+0x40cf>
10000771a: 48 89 fb                    	mov	rbx, rdi
10000771d: 80 bf 74 0c 00 00 01        	cmp	byte ptr [rdi + 3188], 1
100007724: 0f 85 ed 00 00 00           	jne	0x100007817 <__text+0x4097>
10000772a: 4c 8b 73 40                 	mov	r14, qword ptr [rbx + 64]
10000772e: 48 8d 05 2b 59 00 00        	lea	rax, [rip + 22827]      ## 0x10000d060 <dyld_stub_binder+0x10000d060>
100007735: ff 10                       	call	qword ptr [rax]
100007737: 48 8b 7b 38                 	mov	rdi, qword ptr [rbx + 56]
10000773b: 49 39 c6                    	cmp	r14, rax
10000773e: 0f 84 1c 01 00 00           	je	0x100007860 <__text+0x40e0>
100007744: 48 85 ff                    	test	rdi, rdi
100007747: 0f 84 c1 00 00 00           	je	0x10000780e <__text+0x408e>
10000774d: 4c 8d 2d 14 59 00 00        	lea	r13, [rip + 22804]      ## 0x10000d068 <dyld_stub_binder+0x10000d068>
100007754: 4c 8d 73 28                 	lea	r14, [rbx + 40]
100007758: 4c 89 f7                    	mov	rdi, r14
10000775b: 41 ff 55 00                 	call	qword ptr [r13]
10000775f: c6 43 30 01                 	mov	byte ptr [rbx + 48], 1
100007763: c7 45 d4 00 00 00 00        	mov	dword ptr [rbp - 44], 0
10000776a: 48 c7 45 c8 00 00 00 00     	mov	qword ptr [rbp - 56], 0
100007772: 48 8d 05 7f 59 00 00        	lea	rax, [rip + 22911]      ## 0x10000d0f8 <dyld_stub_binder+0x10000d0f8>
100007779: bf 40 00 00 00              	mov	edi, 64
10000777e: ff 10                       	call	qword ptr [rax]
100007780: 49 89 c7                    	mov	r15, rax
100007783: 48 8d 05 26 06 00 00        	lea	rax, [rip + 1574]       ## 0x100007db0 <__text+0x4630>
10000778a: 49 89 07                    	mov	qword ptr [r15], rax
10000778d: 49 89 5f 10                 	mov	qword ptr [r15 + 16], rbx
100007791: 41 c6 47 18 01              	mov	byte ptr [r15 + 24], 1
100007796: 48 8d 45 c8                 	lea	rax, [rbp - 56]
10000779a: 49 89 47 20                 	mov	qword ptr [r15 + 32], rax
10000779e: 48 8d 45 d4                 	lea	rax, [rbp - 44]
1000077a2: 49 89 47 28                 	mov	qword ptr [r15 + 40], rax
1000077a6: 4c 8d 63 08                 	lea	r12, [rbx + 8]
1000077aa: 0f 57 c0                    	xorps	xmm0, xmm0
1000077ad: 41 0f 11 47 30              	movups	xmmword ptr [r15 + 48], xmm0
1000077b2: 4c 89 e7                    	mov	rdi, r12
1000077b5: 41 ff 55 00                 	call	qword ptr [r13]
1000077b9: 48 8d 05 d0 58 00 00        	lea	rax, [rip + 22736]      ## 0x10000d090 <dyld_stub_binder+0x10000d090>
1000077c0: 48 8b 7b 40                 	mov	rdi, qword ptr [rbx + 64]
1000077c4: 4c 89 fe                    	mov	rsi, r15
1000077c7: 31 d2                       	xor	edx, edx
1000077c9: ff 10                       	call	qword ptr [rax]
1000077cb: 48 8d 05 c6 58 00 00        	lea	rax, [rip + 22726]      ## 0x10000d098 <dyld_stub_binder+0x10000d098>
1000077d2: 48 8b 7b 40                 	mov	rdi, qword ptr [rbx + 64]
1000077d6: ff 10                       	call	qword ptr [rax]
1000077d8: 4c 8d 2d 91 58 00 00        	lea	r13, [rip + 22673]      ## 0x10000d070 <dyld_stub_binder+0x10000d070>
1000077df: 4c 89 e7                    	mov	rdi, r12
1000077e2: 41 ff 55 00                 	call	qword ptr [r13]
1000077e6: 48 8d 05 9b 58 00 00        	lea	rax, [rip + 22683]      ## 0x10000d088 <dyld_stub_binder+0x10000d088>
1000077ed: 4c 8d 7b 20                 	lea	r15, [rbx + 32]
1000077f1: 4c 89 ff                    	mov	rdi, r15
1000077f4: 4c 89 f6                    	mov	rsi, r14
1000077f7: 31 d2                       	xor	edx, edx
1000077f9: ff 10                       	call	qword ptr [rax]
1000077fb: 4c 89 f7                    	mov	rdi, r14
1000077fe: 41 ff 55 00                 	call	qword ptr [r13]
100007802: 48 8d 05 6f 58 00 00        	lea	rax, [rip + 22639]      ## 0x10000d078 <dyld_stub_binder+0x10000d078>
100007809: 4c 89 ff                    	mov	rdi, r15
10000780c: ff 10                       	call	qword ptr [rax]
10000780e: 48 8d 05 2b 58 00 00        	lea	rax, [rip + 22571]      ## 0x10000d040 <dyld_stub_binder+0x10000d040>
100007815: ff 10                       	call	qword ptr [rax]
100007817: 48 8b bb 78 0c 00 00        	mov	rdi, qword ptr [rbx + 3192]
10000781e: 48 85 ff                    	test	rdi, rdi
100007821: 74 10                       	je	0x100007833 <__text+0x40b3>
100007823: e8 58 1a 00 00              	call	0x100009280 <__text+0x5b00>
100007828: 48 c7 83 78 0c 00 00 00 00 00 00    	mov	qword ptr [rbx + 3192], 0
100007833: 48 8b bb 80 0c 00 00        	mov	rdi, qword ptr [rbx + 3200]
10000783a: 48 85 ff                    	test	rdi, rdi
10000783d: 74 10                       	je	0x10000784f <__text+0x40cf>
10000783f: e8 3c 1a 00 00              	call	0x100009280 <__text+0x5b00>
100007844: 48 c7 83 80 0c 00 00 00 00 00 00    	mov	qword ptr [rbx + 3200], 0
10000784f: 31 c0                       	xor	eax, eax
100007851: 48 83 c4 18                 	add	rsp, 24
100007855: 5b                          	pop	rbx
100007856: 41 5c                       	pop	r12
100007858: 41 5d                       	pop	r13
10000785a: 41 5e                       	pop	r14
10000785c: 41 5f                       	pop	r15
10000785e: 5d                          	pop	rbp
10000785f: c3                          	ret
100007860: 48 85 ff                    	test	rdi, rdi
100007863: 74 ea                       	je	0x10000784f <__text+0x40cf>
100007865: 48 8d 05 e4 57 00 00        	lea	rax, [rip + 22500]      ## 0x10000d050 <dyld_stub_binder+0x10000d050>
10000786c: ff 10                       	call	qword ptr [rax]
10000786e: 48 c7 43 38 00 00 00 00     	mov	qword ptr [rbx + 56], 0
100007876: eb d7                       	jmp	0x10000784f <__text+0x40cf>
100007878: 0f 1f 84 00 00 00 00 00     	nop	dword ptr [rax + rax]
100007880: 55                          	push	rbp
100007881: 48 89 e5                    	mov	rbp, rsp
100007884: 41 57                       	push	r15
100007886: 41 56                       	push	r14
100007888: 41 55                       	push	r13
10000788a: 41 54                       	push	r12
10000788c: 53                          	push	rbx
10000788d: 48 81 ec 28 04 00 00        	sub	rsp, 1064
100007894: 48 8b 05 6d 47 00 00        	mov	rax, qword ptr [rip + 18285] ## 0x10000c008 <dyld_stub_binder+0x10000c008>
10000789b: 48 8b 00                    	mov	rax, qword ptr [rax]
10000789e: 48 89 45 d0                 	mov	qword ptr [rbp - 48], rax
1000078a2: 31 c0                       	xor	eax, eax
1000078a4: 80 be 30 08 00 00 00        	cmp	byte ptr [rsi + 2096], 0
1000078ab: 0f 84 80 01 00 00           	je	0x100007a31 <__text+0x42b1>
1000078b1: 83 bf 70 0c 00 00 00        	cmp	dword ptr [rdi + 3184], 0
1000078b8: 0f 84 73 01 00 00           	je	0x100007a31 <__text+0x42b1>
1000078be: 48 89 f3                    	mov	rbx, rsi
1000078c1: 48 8b 86 20 08 00 00        	mov	rax, qword ptr [rsi + 2080]
1000078c8: 48 89 85 c0 fb ff ff        	mov	qword ptr [rbp - 1088], rax
1000078cf: 48 8d 86 32 08 00 00        	lea	rax, [rsi + 2098]
1000078d6: 48 89 85 c8 fb ff ff        	mov	qword ptr [rbp - 1080], rax
1000078dd: 45 31 e4                    	xor	r12d, r12d
1000078e0: 48 89 bd b8 fb ff ff        	mov	qword ptr [rbp - 1096], rdi
1000078e7: 66 0f 1f 84 00 00 00 00 00  	nop	word ptr [rax + rax]
1000078f0: 4c 8b af 68 0c 00 00        	mov	r13, qword ptr [rdi + 3176]
1000078f7: 4d 01 e5                    	add	r13, r12
1000078fa: 48 8b bd c0 fb ff ff        	mov	rdi, qword ptr [rbp - 1088]
100007901: 4c 89 ee                    	mov	rsi, r13
100007904: e8 97 c8 ff ff              	call	0x1000041a0 <__text+0xa20>
100007909: 48 85 c0                    	test	rax, rax
10000790c: 0f 84 c4 00 00 00           	je	0x1000079d6 <__text+0x4256>
100007912: 49 89 c7                    	mov	r15, rax
100007915: be 00 04 00 00              	mov	esi, 1024
10000791a: 4c 8d b5 d0 fb ff ff        	lea	r14, [rbp - 1072]
100007921: 4c 89 f7                    	mov	rdi, r14
100007924: 48 8d 15 11 26 00 00        	lea	rdx, [rip + 9745]       ## 0x100009f3c <dyld_stub_binder+0x100009f3c>
10000792b: 48 8b 8d c8 fb ff ff        	mov	rcx, qword ptr [rbp - 1080]
100007932: 41 b8 2f 00 00 00           	mov	r8d, 47
100007938: 4d 89 e9                    	mov	r9, r13
10000793b: 31 c0                       	xor	eax, eax
10000793d: e8 d8 1e 00 00              	call	0x10000981a <dyld_stub_binder+0x10000981a>
100007942: 3d 00 04 00 00              	cmp	eax, 1024
100007947: 0f 8d 95 00 00 00           	jge	0x1000079e2 <__text+0x4262>
10000794d: 4c 89 f7                    	mov	rdi, r14
100007950: e8 bb da ff ff              	call	0x100005410 <__text+0x1c90>
100007955: 83 f8 01                    	cmp	eax, 1
100007958: 75 22                       	jne	0x10000797c <__text+0x41fc>
10000795a: 80 bb 41 0c 00 00 00        	cmp	byte ptr [rbx + 3137], 0
100007961: 0f 85 b0 00 00 00           	jne	0x100007a17 <__text+0x4297>
100007967: 48 8d 3d c8 3b 00 00        	lea	rdi, [rip + 15304]      ## 0x10000b536 <dyld_stub_binder+0x10000b536>
10000796e: 48 8d b5 d0 fb ff ff        	lea	rsi, [rbp - 1072]
100007975: 31 c0                       	xor	eax, eax
100007977: e8 a4 c8 ff ff              	call	0x100004220 <__text+0xaa0>
10000797c: 48 89 df                    	mov	rdi, rbx
10000797f: 48 8b b5 c8 fb ff ff        	mov	rsi, qword ptr [rbp - 1080]
100007986: 4c 89 ea                    	mov	rdx, r13
100007989: e8 e2 0c 00 00              	call	0x100008670 <__text+0x4ef0>
10000798e: 85 c0                       	test	eax, eax
100007990: 78 59                       	js	0x1000079eb <__text+0x426b>
100007992: 48 8b bd c0 fb ff ff        	mov	rdi, qword ptr [rbp - 1088]
100007999: 4c 89 fe                    	mov	rsi, r15
10000799c: 48 8d 95 d0 fb ff ff        	lea	rdx, [rbp - 1072]
1000079a3: e8 58 c2 ff ff              	call	0x100003c00 <__text+0x480>
1000079a8: 85 c0                       	test	eax, eax
1000079aa: 75 4f                       	jne	0x1000079fb <__text+0x427b>
1000079ac: 4c 89 ef                    	mov	rdi, r13
1000079af: e8 96 1e 00 00              	call	0x10000984a <dyld_stub_binder+0x10000984a>
1000079b4: 49 01 c4                    	add	r12, rax
1000079b7: 49 83 c4 01                 	add	r12, 1
1000079bb: 48 8b bd b8 fb ff ff        	mov	rdi, qword ptr [rbp - 1096]
1000079c2: 48 63 87 70 0c 00 00        	movsxd	rax, dword ptr [rdi + 3184]
1000079c9: 49 39 c4                    	cmp	r12, rax
1000079cc: 0f 82 1e ff ff ff           	jb	0x1000078f0 <__text+0x4170>
1000079d2: 31 c0                       	xor	eax, eax
1000079d4: eb 5b                       	jmp	0x100007a31 <__text+0x42b1>
1000079d6: 48 8d 3d b9 3a 00 00        	lea	rdi, [rip + 15033]      ## 0x10000b496 <dyld_stub_binder+0x10000b496>
1000079dd: 4c 89 ee                    	mov	rsi, r13
1000079e0: eb 43                       	jmp	0x100007a25 <__text+0x42a5>
1000079e2: 48 8d 3d e0 3a 00 00        	lea	rdi, [rip + 15072]      ## 0x10000b4c9 <dyld_stub_binder+0x10000b4c9>
1000079e9: eb 07                       	jmp	0x1000079f2 <__text+0x4272>
1000079eb: 48 8d 3d 7d 3b 00 00        	lea	rdi, [rip + 15229]      ## 0x10000b56f <dyld_stub_binder+0x10000b56f>
1000079f2: 31 c0                       	xor	eax, eax
1000079f4: e8 27 c8 ff ff              	call	0x100004220 <__text+0xaa0>
1000079f9: eb 31                       	jmp	0x100007a2c <__text+0x42ac>
1000079fb: 49 83 c7 12                 	add	r15, 18
1000079ff: 48 8d 3d 9f 3b 00 00        	lea	rdi, [rip + 15263]      ## 0x10000b5a5 <dyld_stub_binder+0x10000b5a5>
100007a06: 4c 89 fe                    	mov	rsi, r15
100007a09: 31 c0                       	xor	eax, eax
100007a0b: e8 10 c8 ff ff              	call	0x100004220 <__text+0xaa0>
100007a10: b8 fe ff ff ff              	mov	eax, 4294967294
100007a15: eb 1a                       	jmp	0x100007a31 <__text+0x42b1>
100007a17: 48 8d 3d e8 3a 00 00        	lea	rdi, [rip + 15080]      ## 0x10000b506 <dyld_stub_binder+0x10000b506>
100007a1e: 48 8d b5 d0 fb ff ff        	lea	rsi, [rbp - 1072]
100007a25: 31 c0                       	xor	eax, eax
100007a27: e8 f4 c7 ff ff              	call	0x100004220 <__text+0xaa0>
100007a2c: b8 ff ff ff ff              	mov	eax, 4294967295
100007a31: 48 8b 0d d0 45 00 00        	mov	rcx, qword ptr [rip + 17872] ## 0x10000c008 <dyld_stub_binder+0x10000c008>
100007a38: 48 8b 09                    	mov	rcx, qword ptr [rcx]
100007a3b: 48 3b 4d d0                 	cmp	rcx, qword ptr [rbp - 48]
100007a3f: 75 12                       	jne	0x100007a53 <__text+0x42d3>
100007a41: 48 81 c4 28 04 00 00        	add	rsp, 1064
100007a48: 5b                          	pop	rbx
100007a49: 41 5c                       	pop	r12
100007a4b: 41 5d                       	pop	r13
100007a4d: 41 5e                       	pop	r14
100007a4f: 41 5f                       	pop	r15
100007a51: 5d                          	pop	rbp
100007a52: c3                          	ret
100007a53: e8 a8 1c 00 00              	call	0x100009700 <dyld_stub_binder+0x100009700>
100007a58: 0f 1f 84 00 00 00 00 00     	nop	dword ptr [rax + rax]
100007a60: 55                          	push	rbp
100007a61: 48 89 e5                    	mov	rbp, rsp
100007a64: 41 57                       	push	r15
100007a66: 41 56                       	push	r14
100007a68: 41 55                       	push	r13
100007a6a: 41 54                       	push	r12
100007a6c: 53                          	push	rbx
100007a6d: 50                          	push	rax
100007a6e: 4c 63 bf 70 0c 00 00        	movsxd	r15, dword ptr [rdi + 3184]
100007a75: 4d 85 ff                    	test	r15, r15
100007a78: 74 3d                       	je	0x100007ab7 <__text+0x4337>
100007a7a: 49 89 f6                    	mov	r14, rsi
100007a7d: 4c 8b a7 68 0c 00 00        	mov	r12, qword ptr [rdi + 3176]
100007a84: 31 db                       	xor	ebx, ebx
100007a86: 66 2e 0f 1f 84 00 00 00 00 00       	nop	word ptr cs:[rax + rax]
100007a90: 4d 8d 2c 1c                 	lea	r13, [r12 + rbx]
100007a94: 4c 89 ef                    	mov	rdi, r13
100007a97: 4c 89 f6                    	mov	rsi, r14
100007a9a: e8 87 1d 00 00              	call	0x100009826 <dyld_stub_binder+0x100009826>
100007a9f: 85 c0                       	test	eax, eax
100007aa1: 74 18                       	je	0x100007abb <__text+0x433b>
100007aa3: 4c 89 ef                    	mov	rdi, r13
100007aa6: e8 9f 1d 00 00              	call	0x10000984a <dyld_stub_binder+0x10000984a>
100007aab: 48 01 c3                    	add	rbx, rax
100007aae: 48 83 c3 01                 	add	rbx, 1
100007ab2: 4c 39 fb                    	cmp	rbx, r15
100007ab5: 72 d9                       	jb	0x100007a90 <__text+0x4310>
100007ab7: 31 c0                       	xor	eax, eax
100007ab9: eb 05                       	jmp	0x100007ac0 <__text+0x4340>
100007abb: b8 01 00 00 00              	mov	eax, 1
100007ac0: 48 83 c4 08                 	add	rsp, 8
100007ac4: 5b                          	pop	rbx
100007ac5: 41 5c                       	pop	r12
100007ac7: 41 5d                       	pop	r13
100007ac9: 41 5e                       	pop	r14
100007acb: 41 5f                       	pop	r15
100007acd: 5d                          	pop	rbp
100007ace: c3                          	ret
100007acf: 90                          	nop
100007ad0: 55                          	push	rbp
100007ad1: 48 89 e5                    	mov	rbp, rsp
100007ad4: 53                          	push	rbx
100007ad5: 50                          	push	rax
100007ad6: 48 89 fb                    	mov	rbx, rdi
100007ad9: c6 87 74 0c 00 00 00        	mov	byte ptr [rdi + 3188], 0
100007ae0: 48 83 c7 48                 	add	rdi, 72
100007ae4: e8 87 17 00 00              	call	0x100009270 <__text+0x5af0>
100007ae9: 48 89 83 78 0c 00 00        	mov	qword ptr [rbx + 3192], rax
100007af0: 48 8d bb 48 04 00 00        	lea	rdi, [rbx + 1096]
100007af7: e8 74 17 00 00              	call	0x100009270 <__text+0x5af0>
100007afc: 48 89 83 80 0c 00 00        	mov	qword ptr [rbx + 3200], rax
100007b03: 48 85 c0                    	test	rax, rax
100007b06: 74 23                       	je	0x100007b2b <__text+0x43ab>
100007b08: 48 8b bb 78 0c 00 00        	mov	rdi, qword ptr [rbx + 3192]
100007b0f: 48 85 ff                    	test	rdi, rdi
100007b12: 74 17                       	je	0x100007b2b <__text+0x43ab>
100007b14: 48 89 c6                    	mov	rsi, rax
100007b17: e8 24 06 00 00              	call	0x100008140 <__text+0x49c0>
100007b1c: 85 c0                       	test	eax, eax
100007b1e: 78 19                       	js	0x100007b39 <__text+0x43b9>
100007b20: c6 83 74 0c 00 00 01        	mov	byte ptr [rbx + 3188], 1
100007b27: 31 c0                       	xor	eax, eax
100007b29: eb 13                       	jmp	0x100007b3e <__text+0x43be>
100007b2b: 48 8d 3d 9e 3a 00 00        	lea	rdi, [rip + 15006]      ## 0x10000b5d0 <dyld_stub_binder+0x10000b5d0>
100007b32: 31 c0                       	xor	eax, eax
100007b34: e8 e7 c6 ff ff              	call	0x100004220 <__text+0xaa0>
100007b39: b8 ff ff ff ff              	mov	eax, 4294967295
100007b3e: 48 83 c4 08                 	add	rsp, 8
100007b42: 5b                          	pop	rbx
100007b43: 5d                          	pop	rbp
100007b44: c3                          	ret
100007b45: 66 2e 0f 1f 84 00 00 00 00 00       	nop	word ptr cs:[rax + rax]
100007b4f: 90                          	nop
100007b50: 55                          	push	rbp
100007b51: 48 89 e5                    	mov	rbp, rsp
100007b54: 41 57                       	push	r15
100007b56: 41 56                       	push	r14
100007b58: 41 55                       	push	r13
100007b5a: 41 54                       	push	r12
100007b5c: 53                          	push	rbx
100007b5d: 48 83 ec 18                 	sub	rsp, 24
100007b61: 49 89 cf                    	mov	r15, rcx
100007b64: 49 89 d4                    	mov	r12, rdx
100007b67: 41 89 f6                    	mov	r14d, esi
100007b6a: 49 89 fd                    	mov	r13, rdi
100007b6d: c7 45 d4 00 00 00 00        	mov	dword ptr [rbp - 44], 0
100007b74: 48 c7 45 c8 00 00 00 00     	mov	qword ptr [rbp - 56], 0
100007b7c: 48 8d 05 75 55 00 00        	lea	rax, [rip + 21877]      ## 0x10000d0f8 <dyld_stub_binder+0x10000d0f8>
100007b83: bf 40 00 00 00              	mov	edi, 64
100007b88: ff 10                       	call	qword ptr [rax]
100007b8a: 48 89 c3                    	mov	rbx, rax
100007b8d: 48 8d 05 1c 02 00 00        	lea	rax, [rip + 540]        ## 0x100007db0 <__text+0x4630>
100007b94: 48 89 03                    	mov	qword ptr [rbx], rax
100007b97: 4c 89 6b 10                 	mov	qword ptr [rbx + 16], r13
100007b9b: 44 88 73 18                 	mov	byte ptr [rbx + 24], r14b
100007b9f: 48 8d 45 c8                 	lea	rax, [rbp - 56]
100007ba3: 48 89 43 20                 	mov	qword ptr [rbx + 32], rax
100007ba7: 48 8d 45 d4                 	lea	rax, [rbp - 44]
100007bab: 48 89 43 28                 	mov	qword ptr [rbx + 40], rax
100007baf: 4c 89 7b 30                 	mov	qword ptr [rbx + 48], r15
100007bb3: 4c 89 63 38                 	mov	qword ptr [rbx + 56], r12
100007bb7: 4d 8d 7d 08                 	lea	r15, [r13 + 8]
100007bbb: 48 8d 05 a6 54 00 00        	lea	rax, [rip + 21670]      ## 0x10000d068 <dyld_stub_binder+0x10000d068>
100007bc2: 4c 89 ff                    	mov	rdi, r15
100007bc5: ff 10                       	call	qword ptr [rax]
100007bc7: 48 8d 05 c2 54 00 00        	lea	rax, [rip + 21698]      ## 0x10000d090 <dyld_stub_binder+0x10000d090>
100007bce: 49 8b 7d 40                 	mov	rdi, qword ptr [r13 + 64]
100007bd2: 48 89 de                    	mov	rsi, rbx
100007bd5: 31 d2                       	xor	edx, edx
100007bd7: ff 10                       	call	qword ptr [rax]
100007bd9: 48 8d 05 b8 54 00 00        	lea	rax, [rip + 21688]      ## 0x10000d098 <dyld_stub_binder+0x10000d098>
100007be0: 49 8b 7d 40                 	mov	rdi, qword ptr [r13 + 64]
100007be4: ff 10                       	call	qword ptr [rax]
100007be6: 45 84 f6                    	test	r14b, r14b
100007be9: 74 0c                       	je	0x100007bf7 <__text+0x4477>
100007beb: 48 8d 05 7e 54 00 00        	lea	rax, [rip + 21630]      ## 0x10000d070 <dyld_stub_binder+0x10000d070>
100007bf2: 4c 89 ff                    	mov	rdi, r15
100007bf5: eb 2b                       	jmp	0x100007c22 <__text+0x44a2>
100007bf7: 48 8d 05 8a 54 00 00        	lea	rax, [rip + 21642]      ## 0x10000d088 <dyld_stub_binder+0x10000d088>
100007bfe: 48 8d 5d c8                 	lea	rbx, [rbp - 56]
100007c02: 48 89 df                    	mov	rdi, rbx
100007c05: 4c 89 fe                    	mov	rsi, r15
100007c08: 31 d2                       	xor	edx, edx
100007c0a: ff 10                       	call	qword ptr [rax]
100007c0c: 48 8d 05 5d 54 00 00        	lea	rax, [rip + 21597]      ## 0x10000d070 <dyld_stub_binder+0x10000d070>
100007c13: 4c 89 ff                    	mov	rdi, r15
100007c16: ff 10                       	call	qword ptr [rax]
100007c18: 48 8d 05 59 54 00 00        	lea	rax, [rip + 21593]      ## 0x10000d078 <dyld_stub_binder+0x10000d078>
100007c1f: 48 89 df                    	mov	rdi, rbx
100007c22: ff 10                       	call	qword ptr [rax]
100007c24: 8b 45 d4                    	mov	eax, dword ptr [rbp - 44]
100007c27: 48 83 c4 18                 	add	rsp, 24
100007c2b: 5b                          	pop	rbx
100007c2c: 41 5c                       	pop	r12
100007c2e: 41 5d                       	pop	r13
100007c30: 41 5e                       	pop	r14
100007c32: 41 5f                       	pop	r15
100007c34: 5d                          	pop	rbp
100007c35: c3                          	ret
100007c36: 66 2e 0f 1f 84 00 00 00 00 00       	nop	word ptr cs:[rax + rax]
100007c40: 55                          	push	rbp
100007c41: 48 89 e5                    	mov	rbp, rsp
100007c44: 53                          	push	rbx
100007c45: 50                          	push	rax
100007c46: bf 01 00 00 00              	mov	edi, 1
100007c4b: be 88 0c 00 00              	mov	esi, 3208
100007c50: e8 b7 1a 00 00              	call	0x10000970c <dyld_stub_binder+0x10000970c>
100007c55: 48 89 c3                    	mov	rbx, rax
100007c58: 48 85 c0                    	test	rax, rax
100007c5b: 75 15                       	jne	0x100007c72 <__text+0x44f2>
100007c5d: 48 8d 3d 93 20 00 00        	lea	rdi, [rip + 8339]       ## 0x100009cf7 <dyld_stub_binder+0x100009cf7>
100007c64: 48 8d 35 96 39 00 00        	lea	rsi, [rip + 14742]      ## 0x10000b601 <dyld_stub_binder+0x10000b601>
100007c6b: 31 c0                       	xor	eax, eax
100007c6d: e8 ce 19 00 00              	call	0x100009640 <__text+0x5ec0>
100007c72: 48 89 d8                    	mov	rax, rbx
100007c75: 48 83 c4 08                 	add	rsp, 8
100007c79: 5b                          	pop	rbx
100007c7a: 5d                          	pop	rbp
100007c7b: c3                          	ret
100007c7c: 0f 1f 40 00                 	nop	dword ptr [rax]
100007c80: 55                          	push	rbp
100007c81: 48 89 e5                    	mov	rbp, rsp
100007c84: 53                          	push	rbx
100007c85: 50                          	push	rax
100007c86: 48 8b 1f                    	mov	rbx, qword ptr [rdi]
100007c89: 48 c7 07 00 00 00 00        	mov	qword ptr [rdi], 0
100007c90: 48 85 db                    	test	rbx, rbx
100007c93: 74 32                       	je	0x100007cc7 <__text+0x4547>
100007c95: 48 8b bb 48 0c 00 00        	mov	rdi, qword ptr [rbx + 3144]
100007c9c: e8 dd 1a 00 00              	call	0x10000977e <dyld_stub_binder+0x10000977e>
100007ca1: 48 8b bb 58 0c 00 00        	mov	rdi, qword ptr [rbx + 3160]
100007ca8: e8 d1 1a 00 00              	call	0x10000977e <dyld_stub_binder+0x10000977e>
100007cad: 48 8b bb 68 0c 00 00        	mov	rdi, qword ptr [rbx + 3176]
100007cb4: e8 c5 1a 00 00              	call	0x10000977e <dyld_stub_binder+0x10000977e>
100007cb9: 48 89 df                    	mov	rdi, rbx
100007cbc: 48 83 c4 08                 	add	rsp, 8
100007cc0: 5b                          	pop	rbx
100007cc1: 5d                          	pop	rbp
100007cc2: e9 b7 1a 00 00              	jmp	0x10000977e <dyld_stub_binder+0x10000977e>
100007cc7: 48 83 c4 08                 	add	rsp, 8
100007ccb: 5b                          	pop	rbx
100007ccc: 5d                          	pop	rbp
100007ccd: c3                          	ret
100007cce: 66 90                       	nop
100007cd0: 55                          	push	rbp
100007cd1: 48 89 e5                    	mov	rbp, rsp
100007cd4: 41 57                       	push	r15
100007cd6: 41 56                       	push	r14
100007cd8: 53                          	push	rbx
100007cd9: 48 83 ec 18                 	sub	rsp, 24
100007cdd: 49 89 f6                    	mov	r14, rsi
100007ce0: 49 89 ff                    	mov	r15, rdi
100007ce3: c7 45 e4 00 00 00 00        	mov	dword ptr [rbp - 28], 0
100007cea: 48 c7 45 d8 00 00 00 00     	mov	qword ptr [rbp - 40], 0
100007cf2: 48 8d 05 ff 53 00 00        	lea	rax, [rip + 21503]      ## 0x10000d0f8 <dyld_stub_binder+0x10000d0f8>
100007cf9: bf 40 00 00 00              	mov	edi, 64
100007cfe: ff 10                       	call	qword ptr [rax]
100007d00: 48 89 c3                    	mov	rbx, rax
100007d03: 48 8d 05 a6 00 00 00        	lea	rax, [rip + 166]        ## 0x100007db0 <__text+0x4630>
100007d0a: 48 89 03                    	mov	qword ptr [rbx], rax
100007d0d: 4c 89 7b 10                 	mov	qword ptr [rbx + 16], r15
100007d11: c6 43 18 01                 	mov	byte ptr [rbx + 24], 1
100007d15: 48 8d 45 d8                 	lea	rax, [rbp - 40]
100007d19: 48 89 43 20                 	mov	qword ptr [rbx + 32], rax
100007d1d: 48 8d 45 e4                 	lea	rax, [rbp - 28]
100007d21: 48 89 43 28                 	mov	qword ptr [rbx + 40], rax
100007d25: 48 8d 05 54 00 00 00        	lea	rax, [rip + 84]         ## 0x100007d80 <__text+0x4600>
100007d2c: 48 89 43 30                 	mov	qword ptr [rbx + 48], rax
100007d30: 4c 89 73 38                 	mov	qword ptr [rbx + 56], r14
100007d34: 4d 8d 77 08                 	lea	r14, [r15 + 8]
100007d38: 48 8d 05 29 53 00 00        	lea	rax, [rip + 21289]      ## 0x10000d068 <dyld_stub_binder+0x10000d068>
100007d3f: 4c 89 f7                    	mov	rdi, r14
100007d42: ff 10                       	call	qword ptr [rax]
100007d44: 48 8d 05 45 53 00 00        	lea	rax, [rip + 21317]      ## 0x10000d090 <dyld_stub_binder+0x10000d090>
100007d4b: 49 8b 7f 40                 	mov	rdi, qword ptr [r15 + 64]
100007d4f: 48 89 de                    	mov	rsi, rbx
100007d52: 31 d2                       	xor	edx, edx
100007d54: ff 10                       	call	qword ptr [rax]
100007d56: 48 8d 05 3b 53 00 00        	lea	rax, [rip + 21307]      ## 0x10000d098 <dyld_stub_binder+0x10000d098>
100007d5d: 49 8b 7f 40                 	mov	rdi, qword ptr [r15 + 64]
100007d61: ff 10                       	call	qword ptr [rax]
100007d63: 48 8d 05 06 53 00 00        	lea	rax, [rip + 21254]      ## 0x10000d070 <dyld_stub_binder+0x10000d070>
100007d6a: 4c 89 f7                    	mov	rdi, r14
100007d6d: ff 10                       	call	qword ptr [rax]
100007d6f: 8b 45 e4                    	mov	eax, dword ptr [rbp - 28]
100007d72: 48 83 c4 18                 	add	rsp, 24
100007d76: 5b                          	pop	rbx
100007d77: 41 5e                       	pop	r14
100007d79: 41 5f                       	pop	r15
100007d7b: 5d                          	pop	rbp
100007d7c: c3                          	ret
100007d7d: 0f 1f 00                    	nop	dword ptr [rax]
100007d80: 55                          	push	rbp
100007d81: 48 89 e5                    	mov	rbp, rsp
100007d84: 48 89 f1                    	mov	rcx, rsi
100007d87: 48 8d 05 1a 53 00 00        	lea	rax, [rip + 21274]      ## 0x10000d0a8 <dyld_stub_binder+0x10000d0a8>
100007d8e: 48 8b 7f 38                 	mov	rdi, qword ptr [rdi + 56]
100007d92: 48 8d 35 97 38 00 00        	lea	rsi, [rip + 14487]      ## 0x10000b630 <dyld_stub_binder+0x10000b630>
100007d99: 31 d2                       	xor	edx, edx
100007d9b: 41 b8 01 00 00 00           	mov	r8d, 1
100007da1: ff 10                       	call	qword ptr [rax]
100007da3: 31 c0                       	xor	eax, eax
100007da5: 5d                          	pop	rbp
100007da6: c3                          	ret
100007da7: 66 0f 1f 84 00 00 00 00 00  	nop	word ptr [rax + rax]
100007db0: 55                          	push	rbp
100007db1: 48 89 e5                    	mov	rbp, rsp
100007db4: 41 56                       	push	r14
100007db6: 53                          	push	rbx
100007db7: 48 89 fb                    	mov	rbx, rdi
100007dba: 48 8b 47 30                 	mov	rax, qword ptr [rdi + 48]
100007dbe: 48 85 c0                    	test	rax, rax
100007dc1: 74 53                       	je	0x100007e16 <__text+0x4696>
100007dc3: 48 8b 7b 10                 	mov	rdi, qword ptr [rbx + 16]
100007dc7: 48 8b 73 38                 	mov	rsi, qword ptr [rbx + 56]
100007dcb: ff d0                       	call	rax
100007dcd: 41 89 c6                    	mov	r14d, eax
100007dd0: 80 7b 18 00                 	cmp	byte ptr [rbx + 24], 0
100007dd4: 75 36                       	jne	0x100007e0c <__text+0x468c>
100007dd6: 48 8d 05 8b 52 00 00        	lea	rax, [rip + 21131]      ## 0x10000d068 <dyld_stub_binder+0x10000d068>
100007ddd: 48 8b 7b 10                 	mov	rdi, qword ptr [rbx + 16]
100007de1: 48 83 c7 08                 	add	rdi, 8
100007de5: ff 10                       	call	qword ptr [rax]
100007de7: 48 8b 43 28                 	mov	rax, qword ptr [rbx + 40]
100007deb: 44 89 30                    	mov	dword ptr [rax], r14d
100007dee: 48 8d 05 8b 52 00 00        	lea	rax, [rip + 21131]      ## 0x10000d080 <dyld_stub_binder+0x10000d080>
100007df5: 48 8b 7b 20                 	mov	rdi, qword ptr [rbx + 32]
100007df9: ff 10                       	call	qword ptr [rax]
100007dfb: 48 8d 05 6e 52 00 00        	lea	rax, [rip + 21102]      ## 0x10000d070 <dyld_stub_binder+0x10000d070>
100007e02: 48 8b 7b 10                 	mov	rdi, qword ptr [rbx + 16]
100007e06: 48 83 c7 08                 	add	rdi, 8
100007e0a: ff 10                       	call	qword ptr [rax]
100007e0c: b8 01 00 00 00              	mov	eax, 1
100007e11: 5b                          	pop	rbx
100007e12: 41 5e                       	pop	r14
100007e14: 5d                          	pop	rbp
100007e15: c3                          	ret
100007e16: 45 31 f6                    	xor	r14d, r14d
100007e19: 80 7b 18 00                 	cmp	byte ptr [rbx + 24], 0
100007e1d: 75 ed                       	jne	0x100007e0c <__text+0x468c>
100007e1f: eb b5                       	jmp	0x100007dd6 <__text+0x4656>
100007e21: 66 2e 0f 1f 84 00 00 00 00 00       	nop	word ptr cs:[rax + rax]
100007e2b: 0f 1f 44 00 00              	nop	dword ptr [rax + rax]
100007e30: 55                          	push	rbp
100007e31: 48 89 e5                    	mov	rbp, rsp
100007e34: 31 c0                       	xor	eax, eax
100007e36: 5d                          	pop	rbp
100007e37: c3                          	ret
100007e38: 0f 1f 84 00 00 00 00 00     	nop	dword ptr [rax + rax]
100007e40: 55                          	push	rbp
100007e41: 48 89 e5                    	mov	rbp, rsp
100007e44: 41 57                       	push	r15
100007e46: 41 56                       	push	r14
100007e48: 41 54                       	push	r12
100007e4a: 53                          	push	rbx
100007e4b: 48 81 ec 10 04 00 00        	sub	rsp, 1040
100007e52: 48 89 cb                    	mov	rbx, rcx
100007e55: 49 89 f6                    	mov	r14, rsi
100007e58: 49 89 ff                    	mov	r15, rdi
100007e5b: 48 8b 05 a6 41 00 00        	mov	rax, qword ptr [rip + 16806] ## 0x10000c008 <dyld_stub_binder+0x10000c008>
100007e62: 48 8b 00                    	mov	rax, qword ptr [rax]
100007e65: 48 89 45 d8                 	mov	qword ptr [rbp - 40], rax
100007e69: 4c 8d 25 48 52 00 00        	lea	r12, [rip + 21064]      ## 0x10000d0b8 <dyld_stub_binder+0x10000d0b8>
100007e70: 48 8b 79 20                 	mov	rdi, qword ptr [rcx + 32]
100007e74: 41 ff 14 24                 	call	qword ptr [r12]
100007e78: 48 8d 35 07 38 00 00        	lea	rsi, [rip + 14343]      ## 0x10000b686 <dyld_stub_binder+0x10000b686>
100007e7f: ba 40 00 00 00              	mov	edx, 64
100007e84: 48 89 c7                    	mov	rdi, rax
100007e87: e8 ca 19 00 00              	call	0x100009856 <dyld_stub_binder+0x100009856>
100007e8c: 89 c1                       	mov	ecx, eax
100007e8e: b8 01 00 00 00              	mov	eax, 1
100007e93: 85 c9                       	test	ecx, ecx
100007e95: 75 51                       	jne	0x100007ee8 <__text+0x4768>
100007e97: 49 81 c7 48 08 00 00        	add	r15, 2120
100007e9e: 48 8b 7b 20                 	mov	rdi, qword ptr [rbx + 32]
100007ea2: 41 ff 14 24                 	call	qword ptr [r12]
100007ea6: 48 8d 9d d0 fb ff ff        	lea	rbx, [rbp - 1072]
100007ead: 48 89 df                    	mov	rdi, rbx
100007eb0: 4c 89 fe                    	mov	rsi, r15
100007eb3: 48 89 c2                    	mov	rdx, rax
100007eb6: e8 c5 d4 ff ff              	call	0x100005380 <__text+0x1c00>
100007ebb: 48 8d 05 e6 51 00 00        	lea	rax, [rip + 20966]      ## 0x10000d0a8 <dyld_stub_binder+0x10000d0a8>
100007ec2: 48 8d 35 c4 37 00 00        	lea	rsi, [rip + 14276]      ## 0x10000b68d <dyld_stub_binder+0x10000b68d>
100007ec9: 4c 89 f7                    	mov	rdi, r14
100007ecc: 31 d2                       	xor	edx, edx
100007ece: 4c 89 f9                    	mov	rcx, r15
100007ed1: 41 b8 01 00 00 00           	mov	r8d, 1
100007ed7: ff 10                       	call	qword ptr [rax]
100007ed9: 48 8d 05 00 52 00 00        	lea	rax, [rip + 20992]      ## 0x10000d0e0 <dyld_stub_binder+0x10000d0e0>
100007ee0: 4c 89 f7                    	mov	rdi, r14
100007ee3: 48 89 de                    	mov	rsi, rbx
100007ee6: ff 10                       	call	qword ptr [rax]
100007ee8: 48 8b 0d 19 41 00 00        	mov	rcx, qword ptr [rip + 16665] ## 0x10000c008 <dyld_stub_binder+0x10000c008>
100007eef: 48 8b 09                    	mov	rcx, qword ptr [rcx]
100007ef2: 48 3b 4d d8                 	cmp	rcx, qword ptr [rbp - 40]
100007ef6: 75 10                       	jne	0x100007f08 <__text+0x4788>
100007ef8: 48 81 c4 10 04 00 00        	add	rsp, 1040
100007eff: 5b                          	pop	rbx
100007f00: 41 5c                       	pop	r12
100007f02: 41 5e                       	pop	r14
100007f04: 41 5f                       	pop	r15
100007f06: 5d                          	pop	rbp
100007f07: c3                          	ret
100007f08: e8 f3 17 00 00              	call	0x100009700 <dyld_stub_binder+0x100009700>
100007f0d: 0f 1f 00                    	nop	dword ptr [rax]
100007f10: 55                          	push	rbp
100007f11: 48 89 e5                    	mov	rbp, rsp
100007f14: c6 47 30 01                 	mov	byte ptr [rdi + 48], 1
100007f18: 31 c0                       	xor	eax, eax
100007f1a: 5d                          	pop	rbp
100007f1b: c3                          	ret
100007f1c: 0f 1f 40 00                 	nop	dword ptr [rax]
100007f20: 55                          	push	rbp
100007f21: 48 89 e5                    	mov	rbp, rsp
100007f24: 41 57                       	push	r15
100007f26: 41 56                       	push	r14
100007f28: 41 54                       	push	r12
100007f2a: 53                          	push	rbx
100007f2b: 49 89 cc                    	mov	r12, rcx
100007f2e: 41 89 d7                    	mov	r15d, edx
100007f31: 49 89 f6                    	mov	r14, rsi
100007f34: 48 8d 05 7d 51 00 00        	lea	rax, [rip + 20861]      ## 0x10000d0b8 <dyld_stub_binder+0x10000d0b8>
100007f3b: 48 63 ca                    	movsxd	rcx, edx
100007f3e: 49 8b 7c cc f8              	mov	rdi, qword ptr [r12 + 8*rcx - 8]
100007f43: ff 10                       	call	qword ptr [rax]
100007f45: 48 89 c7                    	mov	rdi, rax
100007f48: e8 c3 d4 ff ff              	call	0x100005410 <__text+0x1c90>
100007f4d: 85 c0                       	test	eax, eax
100007f4f: 0f 84 90 00 00 00           	je	0x100007fe5 <__text+0x4865>
100007f55: 48 8d 05 9c 51 00 00        	lea	rax, [rip + 20892]      ## 0x10000d0f8 <dyld_stub_binder+0x10000d0f8>
100007f5c: 42 8d 3c fd 00 00 00 00     	lea	edi, [8*r15]
100007f64: ff 10                       	call	qword ptr [rax]
100007f66: 48 89 c3                    	mov	rbx, rax
100007f69: 48 8d 05 50 51 00 00        	lea	rax, [rip + 20816]      ## 0x10000d0c0 <dyld_stub_binder+0x10000d0c0>
100007f70: 48 8d 3d 21 37 00 00        	lea	rdi, [rip + 14113]      ## 0x10000b698 <dyld_stub_binder+0x10000b698>
100007f77: be ff ff ff ff              	mov	esi, 4294967295
100007f7c: ff 10                       	call	qword ptr [rax]
100007f7e: 48 89 03                    	mov	qword ptr [rbx], rax
100007f81: 41 83 ff 02                 	cmp	r15d, 2
100007f85: 0f 8c 84 01 00 00           	jl	0x10000810f <__text+0x498f>
100007f8b: 44 89 f8                    	mov	eax, r15d
100007f8e: 4c 8d 40 ff                 	lea	r8, [rax - 1]
100007f92: b9 01 00 00 00              	mov	ecx, 1
100007f97: 49 83 f8 04                 	cmp	r8, 4
100007f9b: 0f 82 01 01 00 00           	jb	0x1000080a2 <__text+0x4922>
100007fa1: 48 8d 53 08                 	lea	rdx, [rbx + 8]
100007fa5: 49 8d 34 c4                 	lea	rsi, [r12 + 8*rax]
100007fa9: 48 39 f2                    	cmp	rdx, rsi
100007fac: 73 12                       	jae	0x100007fc0 <__text+0x4840>
100007fae: 48 8d 14 c3                 	lea	rdx, [rbx + 8*rax]
100007fb2: 49 8d 74 24 08              	lea	rsi, [r12 + 8]
100007fb7: 48 39 f2                    	cmp	rdx, rsi
100007fba: 0f 87 e2 00 00 00           	ja	0x1000080a2 <__text+0x4922>
100007fc0: 4c 89 c1                    	mov	rcx, r8
100007fc3: 48 83 e1 fc                 	and	rcx, -4
100007fc7: 48 8d 79 fc                 	lea	rdi, [rcx - 4]
100007fcb: 48 89 fe                    	mov	rsi, rdi
100007fce: 48 c1 ee 02                 	shr	rsi, 2
100007fd2: 48 83 c6 01                 	add	rsi, 1
100007fd6: 89 f2                       	mov	edx, esi
100007fd8: 83 e2 03                    	and	edx, 3
100007fdb: 48 83 ff 0c                 	cmp	rdi, 12
100007fdf: 73 0b                       	jae	0x100007fec <__text+0x486c>
100007fe1: 31 ff                       	xor	edi, edi
100007fe3: eb 7d                       	jmp	0x100008062 <__text+0x48e2>
100007fe5: 31 c0                       	xor	eax, eax
100007fe7: e9 49 01 00 00              	jmp	0x100008135 <__text+0x49b5>
100007fec: 48 83 e6 fc                 	and	rsi, -4
100007ff0: 48 f7 de                    	neg	rsi
100007ff3: 31 ff                       	xor	edi, edi
100007ff5: 66 2e 0f 1f 84 00 00 00 00 00       	nop	word ptr cs:[rax + rax]
100007fff: 90                          	nop
100008000: 41 0f 10 44 fc 08           	movups	xmm0, xmmword ptr [r12 + 8*rdi + 8]
100008006: 41 0f 10 4c fc 18           	movups	xmm1, xmmword ptr [r12 + 8*rdi + 24]
10000800c: 0f 11 44 fb 08              	movups	xmmword ptr [rbx + 8*rdi + 8], xmm0
100008011: 0f 11 4c fb 18              	movups	xmmword ptr [rbx + 8*rdi + 24], xmm1
100008016: 41 0f 10 44 fc 28           	movups	xmm0, xmmword ptr [r12 + 8*rdi + 40]
10000801c: 41 0f 10 4c fc 38           	movups	xmm1, xmmword ptr [r12 + 8*rdi + 56]
100008022: 0f 11 44 fb 28              	movups	xmmword ptr [rbx + 8*rdi + 40], xmm0
100008027: 0f 11 4c fb 38              	movups	xmmword ptr [rbx + 8*rdi + 56], xmm1
10000802c: 41 0f 10 44 fc 48           	movups	xmm0, xmmword ptr [r12 + 8*rdi + 72]
100008032: 41 0f 10 4c fc 58           	movups	xmm1, xmmword ptr [r12 + 8*rdi + 88]
100008038: 0f 11 44 fb 48              	movups	xmmword ptr [rbx + 8*rdi + 72], xmm0
10000803d: 0f 11 4c fb 58              	movups	xmmword ptr [rbx + 8*rdi + 88], xmm1
100008042: 41 0f 10 44 fc 68           	movups	xmm0, xmmword ptr [r12 + 8*rdi + 104]
100008048: 41 0f 10 4c fc 78           	movups	xmm1, xmmword ptr [r12 + 8*rdi + 120]
10000804e: 0f 11 44 fb 68              	movups	xmmword ptr [rbx + 8*rdi + 104], xmm0
100008053: 0f 11 4c fb 78              	movups	xmmword ptr [rbx + 8*rdi + 120], xmm1
100008058: 48 83 c7 10                 	add	rdi, 16
10000805c: 48 83 c6 04                 	add	rsi, 4
100008060: 75 9e                       	jne	0x100008000 <__text+0x4880>
100008062: 48 85 d2                    	test	rdx, rdx
100008065: 74 32                       	je	0x100008099 <__text+0x4919>
100008067: 48 f7 da                    	neg	rdx
10000806a: 66 0f 1f 44 00 00           	nop	word ptr [rax + rax]
100008070: 48 8d 34 fd 00 00 00 00     	lea	rsi, [8*rdi]
100008078: 48 83 ce 08                 	or	rsi, 8
10000807c: 41 0f 10 04 34              	movups	xmm0, xmmword ptr [r12 + rsi]
100008081: 41 0f 10 4c 34 10           	movups	xmm1, xmmword ptr [r12 + rsi + 16]
100008087: 0f 11 04 33                 	movups	xmmword ptr [rbx + rsi], xmm0
10000808b: 0f 11 4c 33 10              	movups	xmmword ptr [rbx + rsi + 16], xmm1
100008090: 48 83 c7 04                 	add	rdi, 4
100008094: 48 ff c2                    	inc	rdx
100008097: 75 d7                       	jne	0x100008070 <__text+0x48f0>
100008099: 49 39 c8                    	cmp	r8, rcx
10000809c: 74 71                       	je	0x10000810f <__text+0x498f>
10000809e: 48 83 c9 01                 	or	rcx, 1
1000080a2: 89 c6                       	mov	esi, eax
1000080a4: 29 ce                       	sub	esi, ecx
1000080a6: 48 89 ca                    	mov	rdx, rcx
1000080a9: 48 f7 d2                    	not	rdx
1000080ac: 48 01 c2                    	add	rdx, rax
1000080af: 48 83 e6 03                 	and	rsi, 3
1000080b3: 74 1d                       	je	0x1000080d2 <__text+0x4952>
1000080b5: 66 2e 0f 1f 84 00 00 00 00 00       	nop	word ptr cs:[rax + rax]
1000080bf: 90                          	nop
1000080c0: 49 8b 3c cc                 	mov	rdi, qword ptr [r12 + 8*rcx]
1000080c4: 48 89 3c cb                 	mov	qword ptr [rbx + 8*rcx], rdi
1000080c8: 48 83 c1 01                 	add	rcx, 1
1000080cc: 48 83 c6 ff                 	add	rsi, -1
1000080d0: 75 ee                       	jne	0x1000080c0 <__text+0x4940>
1000080d2: 48 83 fa 03                 	cmp	rdx, 3
1000080d6: 72 37                       	jb	0x10000810f <__text+0x498f>
1000080d8: 0f 1f 84 00 00 00 00 00     	nop	dword ptr [rax + rax]
1000080e0: 49 8b 14 cc                 	mov	rdx, qword ptr [r12 + 8*rcx]
1000080e4: 48 89 14 cb                 	mov	qword ptr [rbx + 8*rcx], rdx
1000080e8: 49 8b 54 cc 08              	mov	rdx, qword ptr [r12 + 8*rcx + 8]
1000080ed: 48 89 54 cb 08              	mov	qword ptr [rbx + 8*rcx + 8], rdx
1000080f2: 49 8b 54 cc 10              	mov	rdx, qword ptr [r12 + 8*rcx + 16]
1000080f7: 48 89 54 cb 10              	mov	qword ptr [rbx + 8*rcx + 16], rdx
1000080fc: 49 8b 54 cc 18              	mov	rdx, qword ptr [r12 + 8*rcx + 24]
100008101: 48 89 54 cb 18              	mov	qword ptr [rbx + 8*rcx + 24], rdx
100008106: 48 83 c1 04                 	add	rcx, 4
10000810a: 48 39 c8                    	cmp	rax, rcx
10000810d: 75 d1                       	jne	0x1000080e0 <__text+0x4960>
10000810f: 48 8d 05 da 4f 00 00        	lea	rax, [rip + 20442]      ## 0x10000d0f0 <dyld_stub_binder+0x10000d0f0>
100008116: 4c 89 f7                    	mov	rdi, r14
100008119: 44 89 fe                    	mov	esi, r15d
10000811c: 48 89 da                    	mov	rdx, rbx
10000811f: 31 c9                       	xor	ecx, ecx
100008121: ff 10                       	call	qword ptr [rax]
100008123: 41 89 c6                    	mov	r14d, eax
100008126: 48 8d 05 d3 4f 00 00        	lea	rax, [rip + 20435]      ## 0x10000d100 <dyld_stub_binder+0x10000d100>
10000812d: 48 89 df                    	mov	rdi, rbx
100008130: ff 10                       	call	qword ptr [rax]
100008132: 44 89 f0                    	mov	eax, r14d
100008135: 5b                          	pop	rbx
100008136: 41 5c                       	pop	r12
100008138: 41 5e                       	pop	r14
10000813a: 41 5f                       	pop	r15
10000813c: 5d                          	pop	rbp
10000813d: c3                          	ret
10000813e: 90                          	nop
10000813f: 90                          	nop
100008140: 55                          	push	rbp
100008141: 48 89 e5                    	mov	rbp, rsp
100008144: 41 56                       	push	r14
100008146: 53                          	push	rbx
100008147: 49 89 f6                    	mov	r14, rsi
10000814a: 48 89 fb                    	mov	rbx, rdi
10000814d: 48 8d 35 4c 35 00 00        	lea	rsi, [rip + 13644]      ## 0x10000b6a0 <dyld_stub_binder+0x10000b6a0>
100008154: e8 dd 15 00 00              	call	0x100009736 <dyld_stub_binder+0x100009736>
100008159: 48 89 05 c0 4e 00 00        	mov	qword ptr [rip + 20160], rax ## 0x10000d020 <dyld_stub_binder+0x10000d020>
100008160: 48 85 c0                    	test	rax, rax
100008163: 0f 84 b3 03 00 00           	je	0x10000851c <__text+0x4d9c>
100008169: 48 8d 35 54 35 00 00        	lea	rsi, [rip + 13652]      ## 0x10000b6c4 <dyld_stub_binder+0x10000b6c4>
100008170: 48 89 df                    	mov	rdi, rbx
100008173: e8 be 15 00 00              	call	0x100009736 <dyld_stub_binder+0x100009736>
100008178: 48 89 05 a9 4e 00 00        	mov	qword ptr [rip + 20137], rax ## 0x10000d028 <dyld_stub_binder+0x10000d028>
10000817f: 48 85 c0                    	test	rax, rax
100008182: 0f 84 a0 03 00 00           	je	0x100008528 <__text+0x4da8>
100008188: 48 8d 35 69 35 00 00        	lea	rsi, [rip + 13673]      ## 0x10000b6f8 <dyld_stub_binder+0x10000b6f8>
10000818f: 48 89 df                    	mov	rdi, rbx
100008192: e8 9f 15 00 00              	call	0x100009736 <dyld_stub_binder+0x100009736>
100008197: 48 89 05 92 4e 00 00        	mov	qword ptr [rip + 20114], rax ## 0x10000d030 <dyld_stub_binder+0x10000d030>
10000819e: 48 85 c0                    	test	rax, rax
1000081a1: 0f 84 8d 03 00 00           	je	0x100008534 <__text+0x4db4>
1000081a7: 48 8d 35 82 35 00 00        	lea	rsi, [rip + 13698]      ## 0x10000b730 <dyld_stub_binder+0x10000b730>
1000081ae: 48 89 df                    	mov	rdi, rbx
1000081b1: e8 80 15 00 00              	call	0x100009736 <dyld_stub_binder+0x100009736>
1000081b6: 48 89 05 7b 4e 00 00        	mov	qword ptr [rip + 20091], rax ## 0x10000d038 <dyld_stub_binder+0x10000d038>
1000081bd: 48 85 c0                    	test	rax, rax
1000081c0: 0f 84 7a 03 00 00           	je	0x100008540 <__text+0x4dc0>
1000081c6: 48 8d 35 93 35 00 00        	lea	rsi, [rip + 13715]      ## 0x10000b760 <dyld_stub_binder+0x10000b760>
1000081cd: 48 89 df                    	mov	rdi, rbx
1000081d0: e8 61 15 00 00              	call	0x100009736 <dyld_stub_binder+0x100009736>
1000081d5: 48 89 05 64 4e 00 00        	mov	qword ptr [rip + 20068], rax ## 0x10000d040 <dyld_stub_binder+0x10000d040>
1000081dc: 48 85 c0                    	test	rax, rax
1000081df: 0f 84 67 03 00 00           	je	0x10000854c <__text+0x4dcc>
1000081e5: 48 8d 35 a0 35 00 00        	lea	rsi, [rip + 13728]      ## 0x10000b78c <dyld_stub_binder+0x10000b78c>
1000081ec: 48 89 df                    	mov	rdi, rbx
1000081ef: e8 42 15 00 00              	call	0x100009736 <dyld_stub_binder+0x100009736>
1000081f4: 48 89 05 4d 4e 00 00        	mov	qword ptr [rip + 20045], rax ## 0x10000d048 <dyld_stub_binder+0x10000d048>
1000081fb: 48 85 c0                    	test	rax, rax
1000081fe: 0f 84 54 03 00 00           	je	0x100008558 <__text+0x4dd8>
100008204: 48 8d 35 b9 35 00 00        	lea	rsi, [rip + 13753]      ## 0x10000b7c4 <dyld_stub_binder+0x10000b7c4>
10000820b: 48 89 df                    	mov	rdi, rbx
10000820e: e8 23 15 00 00              	call	0x100009736 <dyld_stub_binder+0x100009736>
100008213: 48 89 05 36 4e 00 00        	mov	qword ptr [rip + 20022], rax ## 0x10000d050 <dyld_stub_binder+0x10000d050>
10000821a: 48 85 c0                    	test	rax, rax
10000821d: 0f 84 41 03 00 00           	je	0x100008564 <__text+0x4de4>
100008223: 48 8d 35 ce 35 00 00        	lea	rsi, [rip + 13774]      ## 0x10000b7f8 <dyld_stub_binder+0x10000b7f8>
10000822a: 48 89 df                    	mov	rdi, rbx
10000822d: e8 04 15 00 00              	call	0x100009736 <dyld_stub_binder+0x100009736>
100008232: 48 89 05 1f 4e 00 00        	mov	qword ptr [rip + 19999], rax ## 0x10000d058 <dyld_stub_binder+0x10000d058>
100008239: 48 85 c0                    	test	rax, rax
10000823c: 0f 84 2e 03 00 00           	je	0x100008570 <__text+0x4df0>
100008242: 48 8d 35 e3 35 00 00        	lea	rsi, [rip + 13795]      ## 0x10000b82c <dyld_stub_binder+0x10000b82c>
100008249: 48 89 df                    	mov	rdi, rbx
10000824c: e8 e5 14 00 00              	call	0x100009736 <dyld_stub_binder+0x100009736>
100008251: 48 89 05 08 4e 00 00        	mov	qword ptr [rip + 19976], rax ## 0x10000d060 <dyld_stub_binder+0x10000d060>
100008258: 48 85 c0                    	test	rax, rax
10000825b: 0f 84 1b 03 00 00           	je	0x10000857c <__text+0x4dfc>
100008261: 48 8d 35 00 36 00 00        	lea	rsi, [rip + 13824]      ## 0x10000b868 <dyld_stub_binder+0x10000b868>
100008268: 48 89 df                    	mov	rdi, rbx
10000826b: e8 c6 14 00 00              	call	0x100009736 <dyld_stub_binder+0x100009736>
100008270: 48 89 05 f1 4d 00 00        	mov	qword ptr [rip + 19953], rax ## 0x10000d068 <dyld_stub_binder+0x10000d068>
100008277: 48 85 c0                    	test	rax, rax
10000827a: 0f 84 08 03 00 00           	je	0x100008588 <__text+0x4e08>
100008280: 48 8d 35 0f 36 00 00        	lea	rsi, [rip + 13839]      ## 0x10000b896 <dyld_stub_binder+0x10000b896>
100008287: 48 89 df                    	mov	rdi, rbx
10000828a: e8 a7 14 00 00              	call	0x100009736 <dyld_stub_binder+0x100009736>
10000828f: 48 89 05 da 4d 00 00        	mov	qword ptr [rip + 19930], rax ## 0x10000d070 <dyld_stub_binder+0x10000d070>
100008296: 48 85 c0                    	test	rax, rax
100008299: 0f 84 f5 02 00 00           	je	0x100008594 <__text+0x4e14>
10000829f: 48 8d 35 22 36 00 00        	lea	rsi, [rip + 13858]      ## 0x10000b8c8 <dyld_stub_binder+0x10000b8c8>
1000082a6: 48 89 df                    	mov	rdi, rbx
1000082a9: e8 88 14 00 00              	call	0x100009736 <dyld_stub_binder+0x100009736>
1000082ae: 48 89 05 c3 4d 00 00        	mov	qword ptr [rip + 19907], rax ## 0x10000d078 <dyld_stub_binder+0x10000d078>
1000082b5: 48 85 c0                    	test	rax, rax
1000082b8: 0f 84 e2 02 00 00           	je	0x1000085a0 <__text+0x4e20>
1000082be: 48 8d 35 41 36 00 00        	lea	rsi, [rip + 13889]      ## 0x10000b906 <dyld_stub_binder+0x10000b906>
1000082c5: 48 89 df                    	mov	rdi, rbx
1000082c8: e8 69 14 00 00              	call	0x100009736 <dyld_stub_binder+0x100009736>
1000082cd: 48 89 05 ac 4d 00 00        	mov	qword ptr [rip + 19884], rax ## 0x10000d080 <dyld_stub_binder+0x10000d080>
1000082d4: 48 85 c0                    	test	rax, rax
1000082d7: 0f 84 cf 02 00 00           	je	0x1000085ac <__text+0x4e2c>
1000082dd: 48 8d 35 5c 36 00 00        	lea	rsi, [rip + 13916]      ## 0x10000b940 <dyld_stub_binder+0x10000b940>
1000082e4: 48 89 df                    	mov	rdi, rbx
1000082e7: e8 4a 14 00 00              	call	0x100009736 <dyld_stub_binder+0x100009736>
1000082ec: 48 89 05 95 4d 00 00        	mov	qword ptr [rip + 19861], rax ## 0x10000d088 <dyld_stub_binder+0x10000d088>
1000082f3: 48 85 c0                    	test	rax, rax
1000082f6: 0f 84 bc 02 00 00           	je	0x1000085b8 <__text+0x4e38>
1000082fc: 48 8d 35 73 36 00 00        	lea	rsi, [rip + 13939]      ## 0x10000b976 <dyld_stub_binder+0x10000b976>
100008303: 48 89 df                    	mov	rdi, rbx
100008306: e8 2b 14 00 00              	call	0x100009736 <dyld_stub_binder+0x100009736>
10000830b: 48 89 05 7e 4d 00 00        	mov	qword ptr [rip + 19838], rax ## 0x10000d090 <dyld_stub_binder+0x10000d090>
100008312: 48 85 c0                    	test	rax, rax
100008315: 0f 84 a9 02 00 00           	je	0x1000085c4 <__text+0x4e44>
10000831b: 48 8d 35 90 36 00 00        	lea	rsi, [rip + 13968]      ## 0x10000b9b2 <dyld_stub_binder+0x10000b9b2>
100008322: 48 89 df                    	mov	rdi, rbx
100008325: e8 0c 14 00 00              	call	0x100009736 <dyld_stub_binder+0x100009736>
10000832a: 48 89 05 67 4d 00 00        	mov	qword ptr [rip + 19815], rax ## 0x10000d098 <dyld_stub_binder+0x10000d098>
100008331: 48 85 c0                    	test	rax, rax
100008334: 0f 84 96 02 00 00           	je	0x1000085d0 <__text+0x4e50>
10000833a: 48 8d 35 a3 36 00 00        	lea	rsi, [rip + 13987]      ## 0x10000b9e4 <dyld_stub_binder+0x10000b9e4>
100008341: 48 89 df                    	mov	rdi, rbx
100008344: e8 ed 13 00 00              	call	0x100009736 <dyld_stub_binder+0x100009736>
100008349: 48 89 05 50 4d 00 00        	mov	qword ptr [rip + 19792], rax ## 0x10000d0a0 <dyld_stub_binder+0x10000d0a0>
100008350: 48 85 c0                    	test	rax, rax
100008353: 0f 84 80 02 00 00           	je	0x1000085d9 <__text+0x4e59>
100008359: 48 8d 35 ae 36 00 00        	lea	rsi, [rip + 13998]      ## 0x10000ba0e <dyld_stub_binder+0x10000ba0e>
100008360: 48 89 df                    	mov	rdi, rbx
100008363: e8 ce 13 00 00              	call	0x100009736 <dyld_stub_binder+0x100009736>
100008368: 48 89 05 39 4d 00 00        	mov	qword ptr [rip + 19769], rax ## 0x10000d0a8 <dyld_stub_binder+0x10000d0a8>
10000836f: 48 85 c0                    	test	rax, rax
100008372: 0f 84 6a 02 00 00           	je	0x1000085e2 <__text+0x4e62>
100008378: 48 8d 35 b9 36 00 00        	lea	rsi, [rip + 14009]      ## 0x10000ba38 <dyld_stub_binder+0x10000ba38>
10000837f: 48 89 df                    	mov	rdi, rbx
100008382: e8 af 13 00 00              	call	0x100009736 <dyld_stub_binder+0x100009736>
100008387: 48 89 05 22 4d 00 00        	mov	qword ptr [rip + 19746], rax ## 0x10000d0b0 <dyld_stub_binder+0x10000d0b0>
10000838e: 48 85 c0                    	test	rax, rax
100008391: 0f 84 54 02 00 00           	je	0x1000085eb <__text+0x4e6b>
100008397: 48 8d 35 d6 36 00 00        	lea	rsi, [rip + 14038]      ## 0x10000ba74 <dyld_stub_binder+0x10000ba74>
10000839e: 48 89 df                    	mov	rdi, rbx
1000083a1: e8 90 13 00 00              	call	0x100009736 <dyld_stub_binder+0x100009736>
1000083a6: 48 89 05 0b 4d 00 00        	mov	qword ptr [rip + 19723], rax ## 0x10000d0b8 <dyld_stub_binder+0x10000d0b8>
1000083ad: 48 85 c0                    	test	rax, rax
1000083b0: 0f 84 3e 02 00 00           	je	0x1000085f4 <__text+0x4e74>
1000083b6: 48 8d 35 e5 36 00 00        	lea	rsi, [rip + 14053]      ## 0x10000baa2 <dyld_stub_binder+0x10000baa2>
1000083bd: 48 89 df                    	mov	rdi, rbx
1000083c0: e8 71 13 00 00              	call	0x100009736 <dyld_stub_binder+0x100009736>
1000083c5: 48 89 05 f4 4c 00 00        	mov	qword ptr [rip + 19700], rax ## 0x10000d0c0 <dyld_stub_binder+0x10000d0c0>
1000083cc: 48 85 c0                    	test	rax, rax
1000083cf: 0f 84 28 02 00 00           	je	0x1000085fd <__text+0x4e7d>
1000083d5: 48 8d 35 fa 36 00 00        	lea	rsi, [rip + 14074]      ## 0x10000bad6 <dyld_stub_binder+0x10000bad6>
1000083dc: 48 89 df                    	mov	rdi, rbx
1000083df: e8 52 13 00 00              	call	0x100009736 <dyld_stub_binder+0x100009736>
1000083e4: 48 89 05 dd 4c 00 00        	mov	qword ptr [rip + 19677], rax ## 0x10000d0c8 <dyld_stub_binder+0x10000d0c8>
1000083eb: 48 85 c0                    	test	rax, rax
1000083ee: 0f 84 12 02 00 00           	je	0x100008606 <__text+0x4e86>
1000083f4: 48 8d 35 15 37 00 00        	lea	rsi, [rip + 14101]      ## 0x10000bb10 <dyld_stub_binder+0x10000bb10>
1000083fb: 48 89 df                    	mov	rdi, rbx
1000083fe: e8 33 13 00 00              	call	0x100009736 <dyld_stub_binder+0x100009736>
100008403: 48 89 05 c6 4c 00 00        	mov	qword ptr [rip + 19654], rax ## 0x10000d0d0 <dyld_stub_binder+0x10000d0d0>
10000840a: 48 85 c0                    	test	rax, rax
10000840d: 0f 84 fc 01 00 00           	je	0x10000860f <__text+0x4e8f>
100008413: 48 8d 35 24 37 00 00        	lea	rsi, [rip + 14116]      ## 0x10000bb3e <dyld_stub_binder+0x10000bb3e>
10000841a: 48 89 df                    	mov	rdi, rbx
10000841d: e8 14 13 00 00              	call	0x100009736 <dyld_stub_binder+0x100009736>
100008422: 48 89 05 af 4c 00 00        	mov	qword ptr [rip + 19631], rax ## 0x10000d0d8 <dyld_stub_binder+0x10000d0d8>
100008429: 48 85 c0                    	test	rax, rax
10000842c: 0f 84 e6 01 00 00           	je	0x100008618 <__text+0x4e98>
100008432: 48 8d 35 39 37 00 00        	lea	rsi, [rip + 14137]      ## 0x10000bb72 <dyld_stub_binder+0x10000bb72>
100008439: 48 89 df                    	mov	rdi, rbx
10000843c: e8 f5 12 00 00              	call	0x100009736 <dyld_stub_binder+0x100009736>
100008441: 48 89 05 98 4c 00 00        	mov	qword ptr [rip + 19608], rax ## 0x10000d0e0 <dyld_stub_binder+0x10000d0e0>
100008448: 48 85 c0                    	test	rax, rax
10000844b: 0f 84 d0 01 00 00           	je	0x100008621 <__text+0x4ea1>
100008451: 48 8d 35 46 37 00 00        	lea	rsi, [rip + 14150]      ## 0x10000bb9e <dyld_stub_binder+0x10000bb9e>
100008458: 48 89 df                    	mov	rdi, rbx
10000845b: e8 d6 12 00 00              	call	0x100009736 <dyld_stub_binder+0x100009736>
100008460: 48 89 05 81 4c 00 00        	mov	qword ptr [rip + 19585], rax ## 0x10000d0e8 <dyld_stub_binder+0x10000d0e8>
100008467: 48 85 c0                    	test	rax, rax
10000846a: 0f 84 ba 01 00 00           	je	0x10000862a <__text+0x4eaa>
100008470: 48 8d 35 4f 37 00 00        	lea	rsi, [rip + 14159]      ## 0x10000bbc6 <dyld_stub_binder+0x10000bbc6>
100008477: 48 89 df                    	mov	rdi, rbx
10000847a: e8 b7 12 00 00              	call	0x100009736 <dyld_stub_binder+0x100009736>
10000847f: 48 89 05 6a 4c 00 00        	mov	qword ptr [rip + 19562], rax ## 0x10000d0f0 <dyld_stub_binder+0x10000d0f0>
100008486: 48 85 c0                    	test	rax, rax
100008489: 0f 84 a4 01 00 00           	je	0x100008633 <__text+0x4eb3>
10000848f: 48 8d 35 5c 37 00 00        	lea	rsi, [rip + 14172]      ## 0x10000bbf2 <dyld_stub_binder+0x10000bbf2>
100008496: 48 89 df                    	mov	rdi, rbx
100008499: e8 98 12 00 00              	call	0x100009736 <dyld_stub_binder+0x100009736>
10000849e: 48 89 05 53 4c 00 00        	mov	qword ptr [rip + 19539], rax ## 0x10000d0f8 <dyld_stub_binder+0x10000d0f8>
1000084a5: 48 85 c0                    	test	rax, rax
1000084a8: 0f 84 8e 01 00 00           	je	0x10000863c <__text+0x4ebc>
1000084ae: 48 8d 35 63 37 00 00        	lea	rsi, [rip + 14179]      ## 0x10000bc18 <dyld_stub_binder+0x10000bc18>
1000084b5: 48 89 df                    	mov	rdi, rbx
1000084b8: e8 79 12 00 00              	call	0x100009736 <dyld_stub_binder+0x100009736>
1000084bd: 48 89 05 3c 4c 00 00        	mov	qword ptr [rip + 19516], rax ## 0x10000d100 <dyld_stub_binder+0x10000d100>
1000084c4: 48 85 c0                    	test	rax, rax
1000084c7: 0f 84 78 01 00 00           	je	0x100008645 <__text+0x4ec5>
1000084cd: 48 8d 35 68 37 00 00        	lea	rsi, [rip + 14184]      ## 0x10000bc3c <dyld_stub_binder+0x10000bc3c>
1000084d4: 4c 89 f7                    	mov	rdi, r14
1000084d7: e8 5a 12 00 00              	call	0x100009736 <dyld_stub_binder+0x100009736>
1000084dc: 48 89 05 25 4c 00 00        	mov	qword ptr [rip + 19493], rax ## 0x10000d108 <dyld_stub_binder+0x10000d108>
1000084e3: 48 85 c0                    	test	rax, rax
1000084e6: 0f 84 62 01 00 00           	je	0x10000864e <__text+0x4ece>
1000084ec: 48 8d 35 6b 37 00 00        	lea	rsi, [rip + 14187]      ## 0x10000bc5e <dyld_stub_binder+0x10000bc5e>
1000084f3: 4c 89 f7                    	mov	rdi, r14
1000084f6: e8 3b 12 00 00              	call	0x100009736 <dyld_stub_binder+0x100009736>
1000084fb: 48 89 c1                    	mov	rcx, rax
1000084fe: 48 89 05 0b 4c 00 00        	mov	qword ptr [rip + 19467], rax ## 0x10000d110 <dyld_stub_binder+0x10000d110>
100008505: 31 c0                       	xor	eax, eax
100008507: 48 85 c9                    	test	rcx, rcx
10000850a: 0f 85 51 01 00 00           	jne	0x100008661 <__text+0x4ee1>
100008510: 48 8d 3d 5c 37 00 00        	lea	rdi, [rip + 14172]      ## 0x10000bc73 <dyld_stub_binder+0x10000bc73>
100008517: e9 39 01 00 00              	jmp	0x100008655 <__text+0x4ed5>
10000851c: 48 8d 3d 86 31 00 00        	lea	rdi, [rip + 12678]      ## 0x10000b6a9 <dyld_stub_binder+0x10000b6a9>
100008523: e9 2d 01 00 00              	jmp	0x100008655 <__text+0x4ed5>
100008528: 48 8d 3d a6 31 00 00        	lea	rdi, [rip + 12710]      ## 0x10000b6d5 <dyld_stub_binder+0x10000b6d5>
10000852f: e9 21 01 00 00              	jmp	0x100008655 <__text+0x4ed5>
100008534: 48 8d 3d d0 31 00 00        	lea	rdi, [rip + 12752]      ## 0x10000b70b <dyld_stub_binder+0x10000b70b>
10000853b: e9 15 01 00 00              	jmp	0x100008655 <__text+0x4ed5>
100008540: 48 8d 3d f8 31 00 00        	lea	rdi, [rip + 12792]      ## 0x10000b73f <dyld_stub_binder+0x10000b73f>
100008547: e9 09 01 00 00              	jmp	0x100008655 <__text+0x4ed5>
10000854c: 48 8d 3d 1a 32 00 00        	lea	rdi, [rip + 12826]      ## 0x10000b76d <dyld_stub_binder+0x10000b76d>
100008553: e9 fd 00 00 00              	jmp	0x100008655 <__text+0x4ed5>
100008558: 48 8d 3d 40 32 00 00        	lea	rdi, [rip + 12864]      ## 0x10000b79f <dyld_stub_binder+0x10000b79f>
10000855f: e9 f1 00 00 00              	jmp	0x100008655 <__text+0x4ed5>
100008564: 48 8d 3d 6a 32 00 00        	lea	rdi, [rip + 12906]      ## 0x10000b7d5 <dyld_stub_binder+0x10000b7d5>
10000856b: e9 e5 00 00 00              	jmp	0x100008655 <__text+0x4ed5>
100008570: 48 8d 3d 92 32 00 00        	lea	rdi, [rip + 12946]      ## 0x10000b809 <dyld_stub_binder+0x10000b809>
100008577: e9 d9 00 00 00              	jmp	0x100008655 <__text+0x4ed5>
10000857c: 48 8d 3d be 32 00 00        	lea	rdi, [rip + 12990]      ## 0x10000b841 <dyld_stub_binder+0x10000b841>
100008583: e9 cd 00 00 00              	jmp	0x100008655 <__text+0x4ed5>
100008588: 48 8d 3d e7 32 00 00        	lea	rdi, [rip + 13031]      ## 0x10000b876 <dyld_stub_binder+0x10000b876>
10000858f: e9 c1 00 00 00              	jmp	0x100008655 <__text+0x4ed5>
100008594: 48 8d 3d 0b 33 00 00        	lea	rdi, [rip + 13067]      ## 0x10000b8a6 <dyld_stub_binder+0x10000b8a6>
10000859b: e9 b5 00 00 00              	jmp	0x100008655 <__text+0x4ed5>
1000085a0: 48 8d 3d 37 33 00 00        	lea	rdi, [rip + 13111]      ## 0x10000b8de <dyld_stub_binder+0x10000b8de>
1000085a7: e9 a9 00 00 00              	jmp	0x100008655 <__text+0x4ed5>
1000085ac: 48 8d 3d 67 33 00 00        	lea	rdi, [rip + 13159]      ## 0x10000b91a <dyld_stub_binder+0x10000b91a>
1000085b3: e9 9d 00 00 00              	jmp	0x100008655 <__text+0x4ed5>
1000085b8: 48 8d 3d 93 33 00 00        	lea	rdi, [rip + 13203]      ## 0x10000b952 <dyld_stub_binder+0x10000b952>
1000085bf: e9 91 00 00 00              	jmp	0x100008655 <__text+0x4ed5>
1000085c4: 48 8d 3d c0 33 00 00        	lea	rdi, [rip + 13248]      ## 0x10000b98b <dyld_stub_binder+0x10000b98b>
1000085cb: e9 85 00 00 00              	jmp	0x100008655 <__text+0x4ed5>
1000085d0: 48 8d 3d eb 33 00 00        	lea	rdi, [rip + 13291]      ## 0x10000b9c2 <dyld_stub_binder+0x10000b9c2>
1000085d7: eb 7c                       	jmp	0x100008655 <__text+0x4ed5>
1000085d9: 48 8d 3d 10 34 00 00        	lea	rdi, [rip + 13328]      ## 0x10000b9f0 <dyld_stub_binder+0x10000b9f0>
1000085e0: eb 73                       	jmp	0x100008655 <__text+0x4ed5>
1000085e2: 48 8d 3d 31 34 00 00        	lea	rdi, [rip + 13361]      ## 0x10000ba1a <dyld_stub_binder+0x10000ba1a>
1000085e9: eb 6a                       	jmp	0x100008655 <__text+0x4ed5>
1000085eb: 48 8d 3d 5b 34 00 00        	lea	rdi, [rip + 13403]      ## 0x10000ba4d <dyld_stub_binder+0x10000ba4d>
1000085f2: eb 61                       	jmp	0x100008655 <__text+0x4ed5>
1000085f4: 48 8d 3d 87 34 00 00        	lea	rdi, [rip + 13447]      ## 0x10000ba82 <dyld_stub_binder+0x10000ba82>
1000085fb: eb 58                       	jmp	0x100008655 <__text+0x4ed5>
1000085fd: 48 8d 3d af 34 00 00        	lea	rdi, [rip + 13487]      ## 0x10000bab3 <dyld_stub_binder+0x10000bab3>
100008604: eb 4f                       	jmp	0x100008655 <__text+0x4ed5>
100008606: 48 8d 3d dd 34 00 00        	lea	rdi, [rip + 13533]      ## 0x10000baea <dyld_stub_binder+0x10000baea>
10000860d: eb 46                       	jmp	0x100008655 <__text+0x4ed5>
10000860f: 48 8d 3d 08 35 00 00        	lea	rdi, [rip + 13576]      ## 0x10000bb1e <dyld_stub_binder+0x10000bb1e>
100008616: eb 3d                       	jmp	0x100008655 <__text+0x4ed5>
100008618: 48 8d 3d 30 35 00 00        	lea	rdi, [rip + 13616]      ## 0x10000bb4f <dyld_stub_binder+0x10000bb4f>
10000861f: eb 34                       	jmp	0x100008655 <__text+0x4ed5>
100008621: 48 8d 3d 57 35 00 00        	lea	rdi, [rip + 13655]      ## 0x10000bb7f <dyld_stub_binder+0x10000bb7f>
100008628: eb 2b                       	jmp	0x100008655 <__text+0x4ed5>
10000862a: 48 8d 3d 78 35 00 00        	lea	rdi, [rip + 13688]      ## 0x10000bba9 <dyld_stub_binder+0x10000bba9>
100008631: eb 22                       	jmp	0x100008655 <__text+0x4ed5>
100008633: 48 8d 3d 99 35 00 00        	lea	rdi, [rip + 13721]      ## 0x10000bbd3 <dyld_stub_binder+0x10000bbd3>
10000863a: eb 19                       	jmp	0x100008655 <__text+0x4ed5>
10000863c: 48 8d 3d b9 35 00 00        	lea	rdi, [rip + 13753]      ## 0x10000bbfc <dyld_stub_binder+0x10000bbfc>
100008643: eb 10                       	jmp	0x100008655 <__text+0x4ed5>
100008645: 48 8d 3d d5 35 00 00        	lea	rdi, [rip + 13781]      ## 0x10000bc21 <dyld_stub_binder+0x10000bc21>
10000864c: eb 07                       	jmp	0x100008655 <__text+0x4ed5>
10000864e: 48 8d 3d ef 35 00 00        	lea	rdi, [rip + 13807]      ## 0x10000bc44 <dyld_stub_binder+0x10000bc44>
100008655: 31 c0                       	xor	eax, eax
100008657: e8 c4 bb ff ff              	call	0x100004220 <__text+0xaa0>
10000865c: b8 ff ff ff ff              	mov	eax, 4294967295
100008661: 5b                          	pop	rbx
100008662: 41 5e                       	pop	r14
100008664: 5d                          	pop	rbp
100008665: c3                          	ret
100008666: 90                          	nop
100008667: 90                          	nop
100008668: 90                          	nop
100008669: 90                          	nop
10000866a: 90                          	nop
10000866b: 90                          	nop
10000866c: 90                          	nop
10000866d: 90                          	nop
10000866e: 90                          	nop
10000866f: 90                          	nop
100008670: 55                          	push	rbp
100008671: 48 89 e5                    	mov	rbp, rsp
100008674: 41 57                       	push	r15
100008676: 41 56                       	push	r14
100008678: 41 55                       	push	r13
10000867a: 41 54                       	push	r12
10000867c: 53                          	push	rbx
10000867d: 48 81 ec 08 04 00 00        	sub	rsp, 1032
100008684: 49 89 d7                    	mov	r15, rdx
100008687: 49 89 f5                    	mov	r13, rsi
10000868a: 48 8b 05 77 39 00 00        	mov	rax, qword ptr [rip + 14711] ## 0x10000c008 <dyld_stub_binder+0x10000c008>
100008691: 48 8b 00                    	mov	rax, qword ptr [rax]
100008694: 48 89 45 d0                 	mov	qword ptr [rbp - 48], rax
100008698: 48 89 f7                    	mov	rdi, rsi
10000869b: e8 aa 11 00 00              	call	0x10000984a <dyld_stub_binder+0x10000984a>
1000086a0: 48 89 c3                    	mov	rbx, rax
1000086a3: 4c 89 ff                    	mov	rdi, r15
1000086a6: e8 9f 11 00 00              	call	0x10000984a <dyld_stub_binder+0x10000984a>
1000086ab: 48 01 d8                    	add	rax, rbx
1000086ae: 48 83 c0 01                 	add	rax, 1
1000086b2: 48 3d ff 03 00 00           	cmp	rax, 1023
1000086b8: 76 0b                       	jbe	0x1000086c5 <__text+0x4f45>
1000086ba: 41 bc ff ff ff ff           	mov	r12d, 4294967295
1000086c0: e9 c5 00 00 00              	jmp	0x10000878a <__text+0x500a>
1000086c5: 48 8d 15 ce 35 00 00        	lea	rdx, [rip + 13774]      ## 0x10000bc9a <dyld_stub_binder+0x10000bc9a>
1000086cc: 45 31 e4                    	xor	r12d, r12d
1000086cf: 48 8d bd d0 fb ff ff        	lea	rdi, [rbp - 1072]
1000086d6: 41 be 00 04 00 00           	mov	r14d, 1024
1000086dc: be 00 04 00 00              	mov	esi, 1024
1000086e1: 4c 89 e9                    	mov	rcx, r13
1000086e4: 41 b8 2f 00 00 00           	mov	r8d, 47
1000086ea: 31 c0                       	xor	eax, eax
1000086ec: e8 29 11 00 00              	call	0x10000981a <dyld_stub_binder+0x10000981a>
1000086f1: 41 89 c5                    	mov	r13d, eax
1000086f4: 4c 89 ff                    	mov	rdi, r15
1000086f7: be 2f 00 00 00              	mov	esi, 47
1000086fc: e8 2b 11 00 00              	call	0x10000982c <dyld_stub_binder+0x10000982c>
100008701: 48 85 c0                    	test	rax, rax
100008704: 0f 84 80 00 00 00           	je	0x10000878a <__text+0x500a>
10000870a: 48 89 c3                    	mov	rbx, rax
10000870d: 49 63 c5                    	movsxd	rax, r13d
100008710: 4c 8d 24 28                 	lea	r12, [rax + rbp]
100008714: 49 81 c4 d0 fb ff ff        	add	r12, -1072
10000871b: 49 29 c6                    	sub	r14, rax
10000871e: 4c 8d ad d0 fb ff ff        	lea	r13, [rbp - 1072]
100008725: eb 22                       	jmp	0x100008749 <__text+0x4fc9>
100008727: 66 0f 1f 84 00 00 00 00 00  	nop	word ptr [rax + rax]
100008730: 48 83 c3 01                 	add	rbx, 1
100008734: 48 89 df                    	mov	rdi, rbx
100008737: be 2f 00 00 00              	mov	esi, 47
10000873c: e8 eb 10 00 00              	call	0x10000982c <dyld_stub_binder+0x10000982c>
100008741: 48 89 c3                    	mov	rbx, rax
100008744: 48 85 c0                    	test	rax, rax
100008747: 74 3e                       	je	0x100008787 <__text+0x5007>
100008749: 89 d9                       	mov	ecx, ebx
10000874b: 44 29 f9                    	sub	ecx, r15d
10000874e: 4c 89 e7                    	mov	rdi, r12
100008751: 4c 89 f6                    	mov	rsi, r14
100008754: 48 8d 15 44 35 00 00        	lea	rdx, [rip + 13636]      ## 0x10000bc9f <dyld_stub_binder+0x10000bc9f>
10000875b: 4d 89 f8                    	mov	r8, r15
10000875e: 31 c0                       	xor	eax, eax
100008760: e8 b5 10 00 00              	call	0x10000981a <dyld_stub_binder+0x10000981a>
100008765: 4c 89 ef                    	mov	rdi, r13
100008768: e8 a3 cc ff ff              	call	0x100005410 <__text+0x1c90>
10000876d: 85 c0                       	test	eax, eax
10000876f: 75 bf                       	jne	0x100008730 <__text+0x4fb0>
100008771: 4c 89 ef                    	mov	rdi, r13
100008774: be c0 01 00 00              	mov	esi, 448
100008779: e8 5a 10 00 00              	call	0x1000097d8 <dyld_stub_binder+0x1000097d8>
10000877e: 85 c0                       	test	eax, eax
100008780: 79 ae                       	jns	0x100008730 <__text+0x4fb0>
100008782: e9 33 ff ff ff              	jmp	0x1000086ba <__text+0x4f3a>
100008787: 45 31 e4                    	xor	r12d, r12d
10000878a: 48 8b 05 77 38 00 00        	mov	rax, qword ptr [rip + 14455] ## 0x10000c008 <dyld_stub_binder+0x10000c008>
100008791: 48 8b 00                    	mov	rax, qword ptr [rax]
100008794: 48 3b 45 d0                 	cmp	rax, qword ptr [rbp - 48]
100008798: 75 15                       	jne	0x1000087af <__text+0x502f>
10000879a: 44 89 e0                    	mov	eax, r12d
10000879d: 48 81 c4 08 04 00 00        	add	rsp, 1032
1000087a4: 5b                          	pop	rbx
1000087a5: 41 5c                       	pop	r12
1000087a7: 41 5d                       	pop	r13
1000087a9: 41 5e                       	pop	r14
1000087ab: 41 5f                       	pop	r15
1000087ad: 5d                          	pop	rbp
1000087ae: c3                          	ret
1000087af: e8 4c 0f 00 00              	call	0x100009700 <dyld_stub_binder+0x100009700>
1000087b4: 66 2e 0f 1f 84 00 00 00 00 00       	nop	word ptr cs:[rax + rax]
1000087be: 66 90                       	nop
1000087c0: 55                          	push	rbp
1000087c1: 48 89 e5                    	mov	rbp, rsp
1000087c4: 41 57                       	push	r15
1000087c6: 41 56                       	push	r14
1000087c8: 41 55                       	push	r13
1000087ca: 41 54                       	push	r12
1000087cc: 53                          	push	rbx
1000087cd: 48 81 ec 98 10 00 00        	sub	rsp, 4248
1000087d4: 49 89 f6                    	mov	r14, rsi
1000087d7: 49 89 ff                    	mov	r15, rdi
1000087da: 48 8b 05 27 38 00 00        	mov	rax, qword ptr [rip + 14375] ## 0x10000c008 <dyld_stub_binder+0x10000c008>
1000087e1: 48 8b 00                    	mov	rax, qword ptr [rax]
1000087e4: 48 89 45 d0                 	mov	qword ptr [rbp - 48], rax
1000087e8: 48 8d 35 a5 13 00 00        	lea	rsi, [rip + 5029]       ## 0x100009b94 <dyld_stub_binder+0x100009b94>
1000087ef: e8 72 0f 00 00              	call	0x100009766 <dyld_stub_binder+0x100009766>
1000087f4: bb ff ff ff ff              	mov	ebx, 4294967295
1000087f9: 48 85 c0                    	test	rax, rax
1000087fc: 0f 84 e2 00 00 00           	je	0x1000088e4 <__text+0x5164>
100008802: 49 89 c4                    	mov	r12, rax
100008805: 48 8d 35 6d 14 00 00        	lea	rsi, [rip + 5229]       ## 0x100009c79 <dyld_stub_binder+0x100009c79>
10000880c: 4c 89 f7                    	mov	rdi, r14
10000880f: e8 52 0f 00 00              	call	0x100009766 <dyld_stub_binder+0x100009766>
100008814: 48 85 c0                    	test	rax, rax
100008817: 74 66                       	je	0x10000887f <__text+0x50ff>
100008819: 49 89 c6                    	mov	r14, rax
10000881c: 4c 8d ad d0 ef ff ff        	lea	r13, [rbp - 4144]
100008823: 31 db                       	xor	ebx, ebx
100008825: 66 2e 0f 1f 84 00 00 00 00 00       	nop	word ptr cs:[rax + rax]
10000882f: 90                          	nop
100008830: 4c 89 e7                    	mov	rdi, r12
100008833: e8 16 0f 00 00              	call	0x10000974e <dyld_stub_binder+0x10000974e>
100008838: 85 c0                       	test	eax, eax
10000883a: 75 61                       	jne	0x10000889d <__text+0x511d>
10000883c: be 01 00 00 00              	mov	esi, 1
100008841: ba 00 10 00 00              	mov	edx, 4096
100008846: 4c 89 ef                    	mov	rdi, r13
100008849: 4c 89 e1                    	mov	rcx, r12
10000884c: e8 27 0f 00 00              	call	0x100009778 <dyld_stub_binder+0x100009778>
100008851: 48 85 c0                    	test	rax, rax
100008854: 74 2e                       	je	0x100008884 <__text+0x5104>
100008856: be 01 00 00 00              	mov	esi, 1
10000885b: 4c 89 ef                    	mov	rdi, r13
10000885e: 48 89 c2                    	mov	rdx, rax
100008861: 4c 89 f1                    	mov	rcx, r14
100008864: e8 27 0f 00 00              	call	0x100009790 <dyld_stub_binder+0x100009790>
100008869: 48 85 c0                    	test	rax, rax
10000886c: 74 0c                       	je	0x10000887a <__text+0x50fa>
10000886e: 4c 89 f7                    	mov	rdi, r14
100008871: e8 de 0e 00 00              	call	0x100009754 <dyld_stub_binder+0x100009754>
100008876: 85 c0                       	test	eax, eax
100008878: 74 b6                       	je	0x100008830 <__text+0x50b0>
10000887a: 4c 89 f7                    	mov	rdi, r14
10000887d: eb 14                       	jmp	0x100008893 <__text+0x5113>
10000887f: 4c 89 e7                    	mov	rdi, r12
100008882: eb 5b                       	jmp	0x1000088df <__text+0x515f>
100008884: 4c 89 e7                    	mov	rdi, r12
100008887: e8 c8 0e 00 00              	call	0x100009754 <dyld_stub_binder+0x100009754>
10000888c: 85 c0                       	test	eax, eax
10000888e: 74 0d                       	je	0x10000889d <__text+0x511d>
100008890: 4c 89 e7                    	mov	rdi, r12
100008893: e8 7a 0e 00 00              	call	0x100009712 <dyld_stub_binder+0x100009712>
100008898: bb ff ff ff ff              	mov	ebx, 4294967295
10000889d: 48 8d b5 40 ef ff ff        	lea	rsi, [rbp - 4288]
1000088a4: 4c 89 ff                    	mov	rdi, r15
1000088a7: e8 74 0f 00 00              	call	0x100009820 <dyld_stub_binder+0x100009820>
1000088ac: b9 80 01 00 00              	mov	ecx, 384
1000088b1: 44 8b bd 44 ef ff ff        	mov	r15d, dword ptr [rbp - 4284]
1000088b8: 41 09 cf                    	or	r15d, ecx
1000088bb: 85 c0                       	test	eax, eax
1000088bd: 44 0f 45 f9                 	cmovne	r15d, ecx
1000088c1: 4c 89 f7                    	mov	rdi, r14
1000088c4: e8 97 0e 00 00              	call	0x100009760 <dyld_stub_binder+0x100009760>
1000088c9: 41 0f b7 f7                 	movzx	esi, r15w
1000088cd: 89 c7                       	mov	edi, eax
1000088cf: e8 6e 0e 00 00              	call	0x100009742 <dyld_stub_binder+0x100009742>
1000088d4: 4c 89 e7                    	mov	rdi, r12
1000088d7: e8 6c 0e 00 00              	call	0x100009748 <dyld_stub_binder+0x100009748>
1000088dc: 4c 89 f7                    	mov	rdi, r14
1000088df: e8 64 0e 00 00              	call	0x100009748 <dyld_stub_binder+0x100009748>
1000088e4: 48 8b 05 1d 37 00 00        	mov	rax, qword ptr [rip + 14109] ## 0x10000c008 <dyld_stub_binder+0x10000c008>
1000088eb: 48 8b 00                    	mov	rax, qword ptr [rax]
1000088ee: 48 3b 45 d0                 	cmp	rax, qword ptr [rbp - 48]
1000088f2: 75 14                       	jne	0x100008908 <__text+0x5188>
1000088f4: 89 d8                       	mov	eax, ebx
1000088f6: 48 81 c4 98 10 00 00        	add	rsp, 4248
1000088fd: 5b                          	pop	rbx
1000088fe: 41 5c                       	pop	r12
100008900: 41 5d                       	pop	r13
100008902: 41 5e                       	pop	r14
100008904: 41 5f                       	pop	r15
100008906: 5d                          	pop	rbp
100008907: c3                          	ret
100008908: e8 f3 0d 00 00              	call	0x100009700 <dyld_stub_binder+0x100009700>
10000890d: 0f 1f 00                    	nop	dword ptr [rax]
100008910: 55                          	push	rbp
100008911: 48 89 e5                    	mov	rbp, rsp
100008914: 41 57                       	push	r15
100008916: 41 56                       	push	r14
100008918: 41 55                       	push	r13
10000891a: 41 54                       	push	r12
10000891c: 53                          	push	rbx
10000891d: 48 83 ec 28                 	sub	rsp, 40
100008921: 49 89 d7                    	mov	r15, rdx
100008924: 48 89 75 b0                 	mov	qword ptr [rbp - 80], rsi
100008928: 48 89 fb                    	mov	rbx, rdi
10000892b: bf 00 20 00 00              	mov	edi, 8192
100008930: e8 8b 0e 00 00              	call	0x1000097c0 <dyld_stub_binder+0x1000097c0>
100008935: 48 85 c0                    	test	rax, rax
100008938: 48 89 45 d0                 	mov	qword ptr [rbp - 48], rax
10000893c: 74 27                       	je	0x100008965 <__text+0x51e5>
10000893e: 48 89 5d c8                 	mov	qword ptr [rbp - 56], rbx
100008942: 48 89 df                    	mov	rdi, rbx
100008945: 31 db                       	xor	ebx, ebx
100008947: 31 f6                       	xor	esi, esi
100008949: ba 02 00 00 00              	mov	edx, 2
10000894e: e8 31 0e 00 00              	call	0x100009784 <dyld_stub_binder+0x100009784>
100008953: 85 c0                       	test	eax, eax
100008955: 78 10                       	js	0x100008967 <__text+0x51e7>
100008957: 48 8b 7d c8                 	mov	rdi, qword ptr [rbp - 56]
10000895b: e8 2a 0e 00 00              	call	0x10000978a <dyld_stub_binder+0x10000978a>
100008960: 4c 39 f8                    	cmp	rax, r15
100008963: 73 1d                       	jae	0x100008982 <__text+0x5202>
100008965: 31 db                       	xor	ebx, ebx
100008967: 48 8b 7d d0                 	mov	rdi, qword ptr [rbp - 48]
10000896b: e8 0e 0e 00 00              	call	0x10000977e <dyld_stub_binder+0x10000977e>
100008970: 48 89 d8                    	mov	rax, rbx
100008973: 48 83 c4 28                 	add	rsp, 40
100008977: 5b                          	pop	rbx
100008978: 41 5c                       	pop	r12
10000897a: 41 5d                       	pop	r13
10000897c: 41 5e                       	pop	r14
10000897e: 41 5f                       	pop	r15
100008980: 5d                          	pop	rbp
100008981: c3                          	ret
100008982: 49 89 c5                    	mov	r13, rax
100008985: b8 01 00 00 00              	mov	eax, 1
10000898a: 4c 29 f8                    	sub	rax, r15
10000898d: 48 89 45 b8                 	mov	qword ptr [rbp - 72], rax
100008991: 4c 89 f8                    	mov	rax, r15
100008994: 48 f7 d8                    	neg	rax
100008997: 48 89 45 c0                 	mov	qword ptr [rbp - 64], rax
10000899b: 31 db                       	xor	ebx, ebx
10000899d: eb 13                       	jmp	0x1000089b2 <__text+0x5232>
10000899f: 90                          	nop
1000089a0: 4f 8d 2c 3c                 	lea	r13, [r12 + r15]
1000089a4: 49 83 c5 ff                 	add	r13, -1
1000089a8: 4d 85 e4                    	test	r12, r12
1000089ab: bb 00 00 00 00              	mov	ebx, 0
1000089b0: 74 b5                       	je	0x100008967 <__text+0x51e7>
1000089b2: 4d 8d a5 00 e0 ff ff        	lea	r12, [r13 - 8192]
1000089b9: 49 81 fd ff 1f 00 00        	cmp	r13, 8191
1000089c0: 4c 0f 46 e3                 	cmovbe	r12, rbx
1000089c4: 4d 89 ee                    	mov	r14, r13
1000089c7: 4d 29 e6                    	sub	r14, r12
1000089ca: 4d 39 fe                    	cmp	r14, r15
1000089cd: 72 98                       	jb	0x100008967 <__text+0x51e7>
1000089cf: 48 8b 5d c8                 	mov	rbx, qword ptr [rbp - 56]
1000089d3: 48 89 df                    	mov	rdi, rbx
1000089d6: 4c 89 e6                    	mov	rsi, r12
1000089d9: 31 d2                       	xor	edx, edx
1000089db: e8 a4 0d 00 00              	call	0x100009784 <dyld_stub_binder+0x100009784>
1000089e0: 85 c0                       	test	eax, eax
1000089e2: 78 81                       	js	0x100008965 <__text+0x51e5>
1000089e4: be 01 00 00 00              	mov	esi, 1
1000089e9: 48 8b 7d d0                 	mov	rdi, qword ptr [rbp - 48]
1000089ed: 4c 89 f2                    	mov	rdx, r14
1000089f0: 48 89 d9                    	mov	rcx, rbx
1000089f3: e8 80 0d 00 00              	call	0x100009778 <dyld_stub_binder+0x100009778>
1000089f8: 4c 39 f0                    	cmp	rax, r14
1000089fb: 0f 85 64 ff ff ff           	jne	0x100008965 <__text+0x51e5>
100008a01: 4c 03 75 b8                 	add	r14, qword ptr [rbp - 72]
100008a05: 74 99                       	je	0x1000089a0 <__text+0x5220>
100008a07: 4c 03 6d c0                 	add	r13, qword ptr [rbp - 64]
100008a0b: 4d 8d 74 24 ff              	lea	r14, [r12 - 1]
100008a10: 48 8b 5d d0                 	mov	rbx, qword ptr [rbp - 48]
100008a14: 4c 29 e3                    	sub	rbx, r12
100008a17: 66 0f 1f 84 00 00 00 00 00  	nop	word ptr [rax + rax]
100008a20: 4a 8d 3c 2b                 	lea	rdi, [rbx + r13]
100008a24: 48 8b 75 b0                 	mov	rsi, qword ptr [rbp - 80]
100008a28: 4c 89 fa                    	mov	rdx, r15
100008a2b: e8 9c 0d 00 00              	call	0x1000097cc <dyld_stub_binder+0x1000097cc>
100008a30: 85 c0                       	test	eax, eax
100008a32: 74 0e                       	je	0x100008a42 <__text+0x52c2>
100008a34: 49 83 c5 ff                 	add	r13, -1
100008a38: 4d 39 ee                    	cmp	r14, r13
100008a3b: 75 e3                       	jne	0x100008a20 <__text+0x52a0>
100008a3d: e9 5e ff ff ff              	jmp	0x1000089a0 <__text+0x5220>
100008a42: 4c 89 eb                    	mov	rbx, r13
100008a45: e9 1d ff ff ff              	jmp	0x100008967 <__text+0x51e7>
100008a4a: 90                          	nop
100008a4b: 90                          	nop
100008a4c: 90                          	nop
100008a4d: 90                          	nop
100008a4e: 90                          	nop
100008a4f: 90                          	nop
100008a50: 55                          	push	rbp
100008a51: 48 89 e5                    	mov	rbp, rsp
100008a54: e8 3d 0d 00 00              	call	0x100009796 <dyld_stub_binder+0x100009796>
100008a59: 48 85 c0                    	test	rax, rax
100008a5c: 74 0e                       	je	0x100008a6c <__text+0x52ec>
100008a5e: 80 38 00                    	cmp	byte ptr [rax], 0
100008a61: 74 09                       	je	0x100008a6c <__text+0x52ec>
100008a63: 48 89 c7                    	mov	rdi, rax
100008a66: 5d                          	pop	rbp
100008a67: e9 d2 0d 00 00              	jmp	0x10000983e <dyld_stub_binder+0x10000983e>
100008a6c: 31 c0                       	xor	eax, eax
100008a6e: 5d                          	pop	rbp
100008a6f: c3                          	ret
100008a70: 55                          	push	rbp
100008a71: 48 89 e5                    	mov	rbp, rsp
100008a74: ba 01 00 00 00              	mov	edx, 1
100008a79: 5d                          	pop	rbp
100008a7a: e9 8f 0d 00 00              	jmp	0x10000980e <dyld_stub_binder+0x10000980e>
100008a7f: 90                          	nop
100008a80: 55                          	push	rbp
100008a81: 48 89 e5                    	mov	rbp, rsp
100008a84: 5d                          	pop	rbp
100008a85: e9 ea 0d 00 00              	jmp	0x100009874 <dyld_stub_binder+0x100009874>
100008a8a: 66 0f 1f 44 00 00           	nop	word ptr [rax + rax]
100008a90: 55                          	push	rbp
100008a91: 48 89 e5                    	mov	rbp, rsp
100008a94: 41 57                       	push	r15
100008a96: 41 56                       	push	r14
100008a98: 41 55                       	push	r13
100008a9a: 41 54                       	push	r12
100008a9c: 53                          	push	rbx
100008a9d: 48 81 ec 08 04 00 00        	sub	rsp, 1032
100008aa4: 49 89 fe                    	mov	r14, rdi
100008aa7: 48 8b 05 5a 35 00 00        	mov	rax, qword ptr [rip + 13658] ## 0x10000c008 <dyld_stub_binder+0x10000c008>
100008aae: 48 8b 00                    	mov	rax, qword ptr [rax]
100008ab1: 48 89 45 d0                 	mov	qword ptr [rbp - 48], rax
100008ab5: 4c 8b bf 50 0c 00 00        	mov	r15, qword ptr [rdi + 3152]
100008abc: 4d 85 ff                    	test	r15, r15
100008abf: 74 27                       	je	0x100008ae8 <__text+0x5368>
100008ac1: 4c 89 ff                    	mov	rdi, r15
100008ac4: e8 81 0d 00 00              	call	0x10000984a <dyld_stub_binder+0x10000984a>
100008ac9: 48 3d 00 04 00 00           	cmp	rax, 1024
100008acf: 0f 82 64 04 00 00           	jb	0x100008f39 <__text+0x57b9>
100008ad5: 48 8d 3d 97 33 00 00        	lea	rdi, [rip + 13207]      ## 0x10000be73 <dyld_stub_binder+0x10000be73>
100008adc: 31 c0                       	xor	eax, eax
100008ade: e8 3d b7 ff ff              	call	0x100004220 <__text+0xaa0>
100008ae3: e9 1f 05 00 00              	jmp	0x100009007 <__text+0x5887>
100008ae8: 4d 8d be 32 08 00 00        	lea	r15, [r14 + 2098]
100008aef: 48 8d 3d ae 31 00 00        	lea	rdi, [rip + 12718]      ## 0x10000bca4 <dyld_stub_binder+0x10000bca4>
100008af6: e8 9b 0c 00 00              	call	0x100009796 <dyld_stub_binder+0x100009796>
100008afb: 48 85 c0                    	test	rax, rax
100008afe: 0f 84 c8 00 00 00           	je	0x100008bcc <__text+0x544c>
100008b04: 80 38 00                    	cmp	byte ptr [rax], 0
100008b07: 0f 84 bf 00 00 00           	je	0x100008bcc <__text+0x544c>
100008b0d: 48 89 c7                    	mov	rdi, rax
100008b10: e8 29 0d 00 00              	call	0x10000983e <dyld_stub_binder+0x10000983e>
100008b15: 48 85 c0                    	test	rax, rax
100008b18: 0f 84 ae 00 00 00           	je	0x100008bcc <__text+0x544c>
100008b1e: 48 89 c3                    	mov	rbx, rax
100008b21: 48 8d 15 08 12 00 00        	lea	rdx, [rip + 4616]       ## 0x100009d30 <dyld_stub_binder+0x100009d30>
100008b28: be 00 04 00 00              	mov	esi, 1024
100008b2d: 4c 89 ff                    	mov	rdi, r15
100008b30: 48 89 c1                    	mov	rcx, rax
100008b33: 31 c0                       	xor	eax, eax
100008b35: e8 e0 0c 00 00              	call	0x10000981a <dyld_stub_binder+0x10000981a>
100008b3a: 41 89 c4                    	mov	r12d, eax
100008b3d: 48 89 df                    	mov	rdi, rbx
100008b40: e8 39 0c 00 00              	call	0x10000977e <dyld_stub_binder+0x10000977e>
100008b45: 41 81 fc ff 03 00 00        	cmp	r12d, 1023
100008b4c: 7f 7e                       	jg	0x100008bcc <__text+0x544c>
100008b4e: 4c 89 ff                    	mov	rdi, r15
100008b51: e8 f4 0c 00 00              	call	0x10000984a <dyld_stub_binder+0x10000984a>
100008b56: 42 8a 8c 30 31 08 00 00     	mov	cl, byte ptr [rax + r14 + 2097]
100008b5e: 31 d2                       	xor	edx, edx
100008b60: 80 f9 2f                    	cmp	cl, 47
100008b63: 0f 94 c2                    	sete	dl
100008b66: 48 f7 da                    	neg	rdx
100008b69: 48 01 d0                    	add	rax, rdx
100008b6c: 48 83 c0 0b                 	add	rax, 11
100008b70: 48 3d ff 03 00 00           	cmp	rax, 1023
100008b76: 77 54                       	ja	0x100008bcc <__text+0x544c>
100008b78: 80 f9 2f                    	cmp	cl, 47
100008b7b: 74 13                       	je	0x100008b90 <__text+0x5410>
100008b7d: 4c 89 ff                    	mov	rdi, r15
100008b80: e8 c5 0c 00 00              	call	0x10000984a <dyld_stub_binder+0x10000984a>
100008b85: 66 41 c7 84 06 32 08 00 00 2f 00    	mov	word ptr [r14 + rax + 2098], 47
100008b90: 4c 89 ff                    	mov	rdi, r15
100008b93: e8 b2 0c 00 00              	call	0x10000984a <dyld_stub_binder+0x10000984a>
100008b98: 48 b9 5f 4d 45 49 58 58 58 58       	movabs	rcx, 6365935209497840991
100008ba2: 49 89 8c 06 32 08 00 00     	mov	qword ptr [r14 + rax + 2098], rcx
100008baa: 41 c7 84 06 39 08 00 00 58 58 58 00 	mov	dword ptr [r14 + rax + 2105], 5789784
100008bb6: 4c 89 ff                    	mov	rdi, r15
100008bb9: e8 20 0c 00 00              	call	0x1000097de <dyld_stub_binder+0x1000097de>
100008bbe: 48 89 c1                    	mov	rcx, rax
100008bc1: 31 c0                       	xor	eax, eax
100008bc3: 48 85 c9                    	test	rcx, rcx
100008bc6: 0f 85 55 04 00 00           	jne	0x100009021 <__text+0x58a1>
100008bcc: 48 8d 3d d8 30 00 00        	lea	rdi, [rip + 12504]      ## 0x10000bcab <dyld_stub_binder+0x10000bcab>
100008bd3: e8 be 0b 00 00              	call	0x100009796 <dyld_stub_binder+0x100009796>
100008bd8: 48 85 c0                    	test	rax, rax
100008bdb: 0f 84 c8 00 00 00           	je	0x100008ca9 <__text+0x5529>
100008be1: 80 38 00                    	cmp	byte ptr [rax], 0
100008be4: 0f 84 bf 00 00 00           	je	0x100008ca9 <__text+0x5529>
100008bea: 48 89 c7                    	mov	rdi, rax
100008bed: e8 4c 0c 00 00              	call	0x10000983e <dyld_stub_binder+0x10000983e>
100008bf2: 48 85 c0                    	test	rax, rax
100008bf5: 0f 84 ae 00 00 00           	je	0x100008ca9 <__text+0x5529>
100008bfb: 48 89 c3                    	mov	rbx, rax
100008bfe: 48 8d 15 2b 11 00 00        	lea	rdx, [rip + 4395]       ## 0x100009d30 <dyld_stub_binder+0x100009d30>
100008c05: be 00 04 00 00              	mov	esi, 1024
100008c0a: 4c 89 ff                    	mov	rdi, r15
100008c0d: 48 89 c1                    	mov	rcx, rax
100008c10: 31 c0                       	xor	eax, eax
100008c12: e8 03 0c 00 00              	call	0x10000981a <dyld_stub_binder+0x10000981a>
100008c17: 41 89 c4                    	mov	r12d, eax
100008c1a: 48 89 df                    	mov	rdi, rbx
100008c1d: e8 5c 0b 00 00              	call	0x10000977e <dyld_stub_binder+0x10000977e>
100008c22: 41 81 fc ff 03 00 00        	cmp	r12d, 1023
100008c29: 7f 7e                       	jg	0x100008ca9 <__text+0x5529>
100008c2b: 4c 89 ff                    	mov	rdi, r15
100008c2e: e8 17 0c 00 00              	call	0x10000984a <dyld_stub_binder+0x10000984a>
100008c33: 42 8a 8c 30 31 08 00 00     	mov	cl, byte ptr [rax + r14 + 2097]
100008c3b: 31 d2                       	xor	edx, edx
100008c3d: 80 f9 2f                    	cmp	cl, 47
100008c40: 0f 94 c2                    	sete	dl
100008c43: 48 f7 da                    	neg	rdx
100008c46: 48 01 d0                    	add	rax, rdx
100008c49: 48 83 c0 0b                 	add	rax, 11
100008c4d: 48 3d ff 03 00 00           	cmp	rax, 1023
100008c53: 77 54                       	ja	0x100008ca9 <__text+0x5529>
100008c55: 80 f9 2f                    	cmp	cl, 47
100008c58: 74 13                       	je	0x100008c6d <__text+0x54ed>
100008c5a: 4c 89 ff                    	mov	rdi, r15
100008c5d: e8 e8 0b 00 00              	call	0x10000984a <dyld_stub_binder+0x10000984a>
100008c62: 66 41 c7 84 06 32 08 00 00 2f 00    	mov	word ptr [r14 + rax + 2098], 47
100008c6d: 4c 89 ff                    	mov	rdi, r15
100008c70: e8 d5 0b 00 00              	call	0x10000984a <dyld_stub_binder+0x10000984a>
100008c75: 48 b9 5f 4d 45 49 58 58 58 58       	movabs	rcx, 6365935209497840991
100008c7f: 49 89 8c 06 32 08 00 00     	mov	qword ptr [r14 + rax + 2098], rcx
100008c87: 41 c7 84 06 39 08 00 00 58 58 58 00 	mov	dword ptr [r14 + rax + 2105], 5789784
100008c93: 4c 89 ff                    	mov	rdi, r15
100008c96: e8 43 0b 00 00              	call	0x1000097de <dyld_stub_binder+0x1000097de>
100008c9b: 48 89 c1                    	mov	rcx, rax
100008c9e: 31 c0                       	xor	eax, eax
100008ca0: 48 85 c9                    	test	rcx, rcx
100008ca3: 0f 85 78 03 00 00           	jne	0x100009021 <__text+0x58a1>
100008ca9: 48 8d 3d 00 30 00 00        	lea	rdi, [rip + 12288]      ## 0x10000bcb0 <dyld_stub_binder+0x10000bcb0>
100008cb0: e8 e1 0a 00 00              	call	0x100009796 <dyld_stub_binder+0x100009796>
100008cb5: 48 85 c0                    	test	rax, rax
100008cb8: 0f 84 c8 00 00 00           	je	0x100008d86 <__text+0x5606>
100008cbe: 80 38 00                    	cmp	byte ptr [rax], 0
100008cc1: 0f 84 bf 00 00 00           	je	0x100008d86 <__text+0x5606>
100008cc7: 48 89 c7                    	mov	rdi, rax
100008cca: e8 6f 0b 00 00              	call	0x10000983e <dyld_stub_binder+0x10000983e>
100008ccf: 48 85 c0                    	test	rax, rax
100008cd2: 0f 84 ae 00 00 00           	je	0x100008d86 <__text+0x5606>
100008cd8: 48 89 c3                    	mov	rbx, rax
100008cdb: 48 8d 15 4e 10 00 00        	lea	rdx, [rip + 4174]       ## 0x100009d30 <dyld_stub_binder+0x100009d30>
100008ce2: be 00 04 00 00              	mov	esi, 1024
100008ce7: 4c 89 ff                    	mov	rdi, r15
100008cea: 48 89 c1                    	mov	rcx, rax
100008ced: 31 c0                       	xor	eax, eax
100008cef: e8 26 0b 00 00              	call	0x10000981a <dyld_stub_binder+0x10000981a>
100008cf4: 41 89 c4                    	mov	r12d, eax
100008cf7: 48 89 df                    	mov	rdi, rbx
100008cfa: e8 7f 0a 00 00              	call	0x10000977e <dyld_stub_binder+0x10000977e>
100008cff: 41 81 fc ff 03 00 00        	cmp	r12d, 1023
100008d06: 7f 7e                       	jg	0x100008d86 <__text+0x5606>
100008d08: 4c 89 ff                    	mov	rdi, r15
100008d0b: e8 3a 0b 00 00              	call	0x10000984a <dyld_stub_binder+0x10000984a>
100008d10: 42 8a 8c 30 31 08 00 00     	mov	cl, byte ptr [rax + r14 + 2097]
100008d18: 31 d2                       	xor	edx, edx
100008d1a: 80 f9 2f                    	cmp	cl, 47
100008d1d: 0f 94 c2                    	sete	dl
100008d20: 48 f7 da                    	neg	rdx
100008d23: 48 01 d0                    	add	rax, rdx
100008d26: 48 83 c0 0b                 	add	rax, 11
100008d2a: 48 3d ff 03 00 00           	cmp	rax, 1023
100008d30: 77 54                       	ja	0x100008d86 <__text+0x5606>
100008d32: 80 f9 2f                    	cmp	cl, 47
100008d35: 74 13                       	je	0x100008d4a <__text+0x55ca>
100008d37: 4c 89 ff                    	mov	rdi, r15
100008d3a: e8 0b 0b 00 00              	call	0x10000984a <dyld_stub_binder+0x10000984a>
100008d3f: 66 41 c7 84 06 32 08 00 00 2f 00    	mov	word ptr [r14 + rax + 2098], 47
100008d4a: 4c 89 ff                    	mov	rdi, r15
100008d4d: e8 f8 0a 00 00              	call	0x10000984a <dyld_stub_binder+0x10000984a>
100008d52: 48 b9 5f 4d 45 49 58 58 58 58       	movabs	rcx, 6365935209497840991
100008d5c: 49 89 8c 06 32 08 00 00     	mov	qword ptr [r14 + rax + 2098], rcx
100008d64: 41 c7 84 06 39 08 00 00 58 58 58 00 	mov	dword ptr [r14 + rax + 2105], 5789784
100008d70: 4c 89 ff                    	mov	rdi, r15
100008d73: e8 66 0a 00 00              	call	0x1000097de <dyld_stub_binder+0x1000097de>
100008d78: 48 89 c1                    	mov	rcx, rax
100008d7b: 31 c0                       	xor	eax, eax
100008d7d: 48 85 c9                    	test	rcx, rcx
100008d80: 0f 85 9b 02 00 00           	jne	0x100009021 <__text+0x58a1>
100008d86: 41 c6 47 04 00              	mov	byte ptr [r15 + 4], 0
100008d8b: 41 c7 07 2f 74 6d 70        	mov	dword ptr [r15], 1886221359
100008d92: 4c 89 ff                    	mov	rdi, r15
100008d95: e8 b0 0a 00 00              	call	0x10000984a <dyld_stub_binder+0x10000984a>
100008d9a: 42 8a 8c 30 31 08 00 00     	mov	cl, byte ptr [rax + r14 + 2097]
100008da2: 31 d2                       	xor	edx, edx
100008da4: 80 f9 2f                    	cmp	cl, 47
100008da7: 0f 94 c2                    	sete	dl
100008daa: 48 f7 da                    	neg	rdx
100008dad: 48 01 d0                    	add	rax, rdx
100008db0: 48 83 c0 0b                 	add	rax, 11
100008db4: 48 3d ff 03 00 00           	cmp	rax, 1023
100008dba: 77 54                       	ja	0x100008e10 <__text+0x5690>
100008dbc: 80 f9 2f                    	cmp	cl, 47
100008dbf: 74 13                       	je	0x100008dd4 <__text+0x5654>
100008dc1: 4c 89 ff                    	mov	rdi, r15
100008dc4: e8 81 0a 00 00              	call	0x10000984a <dyld_stub_binder+0x10000984a>
100008dc9: 66 41 c7 84 06 32 08 00 00 2f 00    	mov	word ptr [r14 + rax + 2098], 47
100008dd4: 4c 89 ff                    	mov	rdi, r15
100008dd7: e8 6e 0a 00 00              	call	0x10000984a <dyld_stub_binder+0x10000984a>
100008ddc: 48 b9 5f 4d 45 49 58 58 58 58       	movabs	rcx, 6365935209497840991
100008de6: 49 89 8c 06 32 08 00 00     	mov	qword ptr [r14 + rax + 2098], rcx
100008dee: 41 c7 84 06 39 08 00 00 58 58 58 00 	mov	dword ptr [r14 + rax + 2105], 5789784
100008dfa: 4c 89 ff                    	mov	rdi, r15
100008dfd: e8 dc 09 00 00              	call	0x1000097de <dyld_stub_binder+0x1000097de>
100008e02: 48 89 c1                    	mov	rcx, rax
100008e05: 31 c0                       	xor	eax, eax
100008e07: 48 85 c9                    	test	rcx, rcx
100008e0a: 0f 85 11 02 00 00           	jne	0x100009021 <__text+0x58a1>
100008e10: 48 b8 2f 76 61 72 2f 74 6d 70       	movabs	rax, 8101259051840665135
100008e1a: 49 89 07                    	mov	qword ptr [r15], rax
100008e1d: 41 c6 47 08 00              	mov	byte ptr [r15 + 8], 0
100008e22: 4c 89 ff                    	mov	rdi, r15
100008e25: e8 20 0a 00 00              	call	0x10000984a <dyld_stub_binder+0x10000984a>
100008e2a: 42 8a 8c 30 31 08 00 00     	mov	cl, byte ptr [rax + r14 + 2097]
100008e32: 31 d2                       	xor	edx, edx
100008e34: 80 f9 2f                    	cmp	cl, 47
100008e37: 0f 94 c2                    	sete	dl
100008e3a: 48 f7 da                    	neg	rdx
100008e3d: 48 01 d0                    	add	rax, rdx
100008e40: 48 83 c0 0b                 	add	rax, 11
100008e44: 48 3d ff 03 00 00           	cmp	rax, 1023
100008e4a: 77 54                       	ja	0x100008ea0 <__text+0x5720>
100008e4c: 80 f9 2f                    	cmp	cl, 47
100008e4f: 74 13                       	je	0x100008e64 <__text+0x56e4>
100008e51: 4c 89 ff                    	mov	rdi, r15
100008e54: e8 f1 09 00 00              	call	0x10000984a <dyld_stub_binder+0x10000984a>
100008e59: 66 41 c7 84 06 32 08 00 00 2f 00    	mov	word ptr [r14 + rax + 2098], 47
100008e64: 4c 89 ff                    	mov	rdi, r15
100008e67: e8 de 09 00 00              	call	0x10000984a <dyld_stub_binder+0x10000984a>
100008e6c: 48 b9 5f 4d 45 49 58 58 58 58       	movabs	rcx, 6365935209497840991
100008e76: 49 89 8c 06 32 08 00 00     	mov	qword ptr [r14 + rax + 2098], rcx
100008e7e: 41 c7 84 06 39 08 00 00 58 58 58 00 	mov	dword ptr [r14 + rax + 2105], 5789784
100008e8a: 4c 89 ff                    	mov	rdi, r15
100008e8d: e8 4c 09 00 00              	call	0x1000097de <dyld_stub_binder+0x1000097de>
100008e92: 48 89 c1                    	mov	rcx, rax
100008e95: 31 c0                       	xor	eax, eax
100008e97: 48 85 c9                    	test	rcx, rcx
100008e9a: 0f 85 81 01 00 00           	jne	0x100009021 <__text+0x58a1>
100008ea0: 48 b8 2f 75 73 72 2f 74 6d 70       	movabs	rax, 8101259051841844527
100008eaa: 49 89 07                    	mov	qword ptr [r15], rax
100008ead: 41 c6 47 08 00              	mov	byte ptr [r15 + 8], 0
100008eb2: 4c 89 ff                    	mov	rdi, r15
100008eb5: e8 90 09 00 00              	call	0x10000984a <dyld_stub_binder+0x10000984a>
100008eba: 42 8a 8c 30 31 08 00 00     	mov	cl, byte ptr [rax + r14 + 2097]
100008ec2: 31 d2                       	xor	edx, edx
100008ec4: 80 f9 2f                    	cmp	cl, 47
100008ec7: 0f 94 c2                    	sete	dl
100008eca: 48 f7 da                    	neg	rdx
100008ecd: 48 01 d0                    	add	rax, rdx
100008ed0: 48 83 c0 0b                 	add	rax, 11
100008ed4: 48 3d ff 03 00 00           	cmp	rax, 1023
100008eda: 0f 87 3c 01 00 00           	ja	0x10000901c <__text+0x589c>
100008ee0: 80 f9 2f                    	cmp	cl, 47
100008ee3: 74 13                       	je	0x100008ef8 <__text+0x5778>
100008ee5: 4c 89 ff                    	mov	rdi, r15
100008ee8: e8 5d 09 00 00              	call	0x10000984a <dyld_stub_binder+0x10000984a>
100008eed: 66 41 c7 84 06 32 08 00 00 2f 00    	mov	word ptr [r14 + rax + 2098], 47
100008ef8: 4c 89 ff                    	mov	rdi, r15
100008efb: e8 4a 09 00 00              	call	0x10000984a <dyld_stub_binder+0x10000984a>
100008f00: 48 b9 5f 4d 45 49 58 58 58 58       	movabs	rcx, 6365935209497840991
100008f0a: 49 89 8c 06 32 08 00 00     	mov	qword ptr [r14 + rax + 2098], rcx
100008f12: 41 c7 84 06 39 08 00 00 58 58 58 00 	mov	dword ptr [r14 + rax + 2105], 5789784
100008f1e: 4c 89 ff                    	mov	rdi, r15
100008f21: e8 b8 08 00 00              	call	0x1000097de <dyld_stub_binder+0x1000097de>
100008f26: 48 89 c1                    	mov	rcx, rax
100008f29: 31 c0                       	xor	eax, eax
100008f2b: 48 85 c9                    	test	rcx, rcx
100008f2e: 0f 85 ed 00 00 00           	jne	0x100009021 <__text+0x58a1>
100008f34: e9 e3 00 00 00              	jmp	0x10000901c <__text+0x589c>
100008f39: 4c 89 ff                    	mov	rdi, r15
100008f3c: be 2f 00 00 00              	mov	esi, 47
100008f41: e8 e6 08 00 00              	call	0x10000982c <dyld_stub_binder+0x10000982c>
100008f46: 48 85 c0                    	test	rax, rax
100008f49: 74 59                       	je	0x100008fa4 <__text+0x5824>
100008f4b: 48 89 c3                    	mov	rbx, rax
100008f4e: 4c 8d 25 4a 2d 00 00        	lea	r12, [rip + 11594]      ## 0x10000bc9f <dyld_stub_binder+0x10000bc9f>
100008f55: 4c 8d ad d0 fb ff ff        	lea	r13, [rbp - 1072]
100008f5c: eb 1b                       	jmp	0x100008f79 <__text+0x57f9>
100008f5e: 66 90                       	nop
100008f60: 48 83 c3 01                 	add	rbx, 1
100008f64: 48 89 df                    	mov	rdi, rbx
100008f67: be 2f 00 00 00              	mov	esi, 47
100008f6c: e8 bb 08 00 00              	call	0x10000982c <dyld_stub_binder+0x10000982c>
100008f71: 48 89 c3                    	mov	rbx, rax
100008f74: 48 85 c0                    	test	rax, rax
100008f77: 74 2b                       	je	0x100008fa4 <__text+0x5824>
100008f79: 89 d9                       	mov	ecx, ebx
100008f7b: 44 29 f9                    	sub	ecx, r15d
100008f7e: 74 e0                       	je	0x100008f60 <__text+0x57e0>
100008f80: be 00 04 00 00              	mov	esi, 1024
100008f85: 4c 89 ef                    	mov	rdi, r13
100008f88: 4c 89 e2                    	mov	rdx, r12
100008f8b: 4d 89 f8                    	mov	r8, r15
100008f8e: 31 c0                       	xor	eax, eax
100008f90: e8 85 08 00 00              	call	0x10000981a <dyld_stub_binder+0x10000981a>
100008f95: 4c 89 ef                    	mov	rdi, r13
100008f98: be ff 01 00 00              	mov	esi, 511
100008f9d: e8 36 08 00 00              	call	0x1000097d8 <dyld_stub_binder+0x1000097d8>
100008fa2: eb bc                       	jmp	0x100008f60 <__text+0x57e0>
100008fa4: 4c 89 ff                    	mov	rdi, r15
100008fa7: be ff 01 00 00              	mov	esi, 511
100008fac: e8 27 08 00 00              	call	0x1000097d8 <dyld_stub_binder+0x1000097d8>
100008fb1: 4c 89 ff                    	mov	rdi, r15
100008fb4: 31 f6                       	xor	esi, esi
100008fb6: e8 47 08 00 00              	call	0x100009802 <dyld_stub_binder+0x100009802>
100008fbb: 48 85 c0                    	test	rax, rax
100008fbe: 74 47                       	je	0x100009007 <__text+0x5887>
100008fc0: 48 89 c3                    	mov	rbx, rax
100008fc3: 4d 8d be 32 08 00 00        	lea	r15, [r14 + 2098]
100008fca: 48 8d 15 5f 0d 00 00        	lea	rdx, [rip + 3423]       ## 0x100009d30 <dyld_stub_binder+0x100009d30>
100008fd1: be 00 04 00 00              	mov	esi, 1024
100008fd6: 4c 89 ff                    	mov	rdi, r15
100008fd9: 48 89 c1                    	mov	rcx, rax
100008fdc: 31 c0                       	xor	eax, eax
100008fde: e8 37 08 00 00              	call	0x10000981a <dyld_stub_binder+0x10000981a>
100008fe3: 41 89 c4                    	mov	r12d, eax
100008fe6: 48 89 df                    	mov	rdi, rbx
100008fe9: e8 90 07 00 00              	call	0x10000977e <dyld_stub_binder+0x10000977e>
100008fee: 41 81 fc 00 04 00 00        	cmp	r12d, 1024
100008ff5: 7c 50                       	jl	0x100009047 <__text+0x58c7>
100008ff7: 48 8d 3d 0d 2d 00 00        	lea	rdi, [rip + 11533]      ## 0x10000bd0b <dyld_stub_binder+0x10000bd0b>
100008ffe: 31 c0                       	xor	eax, eax
100009000: e8 1b b2 ff ff              	call	0x100004220 <__text+0xaa0>
100009005: eb 15                       	jmp	0x10000901c <__text+0x589c>
100009007: 49 8b b6 50 0c 00 00        	mov	rsi, qword ptr [r14 + 3152]
10000900e: 48 8d 3d b6 2c 00 00        	lea	rdi, [rip + 11446]      ## 0x10000bccb <dyld_stub_binder+0x10000bccb>
100009015: 31 c0                       	xor	eax, eax
100009017: e8 04 b2 ff ff              	call	0x100004220 <__text+0xaa0>
10000901c: b8 ff ff ff ff              	mov	eax, 4294967295
100009021: 48 8b 0d e0 2f 00 00        	mov	rcx, qword ptr [rip + 12256] ## 0x10000c008 <dyld_stub_binder+0x10000c008>
100009028: 48 8b 09                    	mov	rcx, qword ptr [rcx]
10000902b: 48 3b 4d d0                 	cmp	rcx, qword ptr [rbp - 48]
10000902f: 0f 85 93 00 00 00           	jne	0x1000090c8 <__text+0x5948>
100009035: 48 81 c4 08 04 00 00        	add	rsp, 1032
10000903c: 5b                          	pop	rbx
10000903d: 41 5c                       	pop	r12
10000903f: 41 5d                       	pop	r13
100009041: 41 5e                       	pop	r14
100009043: 41 5f                       	pop	r15
100009045: 5d                          	pop	rbp
100009046: c3                          	ret
100009047: 4c 89 ff                    	mov	rdi, r15
10000904a: e8 fb 07 00 00              	call	0x10000984a <dyld_stub_binder+0x10000984a>
10000904f: 42 8a 8c 30 31 08 00 00     	mov	cl, byte ptr [rax + r14 + 2097]
100009057: 31 d2                       	xor	edx, edx
100009059: 80 f9 2f                    	cmp	cl, 47
10000905c: 0f 94 c2                    	sete	dl
10000905f: 48 f7 da                    	neg	rdx
100009062: 48 01 c2                    	add	rdx, rax
100009065: 48 83 c2 0b                 	add	rdx, 11
100009069: b8 ff ff ff ff              	mov	eax, 4294967295
10000906e: 48 81 fa ff 03 00 00        	cmp	rdx, 1023
100009075: 77 aa                       	ja	0x100009021 <__text+0x58a1>
100009077: 80 f9 2f                    	cmp	cl, 47
10000907a: 74 13                       	je	0x10000908f <__text+0x590f>
10000907c: 4c 89 ff                    	mov	rdi, r15
10000907f: e8 c6 07 00 00              	call	0x10000984a <dyld_stub_binder+0x10000984a>
100009084: 66 41 c7 84 06 32 08 00 00 2f 00    	mov	word ptr [r14 + rax + 2098], 47
10000908f: 4c 89 ff                    	mov	rdi, r15
100009092: e8 b3 07 00 00              	call	0x10000984a <dyld_stub_binder+0x10000984a>
100009097: 48 b9 5f 4d 45 49 58 58 58 58       	movabs	rcx, 6365935209497840991
1000090a1: 49 89 8c 06 32 08 00 00     	mov	qword ptr [r14 + rax + 2098], rcx
1000090a9: 41 c7 84 06 39 08 00 00 58 58 58 00 	mov	dword ptr [r14 + rax + 2105], 5789784
1000090b5: 4c 89 ff                    	mov	rdi, r15
1000090b8: e8 21 07 00 00              	call	0x1000097de <dyld_stub_binder+0x1000097de>
1000090bd: 48 83 f8 01                 	cmp	rax, 1
1000090c1: 19 c0                       	sbb	eax, eax
1000090c3: e9 59 ff ff ff              	jmp	0x100009021 <__text+0x58a1>
1000090c8: e8 33 06 00 00              	call	0x100009700 <dyld_stub_binder+0x100009700>
1000090cd: 0f 1f 00                    	nop	dword ptr [rax]
1000090d0: 55                          	push	rbp
1000090d1: 48 89 e5                    	mov	rbp, rsp
1000090d4: 41 57                       	push	r15
1000090d6: 41 56                       	push	r14
1000090d8: 41 55                       	push	r13
1000090da: 41 54                       	push	r12
1000090dc: 53                          	push	rbx
1000090dd: 48 81 ec a8 04 00 00        	sub	rsp, 1192
1000090e4: 49 89 fc                    	mov	r12, rdi
1000090e7: 48 8b 05 1a 2f 00 00        	mov	rax, qword ptr [rip + 12058] ## 0x10000c008 <dyld_stub_binder+0x10000c008>
1000090ee: 48 8b 00                    	mov	rax, qword ptr [rax]
1000090f1: 48 89 45 d0                 	mov	qword ptr [rbp - 48], rax
1000090f5: 48 8d 15 9e 2b 00 00        	lea	rdx, [rip + 11166]      ## 0x10000bc9a <dyld_stub_binder+0x10000bc9a>
1000090fc: 48 8d bd d0 fb ff ff        	lea	rdi, [rbp - 1072]
100009103: be 00 04 00 00              	mov	esi, 1024
100009108: 4c 89 e1                    	mov	rcx, r12
10000910b: 41 b8 2f 00 00 00           	mov	r8d, 47
100009111: 31 c0                       	xor	eax, eax
100009113: e8 02 07 00 00              	call	0x10000981a <dyld_stub_binder+0x10000981a>
100009118: 41 be ff ff ff ff           	mov	r14d, 4294967295
10000911e: 3d ff 03 00 00              	cmp	eax, 1023
100009123: 0f 8f 17 01 00 00           	jg	0x100009240 <__text+0x5ac0>
100009129: 41 89 c7                    	mov	r15d, eax
10000912c: 4c 89 e7                    	mov	rdi, r12
10000912f: e8 b0 06 00 00              	call	0x1000097e4 <dyld_stub_binder+0x1000097e4>
100009134: 48 85 c0                    	test	rax, rax
100009137: 0f 84 03 01 00 00           	je	0x100009240 <__text+0x5ac0>
10000913d: 48 89 c3                    	mov	rbx, rax
100009140: 4c 89 a5 c8 fb ff ff        	mov	qword ptr [rbp - 1080], r12
100009147: 48 89 c7                    	mov	rdi, rax
10000914a: e8 a7 06 00 00              	call	0x1000097f6 <dyld_stub_binder+0x1000097f6>
10000914f: 48 85 c0                    	test	rax, rax
100009152: 0f 84 d1 00 00 00           	je	0x100009229 <__text+0x5aa9>
100009158: 49 89 c6                    	mov	r14, rax
10000915b: 41 bc 00 04 00 00           	mov	r12d, 1024
100009161: 45 29 fc                    	sub	r12d, r15d
100009164: 49 63 c7                    	movsxd	rax, r15d
100009167: 48 01 e8                    	add	rax, rbp
10000916a: 48 05 d0 fb ff ff           	add	rax, -1072
100009170: 48 89 85 c0 fb ff ff        	mov	qword ptr [rbp - 1088], rax
100009177: 45 89 e7                    	mov	r15d, r12d
10000917a: 4c 8d 2d ca 2b 00 00        	lea	r13, [rip + 11210]      ## 0x10000bd4b <dyld_stub_binder+0x10000bd4b>
100009181: eb 21                       	jmp	0x1000091a4 <__text+0x5a24>
100009183: e8 e6 06 00 00              	call	0x10000986e <dyld_stub_binder+0x10000986e>
100009188: 0f 1f 84 00 00 00 00 00     	nop	dword ptr [rax + rax]
100009190: 48 89 df                    	mov	rdi, rbx
100009193: e8 5e 06 00 00              	call	0x1000097f6 <dyld_stub_binder+0x1000097f6>
100009198: 49 89 c6                    	mov	r14, rax
10000919b: 48 85 c0                    	test	rax, rax
10000919e: 0f 84 85 00 00 00           	je	0x100009229 <__text+0x5aa9>
1000091a4: 49 83 c6 15                 	add	r14, 21
1000091a8: 4c 89 f7                    	mov	rdi, r14
1000091ab: 4c 89 ee                    	mov	rsi, r13
1000091ae: e8 7f 06 00 00              	call	0x100009832 <dyld_stub_binder+0x100009832>
1000091b3: 85 c0                       	test	eax, eax
1000091b5: 74 d9                       	je	0x100009190 <__text+0x5a10>
1000091b7: 4c 89 f7                    	mov	rdi, r14
1000091ba: 48 8d 35 8c 2b 00 00        	lea	rsi, [rip + 11148]      ## 0x10000bd4d <dyld_stub_binder+0x10000bd4d>
1000091c1: e8 6c 06 00 00              	call	0x100009832 <dyld_stub_binder+0x100009832>
1000091c6: 85 c0                       	test	eax, eax
1000091c8: 74 c6                       	je	0x100009190 <__text+0x5a10>
1000091ca: 48 8b bd c0 fb ff ff        	mov	rdi, qword ptr [rbp - 1088]
1000091d1: 4c 89 fe                    	mov	rsi, r15
1000091d4: 48 8d 15 55 0b 00 00        	lea	rdx, [rip + 2901]       ## 0x100009d30 <dyld_stub_binder+0x100009d30>
1000091db: 4c 89 f1                    	mov	rcx, r14
1000091de: 31 c0                       	xor	eax, eax
1000091e0: e8 35 06 00 00              	call	0x10000981a <dyld_stub_binder+0x10000981a>
1000091e5: 44 39 e0                    	cmp	eax, r12d
1000091e8: 7d a6                       	jge	0x100009190 <__text+0x5a10>
1000091ea: 48 8d bd d0 fb ff ff        	lea	rdi, [rbp - 1072]
1000091f1: 48 8d b5 30 fb ff ff        	lea	rsi, [rbp - 1232]
1000091f8: e8 bd 05 00 00              	call	0x1000097ba <dyld_stub_binder+0x1000097ba>
1000091fd: 85 c0                       	test	eax, eax
1000091ff: 75 8f                       	jne	0x100009190 <__text+0x5a10>
100009201: 0f b7 85 34 fb ff ff        	movzx	eax, word ptr [rbp - 1228]
100009208: 25 00 f0 00 00              	and	eax, 61440
10000920d: 48 8d bd d0 fb ff ff        	lea	rdi, [rbp - 1072]
100009214: 3d 00 40 00 00              	cmp	eax, 16384
100009219: 0f 85 64 ff ff ff           	jne	0x100009183 <__text+0x5a03>
10000921f: e8 ac fe ff ff              	call	0x1000090d0 <__text+0x5950>
100009224: e9 67 ff ff ff              	jmp	0x100009190 <__text+0x5a10>
100009229: 48 89 df                    	mov	rdi, rbx
10000922c: e8 e7 04 00 00              	call	0x100009718 <dyld_stub_binder+0x100009718>
100009231: 48 8b bd c8 fb ff ff        	mov	rdi, qword ptr [rbp - 1080]
100009238: e8 cb 05 00 00              	call	0x100009808 <dyld_stub_binder+0x100009808>
10000923d: 41 89 c6                    	mov	r14d, eax
100009240: 48 8b 05 c1 2d 00 00        	mov	rax, qword ptr [rip + 11713] ## 0x10000c008 <dyld_stub_binder+0x10000c008>
100009247: 48 8b 00                    	mov	rax, qword ptr [rax]
10000924a: 48 3b 45 d0                 	cmp	rax, qword ptr [rbp - 48]
10000924e: 75 15                       	jne	0x100009265 <__text+0x5ae5>
100009250: 44 89 f0                    	mov	eax, r14d
100009253: 48 81 c4 a8 04 00 00        	add	rsp, 1192
10000925a: 5b                          	pop	rbx
10000925b: 41 5c                       	pop	r12
10000925d: 41 5d                       	pop	r13
10000925f: 41 5e                       	pop	r14
100009261: 41 5f                       	pop	r15
100009263: 5d                          	pop	rbp
100009264: c3                          	ret
100009265: e8 96 04 00 00              	call	0x100009700 <dyld_stub_binder+0x100009700>
10000926a: 66 0f 1f 44 00 00           	nop	word ptr [rax + rax]
100009270: 55                          	push	rbp
100009271: 48 89 e5                    	mov	rbp, rsp
100009274: be 0a 00 00 00              	mov	esi, 10
100009279: 5d                          	pop	rbp
10000927a: e9 b1 04 00 00              	jmp	0x100009730 <dyld_stub_binder+0x100009730>
10000927f: 90                          	nop
100009280: 55                          	push	rbp
100009281: 48 89 e5                    	mov	rbp, rsp
100009284: 5d                          	pop	rbp
100009285: e9 9a 04 00 00              	jmp	0x100009724 <dyld_stub_binder+0x100009724>
10000928a: 66 0f 1f 44 00 00           	nop	word ptr [rax + rax]
100009290: 55                          	push	rbp
100009291: 48 89 e5                    	mov	rbp, rsp
100009294: 41 57                       	push	r15
100009296: 41 56                       	push	r14
100009298: 41 54                       	push	r12
10000929a: 53                          	push	rbx
10000929b: 48 83 ec 40                 	sub	rsp, 64
10000929f: 49 89 fe                    	mov	r14, rdi
1000092a2: 48 8b 05 5f 2d 00 00        	mov	rax, qword ptr [rip + 11615] ## 0x10000c008 <dyld_stub_binder+0x10000c008>
1000092a9: 48 8b 00                    	mov	rax, qword ptr [rax]
1000092ac: 48 89 45 d8                 	mov	qword ptr [rbp - 40], rax
1000092b0: c7 45 ac 00 00 00 00        	mov	dword ptr [rbp - 84], 0
1000092b7: e8 b0 04 00 00              	call	0x10000976c <dyld_stub_binder+0x10000976c>
1000092bc: 85 c0                       	test	eax, eax
1000092be: 0f 88 4b 01 00 00           	js	0x10000940f <__text+0x5c8f>
1000092c4: 89 c3                       	mov	ebx, eax
1000092c6: 75 7f                       	jne	0x100009347 <__text+0x5bc7>
1000092c8: 4d 8b 7e 18                 	mov	r15, qword ptr [r14 + 24]
1000092cc: 4d 85 ff                    	test	r15, r15
1000092cf: 75 04                       	jne	0x1000092d5 <__text+0x5b55>
1000092d1: 4d 8b 7e 08                 	mov	r15, qword ptr [r14 + 8]
1000092d5: 48 8d 3d e1 2b 00 00        	lea	rdi, [rip + 11233]      ## 0x10000bebd <dyld_stub_binder+0x10000bebd>
1000092dc: e8 b5 04 00 00              	call	0x100009796 <dyld_stub_binder+0x100009796>
1000092e1: 48 85 c0                    	test	rax, rax
1000092e4: 74 4d                       	je	0x100009333 <__text+0x5bb3>
1000092e6: 80 38 00                    	cmp	byte ptr [rax], 0
1000092e9: 74 48                       	je	0x100009333 <__text+0x5bb3>
1000092eb: e8 ac 04 00 00              	call	0x10000979c <dyld_stub_binder+0x10000979c>
1000092f0: 48 63 c8                    	movsxd	rcx, eax
1000092f3: 48 8d 15 ce 2b 00 00        	lea	rdx, [rip + 11214]      ## 0x10000bec8 <dyld_stub_binder+0x10000bec8>
1000092fa: 4c 8d 65 b0                 	lea	r12, [rbp - 80]
1000092fe: be 20 00 00 00              	mov	esi, 32
100009303: 4c 89 e7                    	mov	rdi, r12
100009306: 31 c0                       	xor	eax, eax
100009308: e8 0d 05 00 00              	call	0x10000981a <dyld_stub_binder+0x10000981a>
10000930d: 48 8d 3d a9 2b 00 00        	lea	rdi, [rip + 11177]      ## 0x10000bebd <dyld_stub_binder+0x10000bebd>
100009314: 4c 89 e6                    	mov	rsi, r12
100009317: ba 01 00 00 00              	mov	edx, 1
10000931c: e8 ed 04 00 00              	call	0x10000980e <dyld_stub_binder+0x10000980e>
100009321: 85 c0                       	test	eax, eax
100009323: 74 0e                       	je	0x100009333 <__text+0x5bb3>
100009325: 48 8d 3d 4e 2a 00 00        	lea	rdi, [rip + 10830]      ## 0x10000bd7a <dyld_stub_binder+0x10000bd7a>
10000932c: 31 c0                       	xor	eax, eax
10000932e: e8 ed ae ff ff              	call	0x100004220 <__text+0xaa0>
100009333: 49 8d 7e 20                 	lea	rdi, [r14 + 32]
100009337: 4c 89 fe                    	mov	rsi, r15
10000933a: e8 fd 03 00 00              	call	0x10000973c <dyld_stub_binder+0x10000973c>
10000933f: 85 c0                       	test	eax, eax
100009341: 0f 88 0c 01 00 00           	js	0x100009453 <__text+0x5cd3>
100009347: 41 89 9e 44 0c 00 00        	mov	dword ptr [r14 + 3140], ebx
10000934e: 41 80 be 60 0c 00 00 00     	cmp	byte ptr [r14 + 3168], 0
100009356: 48 8d 05 23 01 00 00        	lea	rax, [rip + 291]        ## 0x100009480 <__text+0x5d00>
10000935d: 4c 8d 3d 0c 01 00 00        	lea	r15, [rip + 268]        ## 0x100009470 <__text+0x5cf0>
100009364: 4c 0f 44 f8                 	cmove	r15, rax
100009368: 31 db                       	xor	ebx, ebx
10000936a: eb 0c                       	jmp	0x100009378 <__text+0x5bf8>
10000936c: 0f 1f 40 00                 	nop	dword ptr [rax]
100009370: 83 c3 01                    	add	ebx, 1
100009373: 83 fb 41                    	cmp	ebx, 65
100009376: 74 16                       	je	0x10000938e <__text+0x5c0e>
100009378: 83 fb 12                    	cmp	ebx, 18
10000937b: 74 f3                       	je	0x100009370 <__text+0x5bf0>
10000937d: 83 fb 14                    	cmp	ebx, 20
100009380: 74 ee                       	je	0x100009370 <__text+0x5bf0>
100009382: 89 df                       	mov	edi, ebx
100009384: 4c 89 fe                    	mov	rsi, r15
100009387: e8 88 04 00 00              	call	0x100009814 <dyld_stub_binder+0x100009814>
10000938c: eb e2                       	jmp	0x100009370 <__text+0x5bf0>
10000938e: 41 8b be 44 0c 00 00        	mov	edi, dword ptr [r14 + 3140]
100009395: 48 8d 75 ac                 	lea	rsi, [rbp - 84]
100009399: 31 db                       	xor	ebx, ebx
10000939b: 31 d2                       	xor	edx, edx
10000939d: e8 e4 04 00 00              	call	0x100009886 <dyld_stub_binder+0x100009886>
1000093a2: 41 89 c7                    	mov	r15d, eax
1000093a5: 85 c0                       	test	eax, eax
1000093a7: 79 27                       	jns	0x1000093d0 <__text+0x5c50>
1000093a9: e8 4c 03 00 00              	call	0x1000096fa <dyld_stub_binder+0x1000096fa>
1000093ae: 8b 38                       	mov	edi, dword ptr [rax]
1000093b0: e8 8f 04 00 00              	call	0x100009844 <dyld_stub_binder+0x100009844>
1000093b5: 48 8d 3d 39 2a 00 00        	lea	rdi, [rip + 10809]      ## 0x10000bdf5 <dyld_stub_binder+0x10000bdf5>
1000093bc: 48 89 c6                    	mov	rsi, rax
1000093bf: 31 c0                       	xor	eax, eax
1000093c1: e8 5a ae ff ff              	call	0x100004220 <__text+0xaa0>
1000093c6: 66 2e 0f 1f 84 00 00 00 00 00       	nop	word ptr cs:[rax + rax]
1000093d0: 89 df                       	mov	edi, ebx
1000093d2: 31 f6                       	xor	esi, esi
1000093d4: e8 3b 04 00 00              	call	0x100009814 <dyld_stub_binder+0x100009814>
1000093d9: 83 c3 01                    	add	ebx, 1
1000093dc: 83 fb 41                    	cmp	ebx, 65
1000093df: 75 ef                       	jne	0x1000093d0 <__text+0x5c50>
1000093e1: b8 01 00 00 00              	mov	eax, 1
1000093e6: 45 85 ff                    	test	r15d, r15d
1000093e9: 78 4b                       	js	0x100009436 <__text+0x5cb6>
1000093eb: 8b 55 ac                    	mov	edx, dword ptr [rbp - 84]
1000093ee: 89 d1                       	mov	ecx, edx
1000093f0: 83 e1 7f                    	and	ecx, 127
1000093f3: 74 3e                       	je	0x100009433 <__text+0x5cb3>
1000093f5: 31 d2                       	xor	edx, edx
1000093f7: 83 f9 7f                    	cmp	ecx, 127
1000093fa: 0f 95 c2                    	setne	dl
1000093fd: 41 89 96 48 0c 00 00        	mov	dword ptr [r14 + 3144], edx
100009404: 74 30                       	je	0x100009436 <__text+0x5cb6>
100009406: 41 89 8e 4c 0c 00 00        	mov	dword ptr [r14 + 3148], ecx
10000940d: eb 27                       	jmp	0x100009436 <__text+0x5cb6>
10000940f: e8 e6 02 00 00              	call	0x1000096fa <dyld_stub_binder+0x1000096fa>
100009414: 8b 38                       	mov	edi, dword ptr [rax]
100009416: e8 29 04 00 00              	call	0x100009844 <dyld_stub_binder+0x100009844>
10000941b: 48 8d 3d 2e 29 00 00        	lea	rdi, [rip + 10542]      ## 0x10000bd50 <dyld_stub_binder+0x10000bd50>
100009422: 48 89 c6                    	mov	rsi, rax
100009425: 31 c0                       	xor	eax, eax
100009427: e8 f4 ad ff ff              	call	0x100004220 <__text+0xaa0>
10000942c: b8 01 00 00 00              	mov	eax, 1
100009431: eb 03                       	jmp	0x100009436 <__text+0x5cb6>
100009433: 0f b6 c6                    	movzx	eax, dh
100009436: 48 8b 0d cb 2b 00 00        	mov	rcx, qword ptr [rip + 11211] ## 0x10000c008 <dyld_stub_binder+0x10000c008>
10000943d: 48 8b 09                    	mov	rcx, qword ptr [rcx]
100009440: 48 3b 4d d8                 	cmp	rcx, qword ptr [rbp - 40]
100009444: 75 22                       	jne	0x100009468 <__text+0x5ce8>
100009446: 48 83 c4 40                 	add	rsp, 64
10000944a: 5b                          	pop	rbx
10000944b: 41 5c                       	pop	r12
10000944d: 41 5e                       	pop	r14
10000944f: 41 5f                       	pop	r15
100009451: 5d                          	pop	rbp
100009452: c3                          	ret
100009453: e8 a2 02 00 00              	call	0x1000096fa <dyld_stub_binder+0x1000096fa>
100009458: 8b 38                       	mov	edi, dword ptr [rax]
10000945a: e8 e5 03 00 00              	call	0x100009844 <dyld_stub_binder+0x100009844>
10000945f: 48 8d 3d 73 29 00 00        	lea	rdi, [rip + 10611]      ## 0x10000bdd9 <dyld_stub_binder+0x10000bdd9>
100009466: eb ba                       	jmp	0x100009422 <__text+0x5ca2>
100009468: e8 93 02 00 00              	call	0x100009700 <dyld_stub_binder+0x100009700>
10000946d: 0f 1f 00                    	nop	dword ptr [rax]
100009470: 55                          	push	rbp
100009471: 48 89 e5                    	mov	rbp, rsp
100009474: 5d                          	pop	rbp
100009475: c3                          	ret
100009476: 66 2e 0f 1f 84 00 00 00 00 00       	nop	word ptr cs:[rax + rax]
100009480: 55                          	push	rbp
100009481: 48 89 e5                    	mov	rbp, rsp
100009484: 89 fe                       	mov	esi, edi
100009486: 48 8d 05 c3 2d 00 00        	lea	rax, [rip + 11715]      ## 0x10000c250 <dyld_stub_binder+0x10000c250>
10000948d: 48 8b 00                    	mov	rax, qword ptr [rax]
100009490: 8b b8 44 0c 00 00           	mov	edi, dword ptr [rax + 3140]
100009496: 5d                          	pop	rbp
100009497: e9 18 03 00 00              	jmp	0x1000097b4 <dyld_stub_binder+0x1000097b4>
10000949c: 0f 1f 40 00                 	nop	dword ptr [rax]
1000094a0: 55                          	push	rbp
1000094a1: 48 89 e5                    	mov	rbp, rsp
1000094a4: 41 57                       	push	r15
1000094a6: 41 56                       	push	r14
1000094a8: 41 54                       	push	r12
1000094aa: 53                          	push	rbx
1000094ab: 49 89 d6                    	mov	r14, rdx
1000094ae: 89 f3                       	mov	ebx, esi
1000094b0: 49 89 ff                    	mov	r15, rdi
1000094b3: c7 47 10 00 00 00 00        	mov	dword ptr [rdi + 16], 0
1000094ba: 8d 43 01                    	lea	eax, [rbx + 1]
1000094bd: 48 63 f8                    	movsxd	rdi, eax
1000094c0: be 08 00 00 00              	mov	esi, 8
1000094c5: e8 42 02 00 00              	call	0x10000970c <dyld_stub_binder+0x10000970c>
1000094ca: 49 89 47 18                 	mov	qword ptr [r15 + 24], rax
1000094ce: 48 85 c0                    	test	rax, rax
1000094d1: 74 3b                       	je	0x10000950e <__text+0x5d8e>
1000094d3: 85 db                       	test	ebx, ebx
1000094d5: 7e 33                       	jle	0x10000950a <__text+0x5d8a>
1000094d7: 41 89 dc                    	mov	r12d, ebx
1000094da: 31 db                       	xor	ebx, ebx
1000094dc: 0f 1f 40 00                 	nop	dword ptr [rax]
1000094e0: 49 8b 3c de                 	mov	rdi, qword ptr [r14 + 8*rbx]
1000094e4: e8 55 03 00 00              	call	0x10000983e <dyld_stub_binder+0x10000983e>
1000094e9: 48 85 c0                    	test	rax, rax
1000094ec: 74 3f                       	je	0x10000952d <__text+0x5dad>
1000094ee: 49 8b 4f 18                 	mov	rcx, qword ptr [r15 + 24]
1000094f2: 49 63 57 10                 	movsxd	rdx, dword ptr [r15 + 16]
1000094f6: 8d 72 01                    	lea	esi, [rdx + 1]
1000094f9: 41 89 77 10                 	mov	dword ptr [r15 + 16], esi
1000094fd: 48 89 04 d1                 	mov	qword ptr [rcx + 8*rdx], rax
100009501: 48 83 c3 01                 	add	rbx, 1
100009505: 49 39 dc                    	cmp	r12, rbx
100009508: 75 d6                       	jne	0x1000094e0 <__text+0x5d60>
10000950a: 31 c0                       	xor	eax, eax
10000950c: eb 43                       	jmp	0x100009551 <__text+0x5dd1>
10000950e: e8 e7 01 00 00              	call	0x1000096fa <dyld_stub_binder+0x1000096fa>
100009513: 8b 38                       	mov	edi, dword ptr [rax]
100009515: e8 2a 03 00 00              	call	0x100009844 <dyld_stub_binder+0x100009844>
10000951a: 48 8d 3d 02 29 00 00        	lea	rdi, [rip + 10498]      ## 0x10000be23 <dyld_stub_binder+0x10000be23>
100009521: 48 89 c6                    	mov	rsi, rax
100009524: 31 c0                       	xor	eax, eax
100009526: e8 f5 ac ff ff              	call	0x100004220 <__text+0xaa0>
10000952b: eb 1f                       	jmp	0x10000954c <__text+0x5dcc>
10000952d: e8 c8 01 00 00              	call	0x1000096fa <dyld_stub_binder+0x1000096fa>
100009532: 8b 38                       	mov	edi, dword ptr [rax]
100009534: e8 0b 03 00 00              	call	0x100009844 <dyld_stub_binder+0x100009844>
100009539: 48 8d 3d 0c 29 00 00        	lea	rdi, [rip + 10508]      ## 0x10000be4c <dyld_stub_binder+0x10000be4c>
100009540: 89 de                       	mov	esi, ebx
100009542: 48 89 c2                    	mov	rdx, rax
100009545: 31 c0                       	xor	eax, eax
100009547: e8 d4 ac ff ff              	call	0x100004220 <__text+0xaa0>
10000954c: b8 ff ff ff ff              	mov	eax, 4294967295
100009551: 5b                          	pop	rbx
100009552: 41 5c                       	pop	r12
100009554: 41 5e                       	pop	r14
100009556: 41 5f                       	pop	r15
100009558: 5d                          	pop	rbp
100009559: c3                          	ret
10000955a: 66 0f 1f 44 00 00           	nop	word ptr [rax + rax]
100009560: 55                          	push	rbp
100009561: 48 89 e5                    	mov	rbp, rsp
100009564: 41 57                       	push	r15
100009566: 41 56                       	push	r14
100009568: 53                          	push	rbx
100009569: 50                          	push	rax
10000956a: 48 89 fb                    	mov	rbx, rdi
10000956d: 48 89 f7                    	mov	rdi, rsi
100009570: e8 c9 02 00 00              	call	0x10000983e <dyld_stub_binder+0x10000983e>
100009575: 41 be ff ff ff ff           	mov	r14d, 4294967295
10000957b: 48 85 c0                    	test	rax, rax
10000957e: 74 46                       	je	0x1000095c6 <__text+0x5e46>
100009580: 49 89 c7                    	mov	r15, rax
100009583: 48 8b 7b 18                 	mov	rdi, qword ptr [rbx + 24]
100009587: 48 63 43 10                 	movsxd	rax, dword ptr [rbx + 16]
10000958b: 48 8d 34 c5 10 00 00 00     	lea	rsi, [8*rax + 16]
100009593: e8 64 02 00 00              	call	0x1000097fc <dyld_stub_binder+0x1000097fc>
100009598: 48 85 c0                    	test	rax, rax
10000959b: 74 21                       	je	0x1000095be <__text+0x5e3e>
10000959d: 48 89 43 18                 	mov	qword ptr [rbx + 24], rax
1000095a1: 48 63 4b 10                 	movsxd	rcx, dword ptr [rbx + 16]
1000095a5: 48 8d 51 01                 	lea	rdx, [rcx + 1]
1000095a9: 89 53 10                    	mov	dword ptr [rbx + 16], edx
1000095ac: 4c 89 3c c8                 	mov	qword ptr [rax + 8*rcx], r15
1000095b0: 48 c7 44 c8 08 00 00 00 00  	mov	qword ptr [rax + 8*rcx + 8], 0
1000095b9: 45 31 f6                    	xor	r14d, r14d
1000095bc: eb 08                       	jmp	0x1000095c6 <__text+0x5e46>
1000095be: 4c 89 ff                    	mov	rdi, r15
1000095c1: e8 b8 01 00 00              	call	0x10000977e <dyld_stub_binder+0x10000977e>
1000095c6: 44 89 f0                    	mov	eax, r14d
1000095c9: 48 83 c4 08                 	add	rsp, 8
1000095cd: 5b                          	pop	rbx
1000095ce: 41 5e                       	pop	r14
1000095d0: 41 5f                       	pop	r15
1000095d2: 5d                          	pop	rbp
1000095d3: c3                          	ret
1000095d4: 66 2e 0f 1f 84 00 00 00 00 00       	nop	word ptr cs:[rax + rax]
1000095de: 66 90                       	nop
1000095e0: 55                          	push	rbp
1000095e1: 48 89 e5                    	mov	rbp, rsp
1000095e4: 41 56                       	push	r14
1000095e6: 53                          	push	rbx
1000095e7: 49 89 fe                    	mov	r14, rdi
1000095ea: 83 7f 10 00                 	cmp	dword ptr [rdi + 16], 0
1000095ee: 7e 2a                       	jle	0x10000961a <__text+0x5e9a>
1000095f0: 31 db                       	xor	ebx, ebx
1000095f2: 66 2e 0f 1f 84 00 00 00 00 00       	nop	word ptr cs:[rax + rax]
1000095fc: 0f 1f 40 00                 	nop	dword ptr [rax]
100009600: 49 8b 46 18                 	mov	rax, qword ptr [r14 + 24]
100009604: 48 8b 3c d8                 	mov	rdi, qword ptr [rax + 8*rbx]
100009608: e8 71 01 00 00              	call	0x10000977e <dyld_stub_binder+0x10000977e>
10000960d: 48 83 c3 01                 	add	rbx, 1
100009611: 49 63 46 10                 	movsxd	rax, dword ptr [r14 + 16]
100009615: 48 39 c3                    	cmp	rbx, rax
100009618: 7c e6                       	jl	0x100009600 <__text+0x5e80>
10000961a: 49 8b 7e 18                 	mov	rdi, qword ptr [r14 + 24]
10000961e: e8 5b 01 00 00              	call	0x10000977e <dyld_stub_binder+0x10000977e>
100009623: 41 c7 46 10 00 00 00 00     	mov	dword ptr [r14 + 16], 0
10000962b: 49 c7 46 18 00 00 00 00     	mov	qword ptr [r14 + 24], 0
100009633: 5b                          	pop	rbx
100009634: 41 5e                       	pop	r14
100009636: 5d                          	pop	rbp
100009637: c3                          	ret
100009638: 90                          	nop
100009639: 90                          	nop
10000963a: 90                          	nop
10000963b: 90                          	nop
10000963c: 90                          	nop
10000963d: 90                          	nop
10000963e: 90                          	nop
10000963f: 90                          	nop
100009640: 55                          	push	rbp
100009641: 48 89 e5                    	mov	rbp, rsp
100009644: 53                          	push	rbx
100009645: 48 81 ec d8 00 00 00        	sub	rsp, 216
10000964c: 48 89 fb                    	mov	rbx, rdi
10000964f: 84 c0                       	test	al, al
100009651: 74 29                       	je	0x10000967c <__text+0x5efc>
100009653: 0f 29 85 50 ff ff ff        	movaps	xmmword ptr [rbp - 176], xmm0
10000965a: 0f 29 8d 60 ff ff ff        	movaps	xmmword ptr [rbp - 160], xmm1
100009661: 0f 29 95 70 ff ff ff        	movaps	xmmword ptr [rbp - 144], xmm2
100009668: 0f 29 5d 80                 	movaps	xmmword ptr [rbp - 128], xmm3
10000966c: 0f 29 65 90                 	movaps	xmmword ptr [rbp - 112], xmm4
100009670: 0f 29 6d a0                 	movaps	xmmword ptr [rbp - 96], xmm5
100009674: 0f 29 75 b0                 	movaps	xmmword ptr [rbp - 80], xmm6
100009678: 0f 29 7d c0                 	movaps	xmmword ptr [rbp - 64], xmm7
10000967c: 48 8d 85 20 ff ff ff        	lea	rax, [rbp - 224]
100009683: 48 89 50 10                 	mov	qword ptr [rax + 16], rdx
100009687: 48 89 48 18                 	mov	qword ptr [rax + 24], rcx
10000968b: 4c 89 40 20                 	mov	qword ptr [rax + 32], r8
10000968f: 4c 89 48 28                 	mov	qword ptr [rax + 40], r9
100009693: 48 8b 0d 6e 29 00 00        	mov	rcx, qword ptr [rip + 10606] ## 0x10000c008 <dyld_stub_binder+0x10000c008>
10000969a: 48 8b 09                    	mov	rcx, qword ptr [rcx]
10000969d: 48 89 4d f0                 	mov	qword ptr [rbp - 16], rcx
1000096a1: 48 8d 55 d0                 	lea	rdx, [rbp - 48]
1000096a5: 48 89 42 10                 	mov	qword ptr [rdx + 16], rax
1000096a9: 48 8d 45 10                 	lea	rax, [rbp + 16]
1000096ad: 48 89 42 08                 	mov	qword ptr [rdx + 8], rax
1000096b1: 48 b8 10 00 00 00 30 00 00 00       	movabs	rax, 206158430224
1000096bb: 48 89 02                    	mov	qword ptr [rdx], rax
1000096be: 48 8b 05 4b 29 00 00        	mov	rax, qword ptr [rip + 10571] ## 0x10000c010 <dyld_stub_binder+0x10000c010>
1000096c5: 48 8b 38                    	mov	rdi, qword ptr [rax]
1000096c8: e8 ad 01 00 00              	call	0x10000987a <dyld_stub_binder+0x10000987a>
1000096cd: 48 89 df                    	mov	rdi, rbx
1000096d0: e8 15 01 00 00              	call	0x1000097ea <dyld_stub_binder+0x1000097ea>
1000096d5: 48 8b 05 2c 29 00 00        	mov	rax, qword ptr [rip + 10540] ## 0x10000c008 <dyld_stub_binder+0x10000c008>
1000096dc: 48 8b 00                    	mov	rax, qword ptr [rax]
1000096df: 48 3b 45 f0                 	cmp	rax, qword ptr [rbp - 16]
1000096e3: 75 0a                       	jne	0x1000096ef <__text+0x5f6f>
1000096e5: 48 81 c4 d8 00 00 00        	add	rsp, 216
1000096ec: 5b                          	pop	rbx
1000096ed: 5d                          	pop	rbp
1000096ee: c3                          	ret
1000096ef: e8 0c 00 00 00              	call	0x100009700 <dyld_stub_binder+0x100009700>

Disassembly of section __TEXT,__stubs:

00000001000096f4 <__stubs>:
1000096f4: ff 25 2e 29 00 00           	jmp	qword ptr [rip + 10542] ## 0x10000c028 <dyld_stub_binder+0x10000c028>
1000096fa: ff 25 30 29 00 00           	jmp	qword ptr [rip + 10544] ## 0x10000c030 <dyld_stub_binder+0x10000c030>
100009700: ff 25 32 29 00 00           	jmp	qword ptr [rip + 10546] ## 0x10000c038 <dyld_stub_binder+0x10000c038>
100009706: ff 25 34 29 00 00           	jmp	qword ptr [rip + 10548] ## 0x10000c040 <dyld_stub_binder+0x10000c040>
10000970c: ff 25 36 29 00 00           	jmp	qword ptr [rip + 10550] ## 0x10000c048 <dyld_stub_binder+0x10000c048>
100009712: ff 25 38 29 00 00           	jmp	qword ptr [rip + 10552] ## 0x10000c050 <dyld_stub_binder+0x10000c050>
100009718: ff 25 3a 29 00 00           	jmp	qword ptr [rip + 10554] ## 0x10000c058 <dyld_stub_binder+0x10000c058>
10000971e: ff 25 3c 29 00 00           	jmp	qword ptr [rip + 10556] ## 0x10000c060 <dyld_stub_binder+0x10000c060>
100009724: ff 25 3e 29 00 00           	jmp	qword ptr [rip + 10558] ## 0x10000c068 <dyld_stub_binder+0x10000c068>
10000972a: ff 25 40 29 00 00           	jmp	qword ptr [rip + 10560] ## 0x10000c070 <dyld_stub_binder+0x10000c070>
100009730: ff 25 42 29 00 00           	jmp	qword ptr [rip + 10562] ## 0x10000c078 <dyld_stub_binder+0x10000c078>
100009736: ff 25 44 29 00 00           	jmp	qword ptr [rip + 10564] ## 0x10000c080 <dyld_stub_binder+0x10000c080>
10000973c: ff 25 46 29 00 00           	jmp	qword ptr [rip + 10566] ## 0x10000c088 <dyld_stub_binder+0x10000c088>
100009742: ff 25 48 29 00 00           	jmp	qword ptr [rip + 10568] ## 0x10000c090 <dyld_stub_binder+0x10000c090>
100009748: ff 25 4a 29 00 00           	jmp	qword ptr [rip + 10570] ## 0x10000c098 <dyld_stub_binder+0x10000c098>
10000974e: ff 25 4c 29 00 00           	jmp	qword ptr [rip + 10572] ## 0x10000c0a0 <dyld_stub_binder+0x10000c0a0>
100009754: ff 25 4e 29 00 00           	jmp	qword ptr [rip + 10574] ## 0x10000c0a8 <dyld_stub_binder+0x10000c0a8>
10000975a: ff 25 50 29 00 00           	jmp	qword ptr [rip + 10576] ## 0x10000c0b0 <dyld_stub_binder+0x10000c0b0>
100009760: ff 25 52 29 00 00           	jmp	qword ptr [rip + 10578] ## 0x10000c0b8 <dyld_stub_binder+0x10000c0b8>
100009766: ff 25 54 29 00 00           	jmp	qword ptr [rip + 10580] ## 0x10000c0c0 <dyld_stub_binder+0x10000c0c0>
10000976c: ff 25 56 29 00 00           	jmp	qword ptr [rip + 10582] ## 0x10000c0c8 <dyld_stub_binder+0x10000c0c8>
100009772: ff 25 58 29 00 00           	jmp	qword ptr [rip + 10584] ## 0x10000c0d0 <dyld_stub_binder+0x10000c0d0>
100009778: ff 25 5a 29 00 00           	jmp	qword ptr [rip + 10586] ## 0x10000c0d8 <dyld_stub_binder+0x10000c0d8>
10000977e: ff 25 5c 29 00 00           	jmp	qword ptr [rip + 10588] ## 0x10000c0e0 <dyld_stub_binder+0x10000c0e0>
100009784: ff 25 5e 29 00 00           	jmp	qword ptr [rip + 10590] ## 0x10000c0e8 <dyld_stub_binder+0x10000c0e8>
10000978a: ff 25 60 29 00 00           	jmp	qword ptr [rip + 10592] ## 0x10000c0f0 <dyld_stub_binder+0x10000c0f0>
100009790: ff 25 62 29 00 00           	jmp	qword ptr [rip + 10594] ## 0x10000c0f8 <dyld_stub_binder+0x10000c0f8>
100009796: ff 25 64 29 00 00           	jmp	qword ptr [rip + 10596] ## 0x10000c100 <dyld_stub_binder+0x10000c100>
10000979c: ff 25 66 29 00 00           	jmp	qword ptr [rip + 10598] ## 0x10000c108 <dyld_stub_binder+0x10000c108>
1000097a2: ff 25 68 29 00 00           	jmp	qword ptr [rip + 10600] ## 0x10000c110 <dyld_stub_binder+0x10000c110>
1000097a8: ff 25 6a 29 00 00           	jmp	qword ptr [rip + 10602] ## 0x10000c118 <dyld_stub_binder+0x10000c118>
1000097ae: ff 25 6c 29 00 00           	jmp	qword ptr [rip + 10604] ## 0x10000c120 <dyld_stub_binder+0x10000c120>
1000097b4: ff 25 6e 29 00 00           	jmp	qword ptr [rip + 10606] ## 0x10000c128 <dyld_stub_binder+0x10000c128>
1000097ba: ff 25 70 29 00 00           	jmp	qword ptr [rip + 10608] ## 0x10000c130 <dyld_stub_binder+0x10000c130>
1000097c0: ff 25 72 29 00 00           	jmp	qword ptr [rip + 10610] ## 0x10000c138 <dyld_stub_binder+0x10000c138>
1000097c6: ff 25 74 29 00 00           	jmp	qword ptr [rip + 10612] ## 0x10000c140 <dyld_stub_binder+0x10000c140>
1000097cc: ff 25 76 29 00 00           	jmp	qword ptr [rip + 10614] ## 0x10000c148 <dyld_stub_binder+0x10000c148>
1000097d2: ff 25 78 29 00 00           	jmp	qword ptr [rip + 10616] ## 0x10000c150 <dyld_stub_binder+0x10000c150>
1000097d8: ff 25 7a 29 00 00           	jmp	qword ptr [rip + 10618] ## 0x10000c158 <dyld_stub_binder+0x10000c158>
1000097de: ff 25 7c 29 00 00           	jmp	qword ptr [rip + 10620] ## 0x10000c160 <dyld_stub_binder+0x10000c160>
1000097e4: ff 25 7e 29 00 00           	jmp	qword ptr [rip + 10622] ## 0x10000c168 <dyld_stub_binder+0x10000c168>
1000097ea: ff 25 80 29 00 00           	jmp	qword ptr [rip + 10624] ## 0x10000c170 <dyld_stub_binder+0x10000c170>
1000097f0: ff 25 82 29 00 00           	jmp	qword ptr [rip + 10626] ## 0x10000c178 <dyld_stub_binder+0x10000c178>
1000097f6: ff 25 84 29 00 00           	jmp	qword ptr [rip + 10628] ## 0x10000c180 <dyld_stub_binder+0x10000c180>
1000097fc: ff 25 86 29 00 00           	jmp	qword ptr [rip + 10630] ## 0x10000c188 <dyld_stub_binder+0x10000c188>
100009802: ff 25 88 29 00 00           	jmp	qword ptr [rip + 10632] ## 0x10000c190 <dyld_stub_binder+0x10000c190>
100009808: ff 25 8a 29 00 00           	jmp	qword ptr [rip + 10634] ## 0x10000c198 <dyld_stub_binder+0x10000c198>
10000980e: ff 25 8c 29 00 00           	jmp	qword ptr [rip + 10636] ## 0x10000c1a0 <dyld_stub_binder+0x10000c1a0>
100009814: ff 25 8e 29 00 00           	jmp	qword ptr [rip + 10638] ## 0x10000c1a8 <dyld_stub_binder+0x10000c1a8>
10000981a: ff 25 90 29 00 00           	jmp	qword ptr [rip + 10640] ## 0x10000c1b0 <dyld_stub_binder+0x10000c1b0>
100009820: ff 25 92 29 00 00           	jmp	qword ptr [rip + 10642] ## 0x10000c1b8 <dyld_stub_binder+0x10000c1b8>
100009826: ff 25 94 29 00 00           	jmp	qword ptr [rip + 10644] ## 0x10000c1c0 <dyld_stub_binder+0x10000c1c0>
10000982c: ff 25 96 29 00 00           	jmp	qword ptr [rip + 10646] ## 0x10000c1c8 <dyld_stub_binder+0x10000c1c8>
100009832: ff 25 98 29 00 00           	jmp	qword ptr [rip + 10648] ## 0x10000c1d0 <dyld_stub_binder+0x10000c1d0>
100009838: ff 25 9a 29 00 00           	jmp	qword ptr [rip + 10650] ## 0x10000c1d8 <dyld_stub_binder+0x10000c1d8>
10000983e: ff 25 9c 29 00 00           	jmp	qword ptr [rip + 10652] ## 0x10000c1e0 <dyld_stub_binder+0x10000c1e0>
100009844: ff 25 9e 29 00 00           	jmp	qword ptr [rip + 10654] ## 0x10000c1e8 <dyld_stub_binder+0x10000c1e8>
10000984a: ff 25 a0 29 00 00           	jmp	qword ptr [rip + 10656] ## 0x10000c1f0 <dyld_stub_binder+0x10000c1f0>
100009850: ff 25 a2 29 00 00           	jmp	qword ptr [rip + 10658] ## 0x10000c1f8 <dyld_stub_binder+0x10000c1f8>
100009856: ff 25 a4 29 00 00           	jmp	qword ptr [rip + 10660] ## 0x10000c200 <dyld_stub_binder+0x10000c200>
10000985c: ff 25 a6 29 00 00           	jmp	qword ptr [rip + 10662] ## 0x10000c208 <dyld_stub_binder+0x10000c208>
100009862: ff 25 a8 29 00 00           	jmp	qword ptr [rip + 10664] ## 0x10000c210 <dyld_stub_binder+0x10000c210>
100009868: ff 25 aa 29 00 00           	jmp	qword ptr [rip + 10666] ## 0x10000c218 <dyld_stub_binder+0x10000c218>
10000986e: ff 25 ac 29 00 00           	jmp	qword ptr [rip + 10668] ## 0x10000c220 <dyld_stub_binder+0x10000c220>
100009874: ff 25 ae 29 00 00           	jmp	qword ptr [rip + 10670] ## 0x10000c228 <dyld_stub_binder+0x10000c228>
10000987a: ff 25 b0 29 00 00           	jmp	qword ptr [rip + 10672] ## 0x10000c230 <dyld_stub_binder+0x10000c230>
100009880: ff 25 b2 29 00 00           	jmp	qword ptr [rip + 10674] ## 0x10000c238 <dyld_stub_binder+0x10000c238>
100009886: ff 25 b4 29 00 00           	jmp	qword ptr [rip + 10676] ## 0x10000c240 <dyld_stub_binder+0x10000c240>
10000988c: ff 25 b6 29 00 00           	jmp	qword ptr [rip + 10678] ## 0x10000c248 <dyld_stub_binder+0x10000c248>

Disassembly of section __TEXT,__stub_helper:

0000000100009894 <__stub_helper>:
100009894: 4c 8d 1d 65 27 00 00        	lea	r11, [rip + 10085]      ## 0x10000c000 <dyld_stub_binder+0x10000c000>
10000989b: 41 53                       	push	r11
10000989d: ff 25 7d 27 00 00           	jmp	qword ptr [rip + 10109] ## 0x10000c020 <dyld_stub_binder+0x10000c020>
1000098a3: 90                          	nop
1000098a4: 68 00 00 00 00              	push	0
1000098a9: e9 e6 ff ff ff              	jmp	0x100009894 <__stub_helper>
1000098ae: 68 1c 00 00 00              	push	28
1000098b3: e9 dc ff ff ff              	jmp	0x100009894 <__stub_helper>
1000098b8: 68 2b 00 00 00              	push	43
1000098bd: e9 d2 ff ff ff              	jmp	0x100009894 <__stub_helper>
1000098c2: 68 43 00 00 00              	push	67
1000098c7: e9 c8 ff ff ff              	jmp	0x100009894 <__stub_helper>
1000098cc: 68 53 00 00 00              	push	83
1000098d1: e9 be ff ff ff              	jmp	0x100009894 <__stub_helper>
1000098d6: 68 61 00 00 00              	push	97
1000098db: e9 b4 ff ff ff              	jmp	0x100009894 <__stub_helper>
1000098e0: 68 71 00 00 00              	push	113
1000098e5: e9 aa ff ff ff              	jmp	0x100009894 <__stub_helper>
1000098ea: 68 81 00 00 00              	push	129
1000098ef: e9 a0 ff ff ff              	jmp	0x100009894 <__stub_helper>
1000098f4: 68 90 00 00 00              	push	144
1000098f9: e9 96 ff ff ff              	jmp	0x100009894 <__stub_helper>
1000098fe: 68 9f 00 00 00              	push	159
100009903: e9 8c ff ff ff              	jmp	0x100009894 <__stub_helper>
100009908: 68 ae 00 00 00              	push	174
10000990d: e9 82 ff ff ff              	jmp	0x100009894 <__stub_helper>
100009912: 68 bc 00 00 00              	push	188
100009917: e9 78 ff ff ff              	jmp	0x100009894 <__stub_helper>
10000991c: 68 ca 00 00 00              	push	202
100009921: e9 6e ff ff ff              	jmp	0x100009894 <__stub_helper>
100009926: 68 d9 00 00 00              	push	217
10000992b: e9 64 ff ff ff              	jmp	0x100009894 <__stub_helper>
100009930: 68 e8 00 00 00              	push	232
100009935: e9 5a ff ff ff              	jmp	0x100009894 <__stub_helper>
10000993a: 68 f7 00 00 00              	push	247
10000993f: e9 50 ff ff ff              	jmp	0x100009894 <__stub_helper>
100009944: 68 04 01 00 00              	push	260
100009949: e9 46 ff ff ff              	jmp	0x100009894 <__stub_helper>
10000994e: 68 13 01 00 00              	push	275
100009953: e9 3c ff ff ff              	jmp	0x100009894 <__stub_helper>
100009958: 68 22 01 00 00              	push	290
10000995d: e9 32 ff ff ff              	jmp	0x100009894 <__stub_helper>
100009962: 68 31 01 00 00              	push	305
100009967: e9 28 ff ff ff              	jmp	0x100009894 <__stub_helper>
10000996c: 68 4c 01 00 00              	push	332
100009971: e9 1e ff ff ff              	jmp	0x100009894 <__stub_helper>
100009976: 68 59 01 00 00              	push	345
10000997b: e9 14 ff ff ff              	jmp	0x100009894 <__stub_helper>
100009980: 68 69 01 00 00              	push	361
100009985: e9 0a ff ff ff              	jmp	0x100009894 <__stub_helper>
10000998a: 68 77 01 00 00              	push	375
10000998f: e9 00 ff ff ff              	jmp	0x100009894 <__stub_helper>
100009994: 68 84 01 00 00              	push	388
100009999: e9 f6 fe ff ff              	jmp	0x100009894 <__stub_helper>
10000999e: 68 93 01 00 00              	push	403
1000099a3: e9 ec fe ff ff              	jmp	0x100009894 <__stub_helper>
1000099a8: 68 a2 01 00 00              	push	418
1000099ad: e9 e2 fe ff ff              	jmp	0x100009894 <__stub_helper>
1000099b2: 68 b1 01 00 00              	push	433
1000099b7: e9 d8 fe ff ff              	jmp	0x100009894 <__stub_helper>
1000099bc: 68 c0 01 00 00              	push	448
1000099c1: e9 ce fe ff ff              	jmp	0x100009894 <__stub_helper>
1000099c6: 68 07 02 00 00              	push	519
1000099cb: e9 c4 fe ff ff              	jmp	0x100009894 <__stub_helper>
1000099d0: 68 14 02 00 00              	push	532
1000099d5: e9 ba fe ff ff              	jmp	0x100009894 <__stub_helper>
1000099da: 68 2a 02 00 00              	push	554
1000099df: e9 b0 fe ff ff              	jmp	0x100009894 <__stub_helper>
1000099e4: 68 39 02 00 00              	push	569
1000099e9: e9 a6 fe ff ff              	jmp	0x100009894 <__stub_helper>
1000099ee: 68 4a 02 00 00              	push	586
1000099f3: e9 9c fe ff ff              	jmp	0x100009894 <__stub_helper>
1000099f8: 68 59 02 00 00              	push	601
1000099fd: e9 92 fe ff ff              	jmp	0x100009894 <__stub_helper>
100009a02: 68 68 02 00 00              	push	616
100009a07: e9 88 fe ff ff              	jmp	0x100009894 <__stub_helper>
100009a0c: 68 76 02 00 00              	push	630
100009a11: e9 7e fe ff ff              	jmp	0x100009894 <__stub_helper>
100009a16: 68 86 02 00 00              	push	646
100009a1b: e9 74 fe ff ff              	jmp	0x100009894 <__stub_helper>
100009a20: 68 9e 02 00 00              	push	670
100009a25: e9 6a fe ff ff              	jmp	0x100009894 <__stub_helper>
100009a2a: 68 ad 02 00 00              	push	685
100009a2f: e9 60 fe ff ff              	jmp	0x100009894 <__stub_helper>
100009a34: 68 bb 02 00 00              	push	699
100009a39: e9 56 fe ff ff              	jmp	0x100009894 <__stub_helper>
100009a3e: 68 d3 02 00 00              	push	723
100009a43: e9 4c fe ff ff              	jmp	0x100009894 <__stub_helper>
100009a48: 68 e3 02 00 00              	push	739
100009a4d: e9 42 fe ff ff              	jmp	0x100009894 <__stub_helper>
100009a52: 68 01 03 00 00              	push	769
100009a57: e9 38 fe ff ff              	jmp	0x100009894 <__stub_helper>
100009a5c: 68 0f 03 00 00              	push	783
100009a61: e9 2e fe ff ff              	jmp	0x100009894 <__stub_helper>
100009a66: 68 1e 03 00 00              	push	798
100009a6b: e9 24 fe ff ff              	jmp	0x100009894 <__stub_helper>
100009a70: 68 2d 03 00 00              	push	813
100009a75: e9 1a fe ff ff              	jmp	0x100009894 <__stub_helper>
100009a7a: 68 3e 03 00 00              	push	830
100009a7f: e9 10 fe ff ff              	jmp	0x100009894 <__stub_helper>
100009a84: 68 53 03 00 00              	push	851
100009a89: e9 06 fe ff ff              	jmp	0x100009894 <__stub_helper>
100009a8e: 68 66 03 00 00              	push	870
100009a93: e9 fc fd ff ff              	jmp	0x100009894 <__stub_helper>
100009a98: 68 75 03 00 00              	push	885
100009a9d: e9 f2 fd ff ff              	jmp	0x100009894 <__stub_helper>
100009aa2: 68 84 03 00 00              	push	900
100009aa7: e9 e8 fd ff ff              	jmp	0x100009894 <__stub_helper>
100009aac: 68 93 03 00 00              	push	915
100009ab1: e9 de fd ff ff              	jmp	0x100009894 <__stub_helper>
100009ab6: 68 a2 03 00 00              	push	930
100009abb: e9 d4 fd ff ff              	jmp	0x100009894 <__stub_helper>
100009ac0: 68 b3 03 00 00              	push	947
100009ac5: e9 ca fd ff ff              	jmp	0x100009894 <__stub_helper>
100009aca: 68 c2 03 00 00              	push	962
100009acf: e9 c0 fd ff ff              	jmp	0x100009894 <__stub_helper>
100009ad4: 68 d2 03 00 00              	push	978
100009ad9: e9 b6 fd ff ff              	jmp	0x100009894 <__stub_helper>
100009ade: 68 e2 03 00 00              	push	994
100009ae3: e9 ac fd ff ff              	jmp	0x100009894 <__stub_helper>
100009ae8: 68 f2 03 00 00              	push	1010
100009aed: e9 a2 fd ff ff              	jmp	0x100009894 <__stub_helper>
100009af2: 68 02 04 00 00              	push	1026
100009af7: e9 98 fd ff ff              	jmp	0x100009894 <__stub_helper>
100009afc: 68 12 04 00 00              	push	1042
100009b01: e9 8e fd ff ff              	jmp	0x100009894 <__stub_helper>
100009b06: 68 21 04 00 00              	push	1057
100009b0b: e9 84 fd ff ff              	jmp	0x100009894 <__stub_helper>
100009b10: 68 32 04 00 00              	push	1074
100009b15: e9 7a fd ff ff              	jmp	0x100009894 <__stub_helper>
100009b1a: 68 43 04 00 00              	push	1091
100009b1f: e9 70 fd ff ff              	jmp	0x100009894 <__stub_helper>
100009b24: 68 55 04 00 00              	push	1109
100009b29: e9 66 fd ff ff              	jmp	0x100009894 <__stub_helper>
100009b2e: 68 65 04 00 00              	push	1125
100009b33: e9 5c fd ff ff              	jmp	0x100009894 <__stub_helper>
100009b38: 68 cf 01 00 00              	push	463
100009b3d: e9 52 fd ff ff              	jmp	0x100009894 <__stub_helper>
100009b42: 68 df 01 00 00              	push	479
100009b47: e9 48 fd ff ff              	jmp	0x100009894 <__stub_helper>
100009b4c: 68 f2 01 00 00              	push	498
100009b51: e9 3e fd ff ff              	jmp	0x100009894 <__stub_helper>

Disassembly of section __TEXT,__const:

0000000100009b60 <__const>:
100009b60: 03 02                       	add	eax, dword ptr [rdx]
100009b62: 01 00                       	add	dword ptr [rax], eax
100009b64: 07                          	<unknown>
100009b65: 06                          	<unknown>
100009b66: 05 04 0b 0a 09              	add	eax, 151653124
100009b6b: 08 0f                       	or	byte ptr [rdi], cl
100009b6d: 0e                          	<unknown>
100009b6e: 0d 0c fc ff ff              	or	eax, 4294966284
100009b73: ff fd                       	<unknown>
100009b75: ff ff                       	<unknown>
100009b77: ff fe                       	<unknown>
100009b79: ff ff                       	<unknown>
100009b7b: ff fd                       	<unknown>
100009b7d: ff ff                       	<unknown>
100009b7f: ff fd                       	<unknown>
100009b81: ff ff                       	<unknown>
100009b83: ff fd                       	<unknown>
100009b85: ff ff                       	<unknown>
100009b87: ff fd                       	<unknown>
100009b89: ff ff                       	<unknown>
100009b8b: ff 4d 45                    	dec	dword ptr [rbp + 69]
100009b8e: 49 00 0b                    	add	byte ptr [r11], cl
100009b91: 0a 0b                       	or	cl, byte ptr [rbx]
100009b93: 0e                          	<unknown>

Disassembly of section __TEXT,__cstring:

0000000100009b94 <__cstring>:
100009b94: 72 62                       	jb	0x100009bf8 <__cstring+0x64>
100009b96: 00 46 61                    	add	byte ptr [rsi + 97], al
100009b99: 69 6c 65 64 20 74 6f 20     	imul	ebp, dword ptr [rbp + 2*riz + 100], 544175136
100009ba1: 65 78 74                    	js	0x100009c18 <__cstring+0x84>
100009ba4: 72 61                       	jb	0x100009c07 <__cstring+0x73>
100009ba6: 63 74 20 25                 	movsxd	esi, dword ptr [rax + riz + 37]
100009baa: 73 3a                       	jae	0x100009be6 <__cstring+0x52>
100009bac: 20 66 61                    	and	byte ptr [rsi + 97], ah
100009baf: 69 6c 65 64 20 74 6f 20     	imul	ebp, dword ptr [rbp + 2*riz + 100], 544175136
100009bb7: 6f                          	outsd	dx, dword ptr [rsi]
100009bb8: 70 65                       	jo	0x100009c1f <__cstring+0x8b>
100009bba: 6e                          	outsb	dx, byte ptr [rsi]
100009bbb: 20 61 72                    	and	byte ptr [rcx + 114], ah
100009bbe: 63 68 69                    	movsxd	ebp, dword ptr [rax + 105]
100009bc1: 76 65                       	jbe	0x100009c28 <__cstring+0x94>
100009bc3: 20 66 69                    	and	byte ptr [rsi + 105], ah
100009bc6: 6c                          	insb	byte ptr es:[rdi], dx
100009bc7: 65 21 0a                    	and	dword ptr gs:[rdx], ecx
100009bca: 00 66 73                    	add	byte ptr [rsi + 115], ah
100009bcd: 65 65 6b 00 46              	imul	eax, dword ptr gs:[rax], 70
100009bd2: 61                          	<unknown>
100009bd3: 69 6c 65 64 20 74 6f 20     	imul	ebp, dword ptr [rbp + 2*riz + 100], 544175136
100009bdb: 65 78 74                    	js	0x100009c52 <__cstring+0xbe>
100009bde: 72 61                       	jb	0x100009c41 <__cstring+0xad>
100009be0: 63 74 20 25                 	movsxd	esi, dword ptr [rax + riz + 37]
100009be4: 73 3a                       	jae	0x100009c20 <__cstring+0x8c>
100009be6: 20 66 61                    	and	byte ptr [rsi + 97], ah
100009be9: 69 6c 65 64 20 74 6f 20     	imul	ebp, dword ptr [rbp + 2*riz + 100], 544175136
100009bf1: 73 65                       	jae	0x100009c58 <__cstring+0xc4>
100009bf3: 65 6b 20 74                 	imul	esp, dword ptr gs:[rax], 116
100009bf7: 6f                          	outsd	dx, dword ptr [rsi]
100009bf8: 20 74 68 65                 	and	byte ptr [rax + 2*rbp + 101], dh
100009bfc: 20 65 6e                    	and	byte ptr [rbp + 110], ah
100009bff: 74 72                       	je	0x100009c73 <__cstring+0xdf>
100009c01: 79 27                       	jns	0x100009c2a <__cstring+0x96>
100009c03: 73 20                       	jae	0x100009c25 <__cstring+0x91>
100009c05: 64 61                       	<unknown>
100009c07: 74 61                       	je	0x100009c6a <__cstring+0xd6>
100009c09: 21 0a                       	and	dword ptr [rdx], ecx
100009c0b: 00 6d 61                    	add	byte ptr [rbp + 97], ch
100009c0e: 6c                          	insb	byte ptr es:[rdi], dx
100009c0f: 6c                          	insb	byte ptr es:[rdi], dx
100009c10: 6f                          	outsd	dx, dword ptr [rsi]
100009c11: 63 00                       	movsxd	eax, dword ptr [rax]
100009c13: 46 61                       	<unknown>
100009c15: 69 6c 65 64 20 74 6f 20     	imul	ebp, dword ptr [rbp + 2*riz + 100], 544175136
100009c1d: 65 78 74                    	js	0x100009c94 <__cstring+0x100>
100009c20: 72 61                       	jb	0x100009c83 <__cstring+0xef>
100009c22: 63 74 20 25                 	movsxd	esi, dword ptr [rax + riz + 37]
100009c26: 73 3a                       	jae	0x100009c62 <__cstring+0xce>
100009c28: 20 66 61                    	and	byte ptr [rsi + 97], ah
100009c2b: 69 6c 65 64 20 74 6f 20     	imul	ebp, dword ptr [rbp + 2*riz + 100], 544175136
100009c33: 61                          	<unknown>
100009c34: 6c                          	insb	byte ptr es:[rdi], dx
100009c35: 6c                          	insb	byte ptr es:[rdi], dx
100009c36: 6f                          	outsd	dx, dword ptr [rsi]
100009c37: 63 61 74                    	movsxd	esp, dword ptr [rcx + 116]
100009c3a: 65 20 64 61 74              	and	byte ptr gs:[rcx + 2*riz + 116], ah
100009c3f: 61                          	<unknown>
100009c40: 20 62 75                    	and	byte ptr [rdx + 117], ah
100009c43: 66 66 65 72 20              	jb	0x100009c68 <__cstring+0xd4>
100009c48: 28 25 75 20 62 79           	sub	byte ptr [rip + 2036473973], ah ## 0x17962bcc3 <dyld_stub_binder+0x17962bcc3>
100009c4e: 74 65                       	je	0x100009cb5 <__cstring+0x121>
100009c50: 73 29                       	jae	0x100009c7b <__cstring+0xe7>
100009c52: 21 0a                       	and	dword ptr [rdx], ecx
100009c54: 00 46 61                    	add	byte ptr [rsi + 97], al
100009c57: 69 6c 65 64 20 74 6f 20     	imul	ebp, dword ptr [rbp + 2*riz + 100], 544175136
100009c5f: 63 72 65                    	movsxd	esi, dword ptr [rdx + 101]
100009c62: 61                          	<unknown>
100009c63: 74 65                       	je	0x100009cca <__cstring+0x136>
100009c65: 20 73 79                    	and	byte ptr [rbx + 121], dh
100009c68: 6d                          	insd	dword ptr es:[rdi], dx
100009c69: 62                          	<unknown>
100009c6a: 6f                          	outsd	dx, dword ptr [rsi]
100009c6b: 6c                          	insb	byte ptr es:[rdi], dx
100009c6c: 69 63 20 6c 69 6e 6b        	imul	esp, dword ptr [rbx + 32], 1802398060
100009c73: 20 25 73 21 0a 00           	and	byte ptr [rip + 663923], ah ## 0x1000abdec <dyld_stub_binder+0x1000abdec>
100009c79: 77 62                       	ja	0x100009cdd <__cstring+0x149>
100009c7b: 00 66 6f                    	add	byte ptr [rsi + 111], ah
100009c7e: 70 65                       	jo	0x100009ce5 <__cstring+0x151>
100009c80: 6e                          	outsb	dx, byte ptr [rsi]
100009c81: 00 46 61                    	add	byte ptr [rsi + 97], al
100009c84: 69 6c 65 64 20 74 6f 20     	imul	ebp, dword ptr [rbp + 2*riz + 100], 544175136
100009c8c: 65 78 74                    	js	0x100009d03 <__cstring+0x16f>
100009c8f: 72 61                       	jb	0x100009cf2 <__cstring+0x15e>
100009c91: 63 74 20 25                 	movsxd	esi, dword ptr [rax + riz + 37]
100009c95: 73 3a                       	jae	0x100009cd1 <__cstring+0x13d>
100009c97: 20 66 61                    	and	byte ptr [rsi + 97], ah
100009c9a: 69 6c 65 64 20 74 6f 20     	imul	ebp, dword ptr [rbp + 2*riz + 100], 544175136
100009ca2: 6f                          	outsd	dx, dword ptr [rsi]
100009ca3: 70 65                       	jo	0x100009d0a <__cstring+0x176>
100009ca5: 6e                          	outsb	dx, byte ptr [rsi]
100009ca6: 20 74 61 72                 	and	byte ptr [rcx + 2*riz + 114], dh
100009caa: 67 65 74 20                 	addr32		je	0x100009cce <__cstring+0x13a>
100009cae: 66 69 6c 65 21 0a 00        	imul	bp, word ptr [rbp + 2*riz + 33], 10
100009cb5: 46 61                       	<unknown>
100009cb7: 69 6c 65 64 20 74 6f 20     	imul	ebp, dword ptr [rbp + 2*riz + 100], 544175136
100009cbf: 73 65                       	jae	0x100009d26 <__cstring+0x192>
100009cc1: 65 6b 20 74                 	imul	esp, dword ptr gs:[rax], 116
100009cc5: 6f                          	outsd	dx, dword ptr [rsi]
100009cc6: 20 63 6f                    	and	byte ptr [rbx + 111], ah
100009cc9: 6f                          	outsd	dx, dword ptr [rsi]
100009cca: 6b 69 65 20                 	imul	ebp, dword ptr [rcx + 101], 32
100009cce: 70 6f                       	jo	0x100009d3f <__cstring+0x1ab>
100009cd0: 73 69                       	jae	0x100009d3b <__cstring+0x1a7>
100009cd2: 74 69                       	je	0x100009d3d <__cstring+0x1a9>
100009cd4: 6f                          	outsd	dx, dword ptr [rsi]
100009cd5: 6e                          	outsb	dx, byte ptr [rsi]
100009cd6: 21 0a                       	and	dword ptr [rdx], ecx
100009cd8: 00 66 72                    	add	byte ptr [rsi + 114], ah
100009cdb: 65 61                       	<unknown>
100009cdd: 64 00 46 61                 	add	byte ptr fs:[rsi + 97], al
100009ce1: 69 6c 65 64 20 74 6f 20     	imul	ebp, dword ptr [rbp + 2*riz + 100], 544175136
100009ce9: 72 65                       	jb	0x100009d50 <__cstring+0x1bc>
100009ceb: 61                          	<unknown>
100009cec: 64 20 63 6f                 	and	byte ptr fs:[rbx + 111], ah
100009cf0: 6f                          	outsd	dx, dword ptr [rsi]
100009cf1: 6b 69 65 21                 	imul	ebp, dword ptr [rcx + 101], 33
100009cf5: 0a 00                       	or	al, byte ptr [rax]
100009cf7: 63 61 6c                    	movsxd	esp, dword ptr [rcx + 108]
100009cfa: 6c                          	insb	byte ptr es:[rdi], dx
100009cfb: 6f                          	outsd	dx, dword ptr [rsi]
100009cfc: 63 00                       	movsxd	eax, dword ptr [rax]
100009cfe: 43 6f                       	outsd	dx, dword ptr [rsi]
100009d00: 75 6c                       	jne	0x100009d6e <__cstring+0x1da>
100009d02: 64 20 6e 6f                 	and	byte ptr fs:[rsi + 111], ch
100009d06: 74 20                       	je	0x100009d28 <__cstring+0x194>
100009d08: 61                          	<unknown>
100009d09: 6c                          	insb	byte ptr es:[rdi], dx
100009d0a: 6c                          	insb	byte ptr es:[rdi], dx
100009d0b: 6f                          	outsd	dx, dword ptr [rsi]
100009d0c: 63 61 74                    	movsxd	esp, dword ptr [rcx + 116]
100009d0f: 65 20 6d 65                 	and	byte ptr gs:[rbp + 101], ch
100009d13: 6d                          	insd	dword ptr es:[rdi], dx
100009d14: 6f                          	outsd	dx, dword ptr [rsi]
100009d15: 72 79                       	jb	0x100009d90 <__cstring+0x1fc>
100009d17: 20 66 6f                    	and	byte ptr [rsi + 111], ah
100009d1a: 72 20                       	jb	0x100009d3c <__cstring+0x1a8>
100009d1c: 61                          	<unknown>
100009d1d: 72 63                       	jb	0x100009d82 <__cstring+0x1ee>
100009d1f: 68 69 76 65 20              	push	543520361
100009d24: 73 74                       	jae	0x100009d9a <__cstring+0x206>
100009d26: 72 75                       	jb	0x100009d9d <__cstring+0x209>
100009d28: 63 74 75 72                 	movsxd	esi, dword ptr [rbp + 2*rsi + 114]
100009d2c: 65 21 0a                    	and	dword ptr gs:[rdx], ecx
100009d2f: 00 25 73 00 43 6f           	add	byte ptr [rip + 1866662003], ah ## 0x16f439da8 <dyld_stub_binder+0x16f439da8>
100009d35: 75 6c                       	jne	0x100009da3 <__cstring+0x20f>
100009d37: 64 20 6e 6f                 	and	byte ptr fs:[rsi + 111], ch
100009d3b: 74 20                       	je	0x100009d5d <__cstring+0x1c9>
100009d3d: 61                          	<unknown>
100009d3e: 6c                          	insb	byte ptr es:[rdi], dx
100009d3f: 6c                          	insb	byte ptr es:[rdi], dx
100009d40: 6f                          	outsd	dx, dword ptr [rsi]
100009d41: 63 61 74                    	movsxd	esp, dword ptr [rcx + 116]
100009d44: 65 20 62 75                 	and	byte ptr gs:[rdx + 117], ah
100009d48: 66 66 65 72 20              	jb	0x100009d6d <__cstring+0x1d9>
100009d4d: 66 6f                       	outsw	dx, word ptr [rsi]
100009d4f: 72 20                       	jb	0x100009d71 <__cstring+0x1dd>
100009d51: 54                          	push	rsp
100009d52: 4f 43                       	<unknown>
100009d54: 21 0a                       	and	dword ptr [rdx], ecx
100009d56: 00 43 6f                    	add	byte ptr [rbx + 111], al
100009d59: 75 6c                       	jne	0x100009dc7 <__cstring+0x233>
100009d5b: 64 20 6e 6f                 	and	byte ptr fs:[rsi + 111], ch
100009d5f: 74 20                       	je	0x100009d81 <__cstring+0x1ed>
100009d61: 72 65                       	jb	0x100009dc8 <__cstring+0x234>
100009d63: 61                          	<unknown>
100009d64: 64 20 66 75                 	and	byte ptr fs:[rsi + 117], ah
100009d68: 6c                          	insb	byte ptr es:[rdi], dx
100009d69: 6c                          	insb	byte ptr es:[rdi], dx
100009d6a: 20 54 4f 43                 	and	byte ptr [rdi + 2*rcx + 67], dl
100009d6e: 21 0a                       	and	dword ptr [rdx], ecx
100009d70: 00 45 72                    	add	byte ptr [rbp + 114], al
100009d73: 72 6f                       	jb	0x100009de4 <__cstring+0x250>
100009d75: 72 20                       	jb	0x100009d97 <__cstring+0x203>
100009d77: 6f                          	outsd	dx, dword ptr [rsi]
100009d78: 6e                          	outsb	dx, byte ptr [rsi]
100009d79: 20 66 69                    	and	byte ptr [rsi + 105], ah
100009d7c: 6c                          	insb	byte ptr es:[rdi], dx
100009d7d: 65 2e 0a 00                 	or	al, byte ptr cs:[rax]
100009d81: 31 2e                       	xor	dword ptr [rsi], ebp
100009d83: 33 2e                       	xor	ebp, dword ptr [rsi]
100009d85: 31 00                       	xor	dword ptr [rax], eax
100009d87: 46 61                       	<unknown>
100009d89: 69 6c 65 64 20 74 6f 20     	imul	ebp, dword ptr [rbp + 2*riz + 100], 544175136
100009d91: 65 78 74                    	js	0x100009e08 <__cstring+0x274>
100009d94: 72 61                       	jb	0x100009df7 <__cstring+0x263>
100009d96: 63 74 20 25                 	movsxd	esi, dword ptr [rax + riz + 37]
100009d9a: 73 3a                       	jae	0x100009dd6 <__cstring+0x242>
100009d9c: 20 69 6e                    	and	byte ptr [rcx + 110], ch
100009d9f: 66 6c                       	insb	byte ptr es:[rdi], dx
100009da1: 61                          	<unknown>
100009da2: 74 65                       	je	0x100009e09 <__cstring+0x275>
100009da4: 49 6e                       	outsb	dx, byte ptr [rsi]
100009da6: 69 74 28 29 20 66 61 69     	imul	esi, dword ptr [rax + rbp + 41], 1767990816
100009dae: 6c                          	insb	byte ptr es:[rdi], dx
100009daf: 65 64 20 77 69              	and	byte ptr fs:[rdi + 105], dh
100009db4: 74 68                       	je	0x100009e1e <__cstring+0x28a>
100009db6: 20 72 65                    	and	byte ptr [rdx + 101], dh
100009db9: 74 75                       	je	0x100009e30 <__cstring+0x29c>
100009dbb: 72 6e                       	jb	0x100009e2b <__cstring+0x297>
100009dbd: 20 63 6f                    	and	byte ptr [rbx + 111], ah
100009dc0: 64 65 20 25 64 21 0a 00     	and	byte ptr gs:[rip + 663908], ah
100009dc8: 46 61                       	<unknown>
100009dca: 69 6c 65 64 20 74 6f 20     	imul	ebp, dword ptr [rbp + 2*riz + 100], 544175136
100009dd2: 65 78 74                    	js	0x100009e49 <__cstring+0x2b5>
100009dd5: 72 61                       	jb	0x100009e38 <__cstring+0x2a4>
100009dd7: 63 74 20 25                 	movsxd	esi, dword ptr [rax + riz + 37]
100009ddb: 73 3a                       	jae	0x100009e17 <__cstring+0x283>
100009ddd: 20 66 61                    	and	byte ptr [rsi + 97], ah
100009de0: 69 6c 65 64 20 74 6f 20     	imul	ebp, dword ptr [rbp + 2*riz + 100], 544175136
100009de8: 61                          	<unknown>
100009de9: 6c                          	insb	byte ptr es:[rdi], dx
100009dea: 6c                          	insb	byte ptr es:[rdi], dx
100009deb: 6f                          	outsd	dx, dword ptr [rsi]
100009dec: 63 61 74                    	movsxd	esp, dword ptr [rcx + 116]
100009def: 65 20 74 65 6d              	and	byte ptr gs:[rbp + 2*riz + 109], dh
100009df4: 70 6f                       	jo	0x100009e65 <__cstring+0x2d1>
100009df6: 72 61                       	jb	0x100009e59 <__cstring+0x2c5>
100009df8: 72 79                       	jb	0x100009e73 <__cstring+0x2df>
100009dfa: 20 69 6e                    	and	byte ptr [rcx + 110], ch
100009dfd: 70 75                       	jo	0x100009e74 <__cstring+0x2e0>
100009dff: 74 20                       	je	0x100009e21 <__cstring+0x28d>
100009e01: 62 75 66 66 65              	<unknown>
100009e06: 72 21                       	jb	0x100009e29 <__cstring+0x295>
100009e08: 0a 00                       	or	al, byte ptr [rax]
100009e0a: 46 61                       	<unknown>
100009e0c: 69 6c 65 64 20 74 6f 20     	imul	ebp, dword ptr [rbp + 2*riz + 100], 544175136
100009e14: 65 78 74                    	js	0x100009e8b <__cstring+0x2f7>
100009e17: 72 61                       	jb	0x100009e7a <__cstring+0x2e6>
100009e19: 63 74 20 25                 	movsxd	esi, dword ptr [rax + riz + 37]
100009e1d: 73 3a                       	jae	0x100009e59 <__cstring+0x2c5>
100009e1f: 20 66 61                    	and	byte ptr [rsi + 97], ah
100009e22: 69 6c 65 64 20 74 6f 20     	imul	ebp, dword ptr [rbp + 2*riz + 100], 544175136
100009e2a: 61                          	<unknown>
100009e2b: 6c                          	insb	byte ptr es:[rdi], dx
100009e2c: 6c                          	insb	byte ptr es:[rdi], dx
100009e2d: 6f                          	outsd	dx, dword ptr [rsi]
100009e2e: 63 61 74                    	movsxd	esp, dword ptr [rcx + 116]
100009e31: 65 20 74 65 6d              	and	byte ptr gs:[rbp + 2*riz + 109], dh
100009e36: 70 6f                       	jo	0x100009ea7 <__cstring+0x313>
100009e38: 72 61                       	jb	0x100009e9b <__cstring+0x307>
100009e3a: 72 79                       	jb	0x100009eb5 <__cstring+0x321>
100009e3c: 20 6f 75                    	and	byte ptr [rdi + 117], ch
100009e3f: 74 70                       	je	0x100009eb1 <__cstring+0x31d>
100009e41: 75 74                       	jne	0x100009eb7 <__cstring+0x323>
100009e43: 20 62 75                    	and	byte ptr [rdx + 117], ah
100009e46: 66 66 65 72 21              	jb	0x100009e6c <__cstring+0x2d8>
100009e4b: 0a 00                       	or	al, byte ptr [rax]
100009e4d: 46 61                       	<unknown>
100009e4f: 69 6c 65 64 20 74 6f 20     	imul	ebp, dword ptr [rbp + 2*riz + 100], 544175136
100009e57: 65 78 74                    	js	0x100009ece <__cstring+0x33a>
100009e5a: 72 61                       	jb	0x100009ebd <__cstring+0x329>
100009e5c: 63 74 20 25                 	movsxd	esi, dword ptr [rax + riz + 37]
100009e60: 73 3a                       	jae	0x100009e9c <__cstring+0x308>
100009e62: 20 64 65 63                 	and	byte ptr [rbp + 2*riz + 99], ah
100009e66: 6f                          	outsd	dx, dword ptr [rsi]
100009e67: 6d                          	insd	dword ptr es:[rdi], dx
100009e68: 70 72                       	jo	0x100009edc <__cstring+0x348>
100009e6a: 65 73 73                    	jae	0x100009ee0 <__cstring+0x34c>
100009e6d: 69 6f 6e 20 72 65 73        	imul	ebp, dword ptr [rdi + 110], 1936028192
100009e74: 75 6c                       	jne	0x100009ee2 <__cstring+0x34e>
100009e76: 74 65                       	je	0x100009edd <__cstring+0x349>
100009e78: 64 20 69 6e                 	and	byte ptr fs:[rcx + 110], ch
100009e7c: 20 72 65                    	and	byte ptr [rdx + 101], dh
100009e7f: 74 75                       	je	0x100009ef6 <__cstring+0x362>
100009e81: 72 6e                       	jb	0x100009ef1 <__cstring+0x35d>
100009e83: 20 63 6f                    	and	byte ptr [rbx + 111], ah
100009e86: 64 65 20 25 64 21 0a 00     	and	byte ptr gs:[rip + 663908], ah
100009e8e: 46 61                       	<unknown>
100009e90: 69 6c 65 64 20 74 6f 20     	imul	ebp, dword ptr [rbp + 2*riz + 100], 544175136
100009e98: 65 78 74                    	js	0x100009f0f <__cstring+0x37b>
100009e9b: 72 61                       	jb	0x100009efe <__cstring+0x36a>
100009e9d: 63 74 20 25                 	movsxd	esi, dword ptr [rax + riz + 37]
100009ea1: 73 3a                       	jae	0x100009edd <__cstring+0x349>
100009ea3: 20 66 61                    	and	byte ptr [rsi + 97], ah
100009ea6: 69 6c 65 64 20 74 6f 20     	imul	ebp, dword ptr [rbp + 2*riz + 100], 544175136
100009eae: 72 65                       	jb	0x100009f15 <__cstring+0x381>
100009eb0: 61                          	<unknown>
100009eb1: 64 20 64 61 74              	and	byte ptr fs:[rcx + 2*riz + 116], ah
100009eb6: 61                          	<unknown>
100009eb7: 20 63 68                    	and	byte ptr [rbx + 104], ah
100009eba: 75 6e                       	jne	0x100009f2a <__cstring+0x396>
100009ebc: 6b 21 0a                    	imul	esp, dword ptr [rcx], 10
100009ebf: 00 46 61                    	add	byte ptr [rsi + 97], al
100009ec2: 69 6c 65 64 20 74 6f 20     	imul	ebp, dword ptr [rbp + 2*riz + 100], 544175136
100009eca: 65 78 74                    	js	0x100009f41 <__cstring+0x3ad>
100009ecd: 72 61                       	jb	0x100009f30 <__cstring+0x39c>
100009ecf: 63 74 20 25                 	movsxd	esi, dword ptr [rax + riz + 37]
100009ed3: 73 3a                       	jae	0x100009f0f <__cstring+0x37b>
100009ed5: 20 66 61                    	and	byte ptr [rsi + 97], ah
100009ed8: 69 6c 65 64 20 74 6f 20     	imul	ebp, dword ptr [rbp + 2*riz + 100], 544175136
100009ee0: 61                          	<unknown>
100009ee1: 6c                          	insb	byte ptr es:[rdi], dx
100009ee2: 6c                          	insb	byte ptr es:[rdi], dx
100009ee3: 6f                          	outsd	dx, dword ptr [rsi]
100009ee4: 63 61 74                    	movsxd	esp, dword ptr [rcx + 116]
100009ee7: 65 20 74 65 6d              	and	byte ptr gs:[rbp + 2*riz + 109], dh
100009eec: 70 6f                       	jo	0x100009f5d <__cstring+0x3c9>
100009eee: 72 61                       	jb	0x100009f51 <__cstring+0x3bd>
100009ef0: 72 79                       	jb	0x100009f6b <__cstring+0x3d7>
100009ef2: 20 62 75                    	and	byte ptr [rdx + 117], ah
100009ef5: 66 66 65 72 21              	jb	0x100009f1b <__cstring+0x387>
100009efa: 0a 00                       	or	al, byte ptr [rax]
100009efc: 66 77 72                    	ja	0x100009f71 <__cstring+0x3dd>
100009eff: 69 74 65 00 46 61 69 6c     	imul	esi, dword ptr [rbp + 2*riz], 1818845510
100009f07: 65 64 20 74 6f 20           	and	byte ptr fs:[rdi + 2*rbp + 32], dh
100009f0d: 65 78 74                    	js	0x100009f84 <__cstring+0x3f0>
100009f10: 72 61                       	jb	0x100009f73 <__cstring+0x3df>
100009f12: 63 74 20 25                 	movsxd	esi, dword ptr [rax + riz + 37]
100009f16: 73 3a                       	jae	0x100009f52 <__cstring+0x3be>
100009f18: 20 66 61                    	and	byte ptr [rsi + 97], ah
100009f1b: 69 6c 65 64 20 74 6f 20     	imul	ebp, dword ptr [rbp + 2*riz + 100], 544175136
100009f23: 77 72                       	ja	0x100009f97 <__cstring+0x403>
100009f25: 69 74 65 20 64 61 74 61     	imul	esi, dword ptr [rbp + 2*riz + 32], 1635017060
100009f2d: 20 63 68                    	and	byte ptr [rbx + 104], ah
100009f30: 75 6e                       	jne	0x100009fa0 <__cstring+0x40c>
100009f32: 6b 21 0a                    	imul	esp, dword ptr [rcx], 10
100009f35: 00 5b 25                    	add	byte ptr [rbx + 37], bl
100009f38: 64 5d                       	pop	rbp
100009f3a: 20 00                       	and	byte ptr [rax], al
100009f3c: 25 73 25 63 25              	and	eax, 627254643
100009f41: 73 00                       	jae	0x100009f43 <__cstring+0x3af>
100009f43: 45 78 74                    	js	0x100009fba <__cstring+0x426>
100009f46: 72 61                       	jb	0x100009fa9 <__cstring+0x415>
100009f48: 63 74 69 6f                 	movsxd	esi, dword ptr [rcx + 2*rbp + 111]
100009f4c: 6e                          	outsb	dx, byte ptr [rsi]
100009f4d: 20 70 61                    	and	byte ptr [rax + 97], dh
100009f50: 74 68                       	je	0x100009fba <__cstring+0x426>
100009f52: 20 6c 65 6e                 	and	byte ptr [rbp + 2*riz + 110], ch
100009f56: 67 74 68                    	addr32		je	0x100009fc1 <__cstring+0x42d>
100009f59: 20 65 78                    	and	byte ptr [rbp + 120], ah
100009f5c: 63 65 65                    	movsxd	esp, dword ptr [rbp + 101]
100009f5f: 64 73 20                    	jae	0x100009f82 <__cstring+0x3ee>
100009f62: 6d                          	insd	dword ptr es:[rdi], dx
100009f63: 61                          	<unknown>
100009f64: 78 69                       	js	0x100009fcf <__cstring+0x43b>
100009f66: 6d                          	insd	dword ptr es:[rdi], dx
100009f67: 75 6d                       	jne	0x100009fd6 <__cstring+0x442>
100009f69: 20 70 61                    	and	byte ptr [rax + 97], dh
100009f6c: 74 68                       	je	0x100009fd6 <__cstring+0x442>
100009f6e: 20 6c 65 6e                 	and	byte ptr [rbp + 2*riz + 110], ch
100009f72: 67 74 68                    	addr32		je	0x100009fdd <__cstring+0x449>
100009f75: 21 0a                       	and	dword ptr [rdx], ecx
100009f77: 00 46 69                    	add	byte ptr [rsi + 105], al
100009f7a: 6c                          	insb	byte ptr es:[rdi], dx
100009f7b: 65 20 61 6c                 	and	byte ptr gs:[rcx + 108], ah
100009f7f: 72 65                       	jb	0x100009fe6 <__cstring+0x452>
100009f81: 61                          	<unknown>
100009f82: 64 79 20                    	jns	0x100009fa5 <__cstring+0x411>
100009f85: 65 78 69                    	js	0x100009ff1 <__cstring+0x45d>
100009f88: 73 74                       	jae	0x100009ffe <__cstring+0x46a>
100009f8a: 73 20                       	jae	0x100009fac <__cstring+0x418>
100009f8c: 62 75 74 20 73              	<unknown>
100009f91: 68 6f 75 6c 64              	push	1684829551
100009f96: 20 6e 6f                    	and	byte ptr [rsi + 111], ch
100009f99: 74 3a                       	je	0x100009fd5 <__cstring+0x441>
100009f9b: 20 25 73 0a 00 57           	and	byte ptr [rip + 1459620467], ah ## 0x15700aa14 <dyld_stub_binder+0x15700aa14>
100009fa1: 41 52                       	push	r10
100009fa3: 4e 49                       	<unknown>
100009fa5: 4e 47                       	<unknown>
100009fa7: 3a 20                       	cmp	ah, byte ptr [rax]
100009fa9: 66 69 6c 65 20 61 6c        	imul	bp, word ptr [rbp + 2*riz + 32], 27745
100009fb0: 72 65                       	jb	0x10000a017 <__cstring+0x483>
100009fb2: 61                          	<unknown>
100009fb3: 64 79 20                    	jns	0x100009fd6 <__cstring+0x442>
100009fb6: 65 78 69                    	js	0x10000a022 <__cstring+0x48e>
100009fb9: 73 74                       	jae	0x10000a02f <__cstring+0x49b>
100009fbb: 73 20                       	jae	0x100009fdd <__cstring+0x449>
100009fbd: 62 75 74 20 73              	<unknown>
100009fc2: 68 6f 75 6c 64              	push	1684829551
100009fc7: 20 6e 6f                    	and	byte ptr [rsi + 111], ch
100009fca: 74 3a                       	je	0x10000a006 <__cstring+0x472>
100009fcc: 20 25 73 0a 00 46           	and	byte ptr [rip + 1174407795], ah ## 0x14600aa45 <dyld_stub_binder+0x14600aa45>
100009fd2: 61                          	<unknown>
100009fd3: 69 6c 65 64 20 74 6f 20     	imul	ebp, dword ptr [rbp + 2*riz + 100], 544175136
100009fdb: 63 72 65                    	movsxd	esi, dword ptr [rdx + 101]
100009fde: 61                          	<unknown>
100009fdf: 74 65                       	je	0x10000a046 <__cstring+0x4b2>
100009fe1: 20 70 61                    	and	byte ptr [rax + 97], dh
100009fe4: 72 65                       	jb	0x10000a04b <__cstring+0x4b7>
100009fe6: 6e                          	outsb	dx, byte ptr [rsi]
100009fe7: 74 20                       	je	0x10000a009 <__cstring+0x475>
100009fe9: 64 69 72 65 63 74 6f 72     	imul	esi, dword ptr fs:[rdx + 101], 1919906915
100009ff1: 79 20                       	jns	0x10000a013 <__cstring+0x47f>
100009ff3: 73 74                       	jae	0x10000a069 <__cstring+0x4d5>
100009ff5: 72 75                       	jb	0x10000a06c <__cstring+0x4d8>
100009ff7: 63 74 75 72                 	movsxd	esi, dword ptr [rbp + 2*rsi + 114]
100009ffb: 65 2e 0a 00                 	or	al, byte ptr cs:[rax]
100009fff: 46 61                       	<unknown>
10000a001: 69 6c 65 64 20 74 6f 20     	imul	ebp, dword ptr [rbp + 2*riz + 100], 544175136
10000a009: 65 78 74                    	js	0x10000a080 <__cstring+0x4ec>
10000a00c: 72 61                       	jb	0x10000a06f <__cstring+0x4db>
10000a00e: 63 74 20 65                 	movsxd	esi, dword ptr [rax + riz + 101]
10000a012: 6e                          	outsb	dx, byte ptr [rsi]
10000a013: 74 72                       	je	0x10000a087 <__cstring+0x4f3>
10000a015: 79 3a                       	jns	0x10000a051 <__cstring+0x4bd>
10000a017: 20 25 73 2e 0a 00           	and	byte ptr [rip + 667251], ah ## 0x1000ace90 <dyld_stub_binder+0x1000ace90>
10000a01d: 5f                          	pop	rdi
10000a01e: 5f                          	pop	rdi
10000a01f: 6d                          	insd	dword ptr es:[rdi], dx
10000a020: 61                          	<unknown>
10000a021: 69 6e 5f 5f 00 43 6f        	imul	ebp, dword ptr [rsi + 95], 1866661983
10000a028: 75 6c                       	jne	0x10000a096 <__cstring+0x502>
10000a02a: 64 20 6e 6f                 	and	byte ptr fs:[rsi + 111], ch
10000a02e: 74 20                       	je	0x10000a050 <__cstring+0x4bc>
10000a030: 67 65 74 20                 	addr32		je	0x10000a054 <__cstring+0x4c0>
10000a034: 5f                          	pop	rdi
10000a035: 5f                          	pop	rdi
10000a036: 6d                          	insd	dword ptr es:[rdi], dx
10000a037: 61                          	<unknown>
10000a038: 69 6e 5f 5f 20 6d 6f        	imul	ebp, dword ptr [rsi + 95], 1869422687
10000a03f: 64 75 6c                    	jne	0x10000a0ae <__cstring+0x51a>
10000a042: 65 2e 0a 00                 	or	al, byte ptr cs:[rax]
10000a046: 43 6f                       	outsd	dx, dword ptr [rsi]
10000a048: 75 6c                       	jne	0x10000a0b6 <__cstring+0x522>
10000a04a: 64 20 6e 6f                 	and	byte ptr fs:[rsi + 111], ch
10000a04e: 74 20                       	je	0x10000a070 <__cstring+0x4dc>
10000a050: 67 65 74 20                 	addr32		je	0x10000a074 <__cstring+0x4e0>
10000a054: 5f                          	pop	rdi
10000a055: 5f                          	pop	rdi
10000a056: 6d                          	insd	dword ptr es:[rdi], dx
10000a057: 61                          	<unknown>
10000a058: 69 6e 5f 5f 20 6d 6f        	imul	ebp, dword ptr [rsi + 95], 1869422687
10000a05f: 64 75 6c                    	jne	0x10000a0ce <__cstring+0x53a>
10000a062: 65 27                       	<unknown>
10000a064: 73 20                       	jae	0x10000a086 <__cstring+0x4f2>
10000a066: 64 69 63 74 2e 0a 00 46     	imul	esp, dword ptr fs:[rbx + 116], 1174407726
10000a06e: 61                          	<unknown>
10000a06f: 69 6c 65 64 20 74 6f 20     	imul	ebp, dword ptr [rbp + 2*riz + 100], 544175136
10000a077: 65 78 74                    	js	0x10000a0ee <__cstring+0x55a>
10000a07a: 72 61                       	jb	0x10000a0dd <__cstring+0x549>
10000a07c: 63 74 20 73                 	movsxd	esi, dword ptr [rax + riz + 115]
10000a080: 63 72 69                    	movsxd	esi, dword ptr [rdx + 105]
10000a083: 70 74                       	jo	0x10000a0f9 <__cstring+0x565>
10000a085: 20 66 72                    	and	byte ptr [rsi + 114], ah
10000a088: 6f                          	outsd	dx, dword ptr [rsi]
10000a089: 6d                          	insd	dword ptr es:[rdi], dx
10000a08a: 20 61 72                    	and	byte ptr [rcx + 114], ah
10000a08d: 63 68 69                    	movsxd	ebp, dword ptr [rax + 105]
10000a090: 76 65                       	jbe	0x10000a0f7 <__cstring+0x563>
10000a092: 21 0a                       	and	dword ptr [rdx], ecx
10000a094: 00 25 73 25 63 25           	add	byte ptr [rip + 627254643], ah ## 0x12563c60d <dyld_stub_binder+0x12563c60d>
10000a09a: 73 2e                       	jae	0x10000a0ca <__cstring+0x536>
10000a09c: 70 79                       	jo	0x10000a117 <__cstring+0x583>
10000a09e: 00 41 62                    	add	byte ptr [rcx + 98], al
10000a0a1: 73 6f                       	jae	0x10000a112 <__cstring+0x57e>
10000a0a3: 6c                          	insb	byte ptr es:[rdi], dx
10000a0a4: 75 74                       	jne	0x10000a11a <__cstring+0x586>
10000a0a6: 65 20 70 61                 	and	byte ptr gs:[rax + 97], dh
10000a0aa: 74 68                       	je	0x10000a114 <__cstring+0x580>
10000a0ac: 20 74 6f 20                 	and	byte ptr [rdi + 2*rbp + 32], dh
10000a0b0: 73 63                       	jae	0x10000a115 <__cstring+0x581>
10000a0b2: 72 69                       	jb	0x10000a11d <__cstring+0x589>
10000a0b4: 70 74                       	jo	0x10000a12a <__cstring+0x596>
10000a0b6: 20 65 78                    	and	byte ptr [rbp + 120], ah
10000a0b9: 63 65 65                    	movsxd	esp, dword ptr [rbp + 101]
10000a0bc: 64 73 20                    	jae	0x10000a0df <__cstring+0x54b>
10000a0bf: 50                          	push	rax
10000a0c0: 59                          	pop	rcx
10000a0c1: 49 5f                       	pop	r15
10000a0c3: 50                          	push	rax
10000a0c4: 41 54                       	push	r12
10000a0c6: 48 5f                       	pop	rdi
10000a0c8: 4d 41                       	<unknown>
10000a0ca: 58                          	pop	rax
10000a0cb: 0a 00                       	or	al, byte ptr [rax]
10000a0cd: 5f                          	pop	rdi
10000a0ce: 5f                          	pop	rdi
10000a0cf: 66 69 6c 65 5f 5f 00        	imul	bp, word ptr [rbp + 2*riz + 95], 95
10000a0d6: 46 61                       	<unknown>
10000a0d8: 69 6c 65 64 20 74 6f 20     	imul	ebp, dword ptr [rbp + 2*riz + 100], 544175136
10000a0e0: 75 6e                       	jne	0x10000a150 <__cstring+0x5bc>
10000a0e2: 6d                          	insd	dword ptr es:[rdi], dx
10000a0e3: 61                          	<unknown>
10000a0e4: 72 73                       	jb	0x10000a159 <__cstring+0x5c5>
10000a0e6: 68 61 6c 20 63              	push	1663069281
10000a0eb: 6f                          	outsd	dx, dword ptr [rsi]
10000a0ec: 64 65 20 6f 62              	and	byte ptr gs:[rdi + 98], ch
10000a0f1: 6a 65                       	push	101
10000a0f3: 63 74 20 66                 	movsxd	esi, dword ptr [rax + riz + 102]
10000a0f7: 6f                          	outsd	dx, dword ptr [rsi]
10000a0f8: 72 20                       	jb	0x10000a11a <__cstring+0x586>
10000a0fa: 25 73 0a 00 5f              	and	eax, 1593838195
10000a0ff: 70 79                       	jo	0x10000a17a <__cstring+0x5e6>
10000a101: 69 5f 6d 61 69 6e 5f        	imul	ebx, dword ptr [rdi + 109], 1601071457
10000a108: 63 6f 00                    	movsxd	ebp, dword ptr [rdi]
10000a10b: 46 61                       	<unknown>
10000a10d: 69 6c 65 64 20 74 6f 20     	imul	ebp, dword ptr [rbp + 2*riz + 100], 544175136
10000a115: 65 78 65                    	js	0x10000a17d <__cstring+0x5e9>
10000a118: 63 75 74                    	movsxd	esi, dword ptr [rbp + 116]
10000a11b: 65 20 73 63                 	and	byte ptr gs:[rbx + 99], dh
10000a11f: 72 69                       	jb	0x10000a18a <__cstring+0x5f6>
10000a121: 70 74                       	jo	0x10000a197 <__cstring+0x603>
10000a123: 20 27                       	and	byte ptr [rdi], ah
10000a125: 25 73 27 20 64              	and	eax, 1679828851
10000a12a: 75 65                       	jne	0x10000a191 <__cstring+0x5fd>
10000a12c: 20 74 6f 20                 	and	byte ptr [rdi + 2*rbp + 32], dh
10000a130: 75 6e                       	jne	0x10000a1a0 <__cstring+0x60c>
10000a132: 68 61 6e 64 6c              	push	1818521185
10000a137: 65 64 20 65 78              	and	byte ptr fs:[rbp + 120], ah
10000a13c: 63 65 70                    	movsxd	esp, dword ptr [rbp + 112]
10000a13f: 74 69                       	je	0x10000a1aa <__cstring+0x616>
10000a141: 6f                          	outsd	dx, dword ptr [rsi]
10000a142: 6e                          	outsb	dx, byte ptr [rsi]
10000a143: 21 0a                       	and	dword ptr [rdx], ecx
10000a145: 00 50 59                    	add	byte ptr [rax + 89], dl
10000a148: 49 4e                       	<unknown>
10000a14a: 53                          	push	rbx
10000a14b: 54                          	push	rsp
10000a14c: 41 4c                       	<unknown>
10000a14e: 4c 45                       	<unknown>
10000a150: 52                          	push	rdx
10000a151: 5f                          	pop	rdi
10000a152: 53                          	push	rbx
10000a153: 54                          	push	rsp
10000a154: 52                          	push	rdx
10000a155: 49 43                       	<unknown>
10000a157: 54                          	push	rsp
10000a158: 5f                          	pop	rdi
10000a159: 55                          	push	rbp
10000a15a: 4e 50                       	push	rax
10000a15c: 41 43                       	<unknown>
10000a15e: 4b 5f                       	pop	r15
10000a160: 4d 4f                       	<unknown>
10000a162: 44 45                       	<unknown>
10000a164: 00 30                       	add	byte ptr [rax], dh
10000a166: 00 5f 4d                    	add	byte ptr [rdi + 77], bl
10000a169: 45 49                       	<unknown>
10000a16b: 50                          	push	rax
10000a16c: 41 53                       	push	r11
10000a16e: 53                          	push	rbx
10000a16f: 32 00                       	xor	al, byte ptr [rax]
10000a171: 50                          	push	rax
10000a172: 61                          	<unknown>
10000a173: 74 68                       	je	0x10000a1dd <__cstring+0x649>
10000a175: 20 65 78                    	and	byte ptr [rbp + 120], ah
10000a178: 63 65 65                    	movsxd	esp, dword ptr [rbp + 101]
10000a17b: 64 73 20                    	jae	0x10000a19e <__cstring+0x60a>
10000a17e: 50                          	push	rax
10000a17f: 59                          	pop	rcx
10000a180: 49 5f                       	pop	r15
10000a182: 50                          	push	rax
10000a183: 41 54                       	push	r12
10000a185: 48 5f                       	pop	rdi
10000a187: 4d 41                       	<unknown>
10000a189: 58                          	pop	rax
10000a18a: 20 6c 69 6d                 	and	byte ptr [rcx + 2*rbp + 109], ch
10000a18e: 69 74 2e 0a 00 43 6f 75     	imul	esi, dword ptr [rsi + rbp + 10], 1970225920
10000a196: 6c                          	insb	byte ptr es:[rdi], dx
10000a197: 64 20 6e 6f                 	and	byte ptr fs:[rsi + 111], ch
10000a19b: 74 20                       	je	0x10000a1bd <__cstring+0x629>
10000a19d: 63 72 65                    	movsxd	esi, dword ptr [rdx + 101]
10000a1a0: 61                          	<unknown>
10000a1a1: 74 65                       	je	0x10000a208 <__cstring+0x674>
10000a1a3: 20 74 65 6d                 	and	byte ptr [rbp + 2*riz + 109], dh
10000a1a7: 70 6f                       	jo	0x10000a218 <__cstring+0x684>
10000a1a9: 72 61                       	jb	0x10000a20c <__cstring+0x678>
10000a1ab: 72 79                       	jb	0x10000a226 <__cstring+0x692>
10000a1ad: 20 64 69 72                 	and	byte ptr [rcx + 2*rbp + 114], ah
10000a1b1: 65 63 74 6f 72              	movsxd	esi, dword ptr gs:[rdi + 2*rbp + 114]
10000a1b6: 79 21                       	jns	0x10000a1d9 <__cstring+0x645>
10000a1b8: 0a 00                       	or	al, byte ptr [rax]
10000a1ba: 2e 61                       	<unknown>
10000a1bc: 70 70                       	jo	0x10000a22e <__cstring+0x69a>
10000a1be: 2f                          	<unknown>
10000a1bf: 43 6f                       	outsd	dx, dword ptr [rsi]
10000a1c1: 6e                          	outsb	dx, byte ptr [rsi]
10000a1c2: 74 65                       	je	0x10000a229 <__cstring+0x695>
10000a1c4: 6e                          	outsb	dx, byte ptr [rsi]
10000a1c5: 74 73                       	je	0x10000a23a <__cstring+0x6a6>
10000a1c7: 2f                          	<unknown>
10000a1c8: 4d 61                       	<unknown>
10000a1ca: 63 4f 53                    	movsxd	ecx, dword ptr [rdi + 83]
10000a1cd: 00 46 72                    	add	byte ptr [rsi + 114], al
10000a1d0: 61                          	<unknown>
10000a1d1: 6d                          	insd	dword ptr es:[rdi], dx
10000a1d2: 65 77 6f                    	ja	0x10000a244 <__cstring+0x6b0>
10000a1d5: 72 6b                       	jb	0x10000a242 <__cstring+0x6ae>
10000a1d7: 73 00                       	jae	0x10000a1d9 <__cstring+0x645>
10000a1d9: 46 61                       	<unknown>
10000a1db: 69 6c 65 64 20 74 6f 20     	imul	ebp, dword ptr [rbp + 2*riz + 100], 544175136
10000a1e3: 75 6e                       	jne	0x10000a253 <__cstring+0x6bf>
10000a1e5: 70 61                       	jo	0x10000a248 <__cstring+0x6b4>
10000a1e7: 63 6b 20                    	movsxd	ebp, dword ptr [rbx + 32]
10000a1ea: 73 70                       	jae	0x10000a25c <__cstring+0x6c8>
10000a1ec: 6c                          	insb	byte ptr es:[rdi], dx
10000a1ed: 61                          	<unknown>
10000a1ee: 73 68                       	jae	0x10000a258 <__cstring+0x6c4>
10000a1f0: 20 73 63                    	and	byte ptr [rbx + 99], dh
10000a1f3: 72 65                       	jb	0x10000a25a <__cstring+0x6c6>
10000a1f5: 65 6e                       	outsb	dx, byte ptr gs:[rsi]
10000a1f7: 20 64 65 70                 	and	byte ptr [rbp + 2*riz + 112], ah
10000a1fb: 65 6e                       	outsb	dx, byte ptr gs:[rsi]
10000a1fd: 64 65 6e                    	outsb	dx, byte ptr gs:[rsi]
10000a200: 63 69 65                    	movsxd	ebp, dword ptr [rcx + 101]
10000a203: 73 20                       	jae	0x10000a225 <__cstring+0x691>
10000a205: 66 72 6f                    	jb	0x10000a277 <__cstring+0x6e3>
10000a208: 6d                          	insd	dword ptr es:[rdi], dx
10000a209: 20 50 4b                    	and	byte ptr [rax + 75], dl
10000a20c: 47 20 61 72                 	and	byte ptr [r9 + 114], r12b
10000a210: 63 68 69                    	movsxd	ebp, dword ptr [rax + 105]
10000a213: 76 65                       	jbe	0x10000a27a <__cstring+0x6e6>
10000a215: 21 0a                       	and	dword ptr [rdx], ecx
10000a217: 00 46 61                    	add	byte ptr [rsi + 97], al
10000a21a: 69 6c 65 64 20 74 6f 20     	imul	ebp, dword ptr [rbp + 2*riz + 100], 544175136
10000a222: 6c                          	insb	byte ptr es:[rdi], dx
10000a223: 6f                          	outsd	dx, dword ptr [rsi]
10000a224: 61                          	<unknown>
10000a225: 64 20 54 63 6c              	and	byte ptr fs:[rbx + 2*riz + 108], dl
10000a22a: 2f                          	<unknown>
10000a22b: 54                          	push	rsp
10000a22c: 6b 20 73                    	imul	esp, dword ptr [rax], 115
10000a22f: 68 61 72 65 64              	push	1684370017
10000a234: 20 6c 69 62                 	and	byte ptr [rcx + 2*rbp + 98], ch
10000a238: 72 61                       	jb	0x10000a29b <__cstring+0x707>
10000a23a: 72 69                       	jb	0x10000a2a5 <__cstring+0x711>
10000a23c: 65 73 20                    	jae	0x10000a25f <__cstring+0x6cb>
10000a23f: 66 6f                       	outsw	dx, word ptr [rsi]
10000a241: 72 20                       	jb	0x10000a263 <__cstring+0x6cf>
10000a243: 73 70                       	jae	0x10000a2b5 <__cstring+0x721>
10000a245: 6c                          	insb	byte ptr es:[rdi], dx
10000a246: 61                          	<unknown>
10000a247: 73 68                       	jae	0x10000a2b1 <__cstring+0x71d>
10000a249: 20 73 63                    	and	byte ptr [rbx + 99], dh
10000a24c: 72 65                       	jb	0x10000a2b3 <__cstring+0x71f>
10000a24e: 65 6e                       	outsb	dx, byte ptr gs:[rsi]
10000a250: 21 0a                       	and	dword ptr [rdx], ecx
10000a252: 00 46 61                    	add	byte ptr [rsi + 97], al
10000a255: 69 6c 65 64 20 74 6f 20     	imul	ebp, dword ptr [rbp + 2*riz + 100], 544175136
10000a25d: 73 74                       	jae	0x10000a2d3 <__cstring+0x73f>
10000a25f: 61                          	<unknown>
10000a260: 72 74                       	jb	0x10000a2d6 <__cstring+0x742>
10000a262: 20 73 70                    	and	byte ptr [rbx + 112], dh
10000a265: 6c                          	insb	byte ptr es:[rdi], dx
10000a266: 61                          	<unknown>
10000a267: 73 68                       	jae	0x10000a2d1 <__cstring+0x73d>
10000a269: 20 73 63                    	and	byte ptr [rbx + 99], dh
10000a26c: 72 65                       	jb	0x10000a2d3 <__cstring+0x73f>
10000a26e: 65 6e                       	outsb	dx, byte ptr gs:[rsi]
10000a270: 21 0a                       	and	dword ptr [rdx], ecx
10000a272: 00 70 79                    	add	byte ptr [rax + 121], dh
10000a275: 69 2d 72 75 6e 74 69 6d 65 2d       	imul	ebp, dword ptr [rip + 1953396082], 761621865 ## 0x1746f17f1 <dyld_stub_binder+0x1746f17f1>
10000a27f: 74 6d                       	je	0x10000a2ee <__cstring+0x75a>
10000a281: 70 64                       	jo	0x10000a2e7 <__cstring+0x753>
10000a283: 69 72 00 70 79 69 2d        	imul	esi, dword ptr [rdx], 761887088
10000a28a: 63 6f 6e                    	movsxd	ebp, dword ptr [rdi + 110]
10000a28d: 74 65                       	je	0x10000a2f4 <__cstring+0x760>
10000a28f: 6e                          	outsb	dx, byte ptr [rsi]
10000a290: 74 73                       	je	0x10000a305 <__cstring+0x771>
10000a292: 2d 64 69 72 65              	sub	eax, 1701996900
10000a297: 63 74 6f 72                 	movsxd	esi, dword ptr [rdi + 2*rbp + 114]
10000a29b: 79 00                       	jns	0x10000a29d <__cstring+0x709>
10000a29d: 70 79                       	jo	0x10000a318 <__cstring+0x784>
10000a29f: 69 2d 62 6f 6f 74 6c 6f 61 64       	imul	ebp, dword ptr [rip + 1953460066], 1684107116 ## 0x17470120b <dyld_stub_binder+0x17470120b>
10000a2a9: 65 72 2d                    	jb	0x10000a2d9 <__cstring+0x745>
10000a2ac: 69 67 6e 6f 72 65 2d        	imul	esp, dword ptr [rdi + 110], 761623151
10000a2b3: 73 69                       	jae	0x10000a31e <__cstring+0x78a>
10000a2b5: 67 6e                       	outsb	dx, byte ptr [esi]
10000a2b7: 61                          	<unknown>
10000a2b8: 6c                          	insb	byte ptr es:[rdi], dx
10000a2b9: 73 00                       	jae	0x10000a2bb <__cstring+0x727>
10000a2bb: 45 52                       	push	r10
10000a2bd: 52                          	push	rdx
10000a2be: 4f 52                       	push	r10
10000a2c0: 3a 20                       	cmp	ah, byte ptr [rax]
10000a2c2: 66 61                       	<unknown>
10000a2c4: 69 6c 65 64 20 74 6f 20     	imul	ebp, dword ptr [rbp + 2*riz + 100], 544175136
10000a2cc: 72 65                       	jb	0x10000a333 <__cstring+0x79f>
10000a2ce: 6d                          	insd	dword ptr es:[rdi], dx
10000a2cf: 6f                          	outsd	dx, dword ptr [rsi]
10000a2d0: 76 65                       	jbe	0x10000a337 <__cstring+0x7a3>
10000a2d2: 20 74 65 6d                 	and	byte ptr [rbp + 2*riz + 109], dh
10000a2d6: 70 6f                       	jo	0x10000a347 <__cstring+0x7b3>
10000a2d8: 72 61                       	jb	0x10000a33b <__cstring+0x7a7>
10000a2da: 72 79                       	jb	0x10000a355 <__cstring+0x7c1>
10000a2dc: 20 64 69 72                 	and	byte ptr [rcx + 2*rbp + 114], ah
10000a2e0: 65 63 74 6f 72              	movsxd	esi, dword ptr gs:[rdi + 2*rbp + 114]
10000a2e5: 79 3a                       	jns	0x10000a321 <__cstring+0x78d>
10000a2e7: 20 25 73 0a 00 57           	and	byte ptr [rip + 1459620467], ah ## 0x15700ad60 <dyld_stub_binder+0x15700ad60>
10000a2ed: 41 52                       	push	r10
10000a2ef: 4e 49                       	<unknown>
10000a2f1: 4e 47                       	<unknown>
10000a2f3: 3a 20                       	cmp	ah, byte ptr [rax]
10000a2f5: 66 61                       	<unknown>
10000a2f7: 69 6c 65 64 20 74 6f 20     	imul	ebp, dword ptr [rbp + 2*riz + 100], 544175136
10000a2ff: 72 65                       	jb	0x10000a366 <__cstring+0x7d2>
10000a301: 6d                          	insd	dword ptr es:[rdi], dx
10000a302: 6f                          	outsd	dx, dword ptr [rsi]
10000a303: 76 65                       	jbe	0x10000a36a <__cstring+0x7d6>
10000a305: 20 74 65 6d                 	and	byte ptr [rbp + 2*riz + 109], dh
10000a309: 70 6f                       	jo	0x10000a37a <__cstring+0x7e6>
10000a30b: 72 61                       	jb	0x10000a36e <__cstring+0x7da>
10000a30d: 72 79                       	jb	0x10000a388 <__cstring+0x7f4>
10000a30f: 20 64 69 72                 	and	byte ptr [rcx + 2*rbp + 114], ah
10000a313: 65 63 74 6f 72              	movsxd	esi, dword ptr gs:[rdi + 2*rbp + 114]
10000a318: 79 3a                       	jns	0x10000a354 <__cstring+0x7c0>
10000a31a: 20 25 73 0a 00 46           	and	byte ptr [rip + 1174407795], ah ## 0x14600ad93 <dyld_stub_binder+0x14600ad93>
10000a320: 61                          	<unknown>
10000a321: 69 6c 65 64 20 74 6f 20     	imul	ebp, dword ptr [rbp + 2*riz + 100], 544175136
10000a329: 6f                          	outsd	dx, dword ptr [rsi]
10000a32a: 62                          	<unknown>
10000a32b: 74 61                       	je	0x10000a38e <__cstring+0x7fa>
10000a32d: 69 6e 20 65 78 65 63        	imul	ebp, dword ptr [rsi + 32], 1667594341
10000a334: 75 74                       	jne	0x10000a3aa <__cstring+0x816>
10000a336: 61                          	<unknown>
10000a337: 62                          	<unknown>
10000a338: 6c                          	insb	byte ptr es:[rdi], dx
10000a339: 65 20 70 61                 	and	byte ptr gs:[rax + 97], dh
10000a33d: 74 68                       	je	0x10000a3a7 <__cstring+0x813>
10000a33f: 20 76 69                    	and	byte ptr [rsi + 105], dh
10000a342: 61                          	<unknown>
10000a343: 20 5f 4e                    	and	byte ptr [rdi + 78], bl
10000a346: 53                          	push	rbx
10000a347: 47 65                       	gs
10000a349: 74 45                       	je	0x10000a390 <__cstring+0x7fc>
10000a34b: 78 65                       	js	0x10000a3b2 <__cstring+0x81e>
10000a34d: 63 75 74                    	movsxd	esi, dword ptr [rbp + 116]
10000a350: 61                          	<unknown>
10000a351: 62                          	<unknown>
10000a352: 6c                          	insb	byte ptr es:[rdi], dx
10000a353: 65 50                       	push	rax
10000a355: 61                          	<unknown>
10000a356: 74 68                       	je	0x10000a3c0 <__cstring+0x82c>
10000a358: 21 0a                       	and	dword ptr [rdx], ecx
10000a35a: 00 43 6f                    	add	byte ptr [rbx + 111], al
10000a35d: 75 6c                       	jne	0x10000a3cb <__cstring+0x837>
10000a35f: 64 20 6e 6f                 	and	byte ptr fs:[rsi + 111], ch
10000a363: 74 20                       	je	0x10000a385 <__cstring+0x7f1>
10000a365: 6c                          	insb	byte ptr es:[rdi], dx
10000a366: 6f                          	outsd	dx, dword ptr [rsi]
10000a367: 61                          	<unknown>
10000a368: 64 20 50 79                 	and	byte ptr fs:[rax + 121], dl
10000a36c: 49 6e                       	outsb	dx, byte ptr [rsi]
10000a36e: 73 74                       	jae	0x10000a3e4 <__cstring+0x850>
10000a370: 61                          	<unknown>
10000a371: 6c                          	insb	byte ptr es:[rdi], dx
10000a372: 6c                          	insb	byte ptr es:[rdi], dx
10000a373: 65 72 27                    	jb	0x10000a39d <__cstring+0x809>
10000a376: 73 20                       	jae	0x10000a398 <__cstring+0x804>
10000a378: 65 6d                       	insd	dword ptr es:[rdi], dx
10000a37a: 62 65 64 64 65              	<unknown>
10000a37f: 64 20 50 4b                 	and	byte ptr fs:[rax + 75], dl
10000a383: 47 20 61 72                 	and	byte ptr [r9 + 114], r12b
10000a387: 63 68 69                    	movsxd	ebp, dword ptr [rax + 105]
10000a38a: 76 65                       	jbe	0x10000a3f1 <__cstring+0x85d>
10000a38c: 20 66 72                    	and	byte ptr [rsi + 114], ah
10000a38f: 6f                          	outsd	dx, dword ptr [rsi]
10000a390: 6d                          	insd	dword ptr es:[rdi], dx
10000a391: 20 74 68 65                 	and	byte ptr [rax + 2*rbp + 101], dh
10000a395: 20 65 78                    	and	byte ptr [rbp + 120], ah
10000a398: 65 63 75 74                 	movsxd	esi, dword ptr gs:[rbp + 116]
10000a39c: 61                          	<unknown>
10000a39d: 62                          	<unknown>
10000a39e: 6c                          	insb	byte ptr es:[rdi], dx
10000a39f: 65 20 28                    	and	byte ptr gs:[rax], ch
10000a3a2: 25 73 29 0a 00              	and	eax, 665971
10000a3a7: 25 73 2e 70 6b              	and	eax, 1802514035
10000a3ac: 67 00 43 6f                 	add	byte ptr [ebx + 111], al
10000a3b0: 75 6c                       	jne	0x10000a41e <__cstring+0x88a>
10000a3b2: 64 20 6e 6f                 	and	byte ptr fs:[rsi + 111], ch
10000a3b6: 74 20                       	je	0x10000a3d8 <__cstring+0x844>
10000a3b8: 73 69                       	jae	0x10000a423 <__cstring+0x88f>
10000a3ba: 64 65 2d 6c 6f 61 64        	sub	eax, 1684107116
10000a3c1: 20 50 79                    	and	byte ptr [rax + 121], dl
10000a3c4: 49 6e                       	outsb	dx, byte ptr [rsi]
10000a3c6: 73 74                       	jae	0x10000a43c <__cstring+0x8a8>
10000a3c8: 61                          	<unknown>
10000a3c9: 6c                          	insb	byte ptr es:[rdi], dx
10000a3ca: 6c                          	insb	byte ptr es:[rdi], dx
10000a3cb: 65 72 27                    	jb	0x10000a3f5 <__cstring+0x861>
10000a3ce: 73 20                       	jae	0x10000a3f0 <__cstring+0x85c>
10000a3d0: 50                          	push	rax
10000a3d1: 4b 47                       	<unknown>
10000a3d3: 20 61 72                    	and	byte ptr [rcx + 114], ah
10000a3d6: 63 68 69                    	movsxd	ebp, dword ptr [rax + 105]
10000a3d9: 76 65                       	jbe	0x10000a440 <__cstring+0x8ac>
10000a3db: 20 66 72                    	and	byte ptr [rsi + 114], ah
10000a3de: 6f                          	outsd	dx, dword ptr [rsi]
10000a3df: 6d                          	insd	dword ptr es:[rdi], dx
10000a3e0: 20 65 78                    	and	byte ptr [rbp + 120], ah
10000a3e3: 74 65                       	je	0x10000a44a <__cstring+0x8b6>
10000a3e5: 72 6e                       	jb	0x10000a455 <__cstring+0x8c1>
10000a3e7: 61                          	<unknown>
10000a3e8: 6c                          	insb	byte ptr es:[rdi], dx
10000a3e9: 20 66 69                    	and	byte ptr [rsi + 105], ah
10000a3ec: 6c                          	insb	byte ptr es:[rdi], dx
10000a3ed: 65 20 28                    	and	byte ptr gs:[rax], ch
10000a3f0: 25 73 29 0a 00              	and	eax, 665971
10000a3f5: 25 73 25 63 25              	and	eax, 627254643
10000a3fa: 73 25                       	jae	0x10000a421 <__cstring+0x88d>
10000a3fc: 63 25 73 25 63 25           	movsxd	esp, dword ptr [rip + 627254643] ## 0x12563c975 <dyld_stub_binder+0x12563c975>
10000a402: 73 00                       	jae	0x10000a404 <__cstring+0x870>
10000a404: 25 73 25 63 25              	and	eax, 627254643
10000a409: 73 25                       	jae	0x10000a430 <__cstring+0x89c>
10000a40b: 63 25 73 00 46 61           	movsxd	esp, dword ptr [rip + 1631977587] ## 0x16146a484 <dyld_stub_binder+0x16146a484>
10000a411: 69 6c 65 64 20 74 6f 20     	imul	ebp, dword ptr [rbp + 2*riz + 100], 544175136
10000a419: 63 6f 70                    	movsxd	ebp, dword ptr [rdi + 112]
10000a41c: 79 20                       	jns	0x10000a43e <__cstring+0x8aa>
10000a41e: 66 69 6c 65 20 25 73        	imul	bp, word ptr [rbp + 2*riz + 32], 29477
10000a425: 20 66 72                    	and	byte ptr [rsi + 114], ah
10000a428: 6f                          	outsd	dx, dword ptr [rsi]
10000a429: 6d                          	insd	dword ptr es:[rdi], dx
10000a42a: 20 25 73 21 0a 00           	and	byte ptr [rip + 663923], ah ## 0x1000ac5a3 <dyld_stub_binder+0x1000ac5a3>
10000a430: 25 73 25 63 25              	and	eax, 627254643
10000a435: 73 2e                       	jae	0x10000a465 <__cstring+0x8d1>
10000a437: 70 6b                       	jo	0x10000a4a4 <__cstring+0x910>
10000a439: 67 00 25 73 25 63 25        	add	byte ptr [eip + 627254643], ah
10000a440: 73 2e                       	jae	0x10000a470 <__cstring+0x8dc>
10000a442: 65 78 65                    	js	0x10000a4aa <__cstring+0x916>
10000a445: 00 52 65                    	add	byte ptr [rdx + 101], dl
10000a448: 66 65 72 65                 	jb	0x10000a4b1 <__cstring+0x91d>
10000a44c: 6e                          	outsb	dx, byte ptr [rsi]
10000a44d: 63 65 64                    	movsxd	esp, dword ptr [rbp + 100]
10000a450: 20 64 65 70                 	and	byte ptr [rbp + 2*riz + 112], ah
10000a454: 65 6e                       	outsb	dx, byte ptr gs:[rsi]
10000a456: 64 65 6e                    	outsb	dx, byte ptr gs:[rsi]
10000a459: 63 79 20                    	movsxd	edi, dword ptr [rcx + 32]
10000a45c: 61                          	<unknown>
10000a45d: 72 63                       	jb	0x10000a4c2 <__cstring+0x92e>
10000a45f: 68 69 76 65 20              	push	543520361
10000a464: 25 73 20 6e 6f              	and	eax, 1869488243
10000a469: 74 20                       	je	0x10000a48b <__cstring+0x8f7>
10000a46b: 66 6f                       	outsw	dx, word ptr [rsi]
10000a46d: 75 6e                       	jne	0x10000a4dd <__cstring+0x949>
10000a46f: 64 2e 0a 00                 	or	al, byte ptr cs:[rax]
10000a473: 46 61                       	<unknown>
10000a475: 69 6c 65 64 20 74 6f 20     	imul	ebp, dword ptr [rbp + 2*riz + 100], 544175136
10000a47d: 6f                          	outsd	dx, dword ptr [rsi]
10000a47e: 70 65                       	jo	0x10000a4e5 <__cstring+0x951>
10000a480: 6e                          	outsb	dx, byte ptr [rsi]
10000a481: 20 72 65                    	and	byte ptr [rdx + 101], dh
10000a484: 66 65 72 65                 	jb	0x10000a4ed <__cstring+0x959>
10000a488: 6e                          	outsb	dx, byte ptr [rsi]
10000a489: 63 65 64                    	movsxd	esp, dword ptr [rbp + 100]
10000a48c: 20 64 65 70                 	and	byte ptr [rbp + 2*riz + 112], ah
10000a490: 65 6e                       	outsb	dx, byte ptr gs:[rsi]
10000a492: 64 65 6e                    	outsb	dx, byte ptr gs:[rsi]
10000a495: 63 79 20                    	movsxd	edi, dword ptr [rcx + 32]
10000a498: 61                          	<unknown>
10000a499: 72 63                       	jb	0x10000a4fe <__cstring+0x96a>
10000a49b: 68 69 76 65 20              	push	543520361
10000a4a0: 25 73 2e 0a 00              	and	eax, 667251
10000a4a5: 44 65                       	gs
10000a4a7: 70 65                       	jo	0x10000a50e <__cstring+0x97a>
10000a4a9: 6e                          	outsb	dx, byte ptr [rsi]
10000a4aa: 64 65 6e                    	outsb	dx, byte ptr gs:[rsi]
10000a4ad: 63 79 20                    	movsxd	edi, dword ptr [rcx + 32]
10000a4b0: 25 73 20 6e 6f              	and	eax, 1869488243
10000a4b5: 74 20                       	je	0x10000a4d7 <__cstring+0x943>
10000a4b7: 66 6f                       	outsw	dx, word ptr [rsi]
10000a4b9: 75 6e                       	jne	0x10000a529 <__cstring+0x995>
10000a4bb: 64 20 69 6e                 	and	byte ptr fs:[rcx + 110], ch
10000a4bf: 20 74 68 65                 	and	byte ptr [rax + 2*rbp + 101], dh
10000a4c3: 20 72 65                    	and	byte ptr [rdx + 101], dh
10000a4c6: 66 65 72 65                 	jb	0x10000a52f <__cstring+0x99b>
10000a4ca: 6e                          	outsb	dx, byte ptr [rsi]
10000a4cb: 63 65 64                    	movsxd	esp, dword ptr [rbp + 100]
10000a4ce: 20 64 65 70                 	and	byte ptr [rbp + 2*riz + 112], ah
10000a4d2: 65 6e                       	outsb	dx, byte ptr gs:[rsi]
10000a4d4: 64 65 6e                    	outsb	dx, byte ptr gs:[rsi]
10000a4d7: 63 79 20                    	movsxd	edi, dword ptr [rcx + 32]
10000a4da: 61                          	<unknown>
10000a4db: 72 63                       	jb	0x10000a540 <__cstring+0x9ac>
10000a4dd: 68 69 76 65 2e              	push	778401385
10000a4e2: 0a 00                       	or	al, byte ptr [rax]
10000a4e4: 46 61                       	<unknown>
10000a4e6: 69 6c 65 64 20 74 6f 20     	imul	ebp, dword ptr [rbp + 2*riz + 100], 544175136
10000a4ee: 65 78 74                    	js	0x10000a565 <__cstring+0x9d1>
10000a4f1: 72 61                       	jb	0x10000a554 <__cstring+0x9c0>
10000a4f3: 63 74 20 25                 	movsxd	esi, dword ptr [rax + riz + 37]
10000a4f7: 73 20                       	jae	0x10000a519 <__cstring+0x985>
10000a4f9: 66 72 6f                    	jb	0x10000a56b <__cstring+0x9d7>
10000a4fc: 6d                          	insd	dword ptr es:[rdi], dx
10000a4fd: 20 72 65                    	and	byte ptr [rdx + 101], dh
10000a500: 66 65 72 65                 	jb	0x10000a569 <__cstring+0x9d5>
10000a504: 6e                          	outsb	dx, byte ptr [rsi]
10000a505: 63 65 64                    	movsxd	esp, dword ptr [rbp + 100]
10000a508: 20 64 65 70                 	and	byte ptr [rbp + 2*riz + 112], ah
10000a50c: 65 6e                       	outsb	dx, byte ptr gs:[rsi]
10000a50e: 64 65 6e                    	outsb	dx, byte ptr gs:[rsi]
10000a511: 63 79 20                    	movsxd	edi, dword ptr [rcx + 32]
10000a514: 61                          	<unknown>
10000a515: 72 63                       	jb	0x10000a57a <__cstring+0x9e6>
10000a517: 68 69 76 65 20              	push	543520361
10000a51c: 25 73 2e 0a 00              	and	eax, 667251
10000a521: 4d 61                       	<unknown>
10000a523: 78 69                       	js	0x10000a58e <__cstring+0x9fa>
10000a525: 6d                          	insd	dword ptr es:[rdi], dx
10000a526: 75 6d                       	jne	0x10000a595 <__cstring+0xa01>
10000a528: 20 61 72                    	and	byte ptr [rcx + 114], ah
10000a52b: 63 68 69                    	movsxd	ebp, dword ptr [rax + 105]
10000a52e: 76 65                       	jbe	0x10000a595 <__cstring+0xa01>
10000a530: 20 70 6f                    	and	byte ptr [rax + 111], dh
10000a533: 6f                          	outsd	dx, dword ptr [rsi]
10000a534: 6c                          	insb	byte ptr es:[rdi], dx
10000a535: 20 73 69                    	and	byte ptr [rbx + 105], dh
10000a538: 7a 65                       	jp	0x10000a59f <__cstring+0xa0b>
10000a53a: 20 72 65                    	and	byte ptr [rdx + 101], dh
10000a53d: 61                          	<unknown>
10000a53e: 63 68 65                    	movsxd	ebp, dword ptr [rax + 101]
10000a541: 64 21 00                    	and	dword ptr fs:[rax], eax
10000a544: 46 61                       	<unknown>
10000a546: 69 6c 65 64 20 74 6f 20     	imul	ebp, dword ptr [rbp + 2*riz + 100], 544175136
10000a54e: 6f                          	outsd	dx, dword ptr [rsi]
10000a54f: 70 65                       	jo	0x10000a5b6 <__cstring+0xa22>
10000a551: 6e                          	outsb	dx, byte ptr [rsi]
10000a552: 20 61 72                    	and	byte ptr [rcx + 114], ah
10000a555: 63 68 69                    	movsxd	ebp, dword ptr [rax + 105]
10000a558: 76 65                       	jbe	0x10000a5bf <__cstring+0xa2b>
10000a55a: 20 25 73 21 0a 00           	and	byte ptr [rip + 663923], ah ## 0x1000ac6d3 <dyld_stub_binder+0x1000ac6d3>
10000a560: 70 79                       	jo	0x10000a5db <__cstring+0xa47>
10000a562: 69 2d 00 76 00 76 65 72 62 6f       	imul	ebp, dword ptr [rip + 1979741696], 1868722789 ## 0x176011b6c <dyld_stub_binder+0x176011b6c>
10000a56c: 73 65                       	jae	0x10000a5d3 <__cstring+0xa3f>
10000a56e: 00 75 00                    	add	byte ptr [rbp], dh
10000a571: 75 6e                       	jne	0x10000a5e1 <__cstring+0xa4d>
10000a573: 62 75 66 66 65              	<unknown>
10000a578: 72 65                       	jb	0x10000a5df <__cstring+0xa4b>
10000a57a: 64 00 4f 00                 	add	byte ptr fs:[rdi], cl
10000a57e: 6f                          	outsd	dx, dword ptr [rsi]
10000a57f: 70 74                       	jo	0x10000a5f5 <__cstring+0xa61>
10000a581: 69 6d 69 7a 65 00 57        	imul	ebp, dword ptr [rbp + 105], 1459643770
10000a588: 20 00                       	and	byte ptr [rax], al
10000a58a: 58                          	pop	rax
10000a58b: 20 00                       	and	byte ptr [rax], al
10000a58d: 68 61 73 68 5f              	push	1600680801
10000a592: 73 65                       	jae	0x10000a5f9 <__cstring+0xa65>
10000a594: 65 64 00 75 74              	add	byte ptr fs:[rbp + 116], dh
10000a599: 66 38 00                    	cmp	byte ptr [rax], al
10000a59c: 64 65 76 00                 	jbe	0x10000a5a0 <__cstring+0xa0c>
10000a5a0: 62                          	<unknown>
10000a5a1: 61                          	<unknown>
10000a5a2: 73 65                       	jae	0x10000a609 <__cstring+0xa75>
10000a5a4: 5f                          	pop	rdi
10000a5a5: 6c                          	insb	byte ptr es:[rdi], dx
10000a5a6: 69 62 72 61 72 79 2e        	imul	esp, dword ptr [rdx + 114], 779711073
10000a5ad: 7a 69                       	jp	0x10000a618 <__cstring+0xa84>
10000a5af: 70 00                       	jo	0x10000a5b1 <__cstring+0xa1d>
10000a5b1: 6c                          	insb	byte ptr es:[rdi], dx
10000a5b2: 69 62 2d 64 79 6e 6c        	imul	esp, dword ptr [rdx + 45], 1819179364
10000a5b9: 6f                          	outsd	dx, dword ptr [rsi]
10000a5ba: 61                          	<unknown>
10000a5bb: 64 00 50 79                 	add	byte ptr fs:[rax + 121], dl
10000a5bf: 5f                          	pop	rdi
10000a5c0: 44 65                       	gs
10000a5c2: 63 52 65                    	movsxd	edx, dword ptr [rdx + 101]
10000a5c5: 66 00 43 61                 	add	byte ptr [rbx + 97], al
10000a5c9: 6e                          	outsb	dx, byte ptr [rsi]
10000a5ca: 6e                          	outsb	dx, byte ptr [rsi]
10000a5cb: 6f                          	outsd	dx, dword ptr [rsi]
10000a5cc: 74 20                       	je	0x10000a5ee <__cstring+0xa5a>
10000a5ce: 64 6c                       	insb	byte ptr es:[rdi], dx
10000a5d0: 73 79                       	jae	0x10000a64b <__cstring+0xab7>
10000a5d2: 6d                          	insd	dword ptr es:[rdi], dx
10000a5d3: 20 66 6f                    	and	byte ptr [rsi + 111], ah
10000a5d6: 72 20                       	jb	0x10000a5f8 <__cstring+0xa64>
10000a5d8: 50                          	push	rax
10000a5d9: 79 5f                       	jns	0x10000a63a <__cstring+0xaa6>
10000a5db: 44 65                       	gs
10000a5dd: 63 52 65                    	movsxd	edx, dword ptr [rdx + 101]
10000a5e0: 66 0a 00                    	or	al, byte ptr [rax]
10000a5e3: 50                          	push	rax
10000a5e4: 79 5f                       	jns	0x10000a645 <__cstring+0xab1>
10000a5e6: 44 65                       	gs
10000a5e8: 63 6f 64                    	movsxd	ebp, dword ptr [rdi + 100]
10000a5eb: 65 4c 6f                    	outsd	dx, dword ptr gs:[rsi]
10000a5ee: 63 61 6c                    	movsxd	esp, dword ptr [rcx + 108]
10000a5f1: 65 00 43 61                 	add	byte ptr gs:[rbx + 97], al
10000a5f5: 6e                          	outsb	dx, byte ptr [rsi]
10000a5f6: 6e                          	outsb	dx, byte ptr [rsi]
10000a5f7: 6f                          	outsd	dx, dword ptr [rsi]
10000a5f8: 74 20                       	je	0x10000a61a <__cstring+0xa86>
10000a5fa: 64 6c                       	insb	byte ptr es:[rdi], dx
10000a5fc: 73 79                       	jae	0x10000a677 <__cstring+0xae3>
10000a5fe: 6d                          	insd	dword ptr es:[rdi], dx
10000a5ff: 20 66 6f                    	and	byte ptr [rsi + 111], ah
10000a602: 72 20                       	jb	0x10000a624 <__cstring+0xa90>
10000a604: 50                          	push	rax
10000a605: 79 5f                       	jns	0x10000a666 <__cstring+0xad2>
10000a607: 44 65                       	gs
10000a609: 63 6f 64                    	movsxd	ebp, dword ptr [rdi + 100]
10000a60c: 65 4c 6f                    	outsd	dx, dword ptr gs:[rsi]
10000a60f: 63 61 6c                    	movsxd	esp, dword ptr [rcx + 108]
10000a612: 65 0a 00                    	or	al, byte ptr gs:[rax]
10000a615: 50                          	push	rax
10000a616: 79 5f                       	jns	0x10000a677 <__cstring+0xae3>
10000a618: 45 78 69                    	js	0x10000a684 <__cstring+0xaf0>
10000a61b: 74 53                       	je	0x10000a670 <__cstring+0xadc>
10000a61d: 74 61                       	je	0x10000a680 <__cstring+0xaec>
10000a61f: 74 75                       	je	0x10000a696 <__cstring+0xb02>
10000a621: 73 45                       	jae	0x10000a668 <__cstring+0xad4>
10000a623: 78 63                       	js	0x10000a688 <__cstring+0xaf4>
10000a625: 65 70 74                    	jo	0x10000a69c <__cstring+0xb08>
10000a628: 69 6f 6e 00 43 61 6e        	imul	ebp, dword ptr [rdi + 110], 1851867904
10000a62f: 6e                          	outsb	dx, byte ptr [rsi]
10000a630: 6f                          	outsd	dx, dword ptr [rsi]
10000a631: 74 20                       	je	0x10000a653 <__cstring+0xabf>
10000a633: 64 6c                       	insb	byte ptr es:[rdi], dx
10000a635: 73 79                       	jae	0x10000a6b0 <__cstring+0xb1c>
10000a637: 6d                          	insd	dword ptr es:[rdi], dx
10000a638: 20 66 6f                    	and	byte ptr [rsi + 111], ah
10000a63b: 72 20                       	jb	0x10000a65d <__cstring+0xac9>
10000a63d: 50                          	push	rax
10000a63e: 79 5f                       	jns	0x10000a69f <__cstring+0xb0b>
10000a640: 45 78 69                    	js	0x10000a6ac <__cstring+0xb18>
10000a643: 74 53                       	je	0x10000a698 <__cstring+0xb04>
10000a645: 74 61                       	je	0x10000a6a8 <__cstring+0xb14>
10000a647: 74 75                       	je	0x10000a6be <__cstring+0xb2a>
10000a649: 73 45                       	jae	0x10000a690 <__cstring+0xafc>
10000a64b: 78 63                       	js	0x10000a6b0 <__cstring+0xb1c>
10000a64d: 65 70 74                    	jo	0x10000a6c4 <__cstring+0xb30>
10000a650: 69 6f 6e 0a 00 50 79        	imul	ebp, dword ptr [rdi + 110], 2035286026
10000a657: 5f                          	pop	rdi
10000a658: 46 69 6e 61 6c 69 7a 65     	imul	r13d, dword ptr [rsi + 97], 1702521196
10000a660: 00 43 61                    	add	byte ptr [rbx + 97], al
10000a663: 6e                          	outsb	dx, byte ptr [rsi]
10000a664: 6e                          	outsb	dx, byte ptr [rsi]
10000a665: 6f                          	outsd	dx, dword ptr [rsi]
10000a666: 74 20                       	je	0x10000a688 <__cstring+0xaf4>
10000a668: 64 6c                       	insb	byte ptr es:[rdi], dx
10000a66a: 73 79                       	jae	0x10000a6e5 <__cstring+0xb51>
10000a66c: 6d                          	insd	dword ptr es:[rdi], dx
10000a66d: 20 66 6f                    	and	byte ptr [rsi + 111], ah
10000a670: 72 20                       	jb	0x10000a692 <__cstring+0xafe>
10000a672: 50                          	push	rax
10000a673: 79 5f                       	jns	0x10000a6d4 <__cstring+0xb40>
10000a675: 46 69 6e 61 6c 69 7a 65     	imul	r13d, dword ptr [rsi + 97], 1702521196
10000a67d: 0a 00                       	or	al, byte ptr [rax]
10000a67f: 50                          	push	rax
10000a680: 79 5f                       	jns	0x10000a6e1 <__cstring+0xb4d>
10000a682: 49 6e                       	outsb	dx, byte ptr [rsi]
10000a684: 69 74 69 61 6c 69 7a 65     	imul	esi, dword ptr [rcx + 2*rbp + 97], 1702521196
10000a68c: 46 72 6f                    	jb	0x10000a6fe <__cstring+0xb6a>
10000a68f: 6d                          	insd	dword ptr es:[rdi], dx
10000a690: 43 6f                       	outsd	dx, dword ptr [rsi]
10000a692: 6e                          	outsb	dx, byte ptr [rsi]
10000a693: 66 69 67 00 43 61           	imul	sp, word ptr [rdi], 24899
10000a699: 6e                          	outsb	dx, byte ptr [rsi]
10000a69a: 6e                          	outsb	dx, byte ptr [rsi]
10000a69b: 6f                          	outsd	dx, dword ptr [rsi]
10000a69c: 74 20                       	je	0x10000a6be <__cstring+0xb2a>
10000a69e: 64 6c                       	insb	byte ptr es:[rdi], dx
10000a6a0: 73 79                       	jae	0x10000a71b <__cstring+0xb87>
10000a6a2: 6d                          	insd	dword ptr es:[rdi], dx
10000a6a3: 20 66 6f                    	and	byte ptr [rsi + 111], ah
10000a6a6: 72 20                       	jb	0x10000a6c8 <__cstring+0xb34>
10000a6a8: 50                          	push	rax
10000a6a9: 79 5f                       	jns	0x10000a70a <__cstring+0xb76>
10000a6ab: 49 6e                       	outsb	dx, byte ptr [rsi]
10000a6ad: 69 74 69 61 6c 69 7a 65     	imul	esi, dword ptr [rcx + 2*rbp + 97], 1702521196
10000a6b5: 46 72 6f                    	jb	0x10000a727 <__cstring+0xb93>
10000a6b8: 6d                          	insd	dword ptr es:[rdi], dx
10000a6b9: 43 6f                       	outsd	dx, dword ptr [rsi]
10000a6bb: 6e                          	outsb	dx, byte ptr [rsi]
10000a6bc: 66 69 67 0a 00 50           	imul	sp, word ptr [rdi + 10], 20480
10000a6c2: 79 5f                       	jns	0x10000a723 <__cstring+0xb8f>
10000a6c4: 49 73 49                    	jae	0x10000a710 <__cstring+0xb7c>
10000a6c7: 6e                          	outsb	dx, byte ptr [rsi]
10000a6c8: 69 74 69 61 6c 69 7a 65     	imul	esi, dword ptr [rcx + 2*rbp + 97], 1702521196
10000a6d0: 64 00 43 61                 	add	byte ptr fs:[rbx + 97], al
10000a6d4: 6e                          	outsb	dx, byte ptr [rsi]
10000a6d5: 6e                          	outsb	dx, byte ptr [rsi]
10000a6d6: 6f                          	outsd	dx, dword ptr [rsi]
10000a6d7: 74 20                       	je	0x10000a6f9 <__cstring+0xb65>
10000a6d9: 64 6c                       	insb	byte ptr es:[rdi], dx
10000a6db: 73 79                       	jae	0x10000a756 <__cstring+0xbc2>
10000a6dd: 6d                          	insd	dword ptr es:[rdi], dx
10000a6de: 20 66 6f                    	and	byte ptr [rsi + 111], ah
10000a6e1: 72 20                       	jb	0x10000a703 <__cstring+0xb6f>
10000a6e3: 50                          	push	rax
10000a6e4: 79 5f                       	jns	0x10000a745 <__cstring+0xbb1>
10000a6e6: 49 73 49                    	jae	0x10000a732 <__cstring+0xb9e>
10000a6e9: 6e                          	outsb	dx, byte ptr [rsi]
10000a6ea: 69 74 69 61 6c 69 7a 65     	imul	esi, dword ptr [rcx + 2*rbp + 97], 1702521196
10000a6f2: 64 0a 00                    	or	al, byte ptr fs:[rax]
10000a6f5: 50                          	push	rax
10000a6f6: 79 5f                       	jns	0x10000a757 <__cstring+0xbc3>
10000a6f8: 50                          	push	rax
10000a6f9: 72 65                       	jb	0x10000a760 <__cstring+0xbcc>
10000a6fb: 49 6e                       	outsb	dx, byte ptr [rsi]
10000a6fd: 69 74 69 61 6c 69 7a 65     	imul	esi, dword ptr [rcx + 2*rbp + 97], 1702521196
10000a705: 00 43 61                    	add	byte ptr [rbx + 97], al
10000a708: 6e                          	outsb	dx, byte ptr [rsi]
10000a709: 6e                          	outsb	dx, byte ptr [rsi]
10000a70a: 6f                          	outsd	dx, dword ptr [rsi]
10000a70b: 74 20                       	je	0x10000a72d <__cstring+0xb99>
10000a70d: 64 6c                       	insb	byte ptr es:[rdi], dx
10000a70f: 73 79                       	jae	0x10000a78a <__cstring+0xbf6>
10000a711: 6d                          	insd	dword ptr es:[rdi], dx
10000a712: 20 66 6f                    	and	byte ptr [rsi + 111], ah
10000a715: 72 20                       	jb	0x10000a737 <__cstring+0xba3>
10000a717: 50                          	push	rax
10000a718: 79 5f                       	jns	0x10000a779 <__cstring+0xbe5>
10000a71a: 50                          	push	rax
10000a71b: 72 65                       	jb	0x10000a782 <__cstring+0xbee>
10000a71d: 49 6e                       	outsb	dx, byte ptr [rsi]
10000a71f: 69 74 69 61 6c 69 7a 65     	imul	esi, dword ptr [rcx + 2*rbp + 97], 1702521196
10000a727: 0a 00                       	or	al, byte ptr [rax]
10000a729: 50                          	push	rax
10000a72a: 79 43                       	jns	0x10000a76f <__cstring+0xbdb>
10000a72c: 6f                          	outsd	dx, dword ptr [rsi]
10000a72d: 6e                          	outsb	dx, byte ptr [rsi]
10000a72e: 66 69 67 5f 43 6c           	imul	sp, word ptr [rdi + 95], 27715
10000a734: 65 61                       	<unknown>
10000a736: 72 00                       	jb	0x10000a738 <__cstring+0xba4>
10000a738: 43 61                       	<unknown>
10000a73a: 6e                          	outsb	dx, byte ptr [rsi]
10000a73b: 6e                          	outsb	dx, byte ptr [rsi]
10000a73c: 6f                          	outsd	dx, dword ptr [rsi]
10000a73d: 74 20                       	je	0x10000a75f <__cstring+0xbcb>
10000a73f: 64 6c                       	insb	byte ptr es:[rdi], dx
10000a741: 73 79                       	jae	0x10000a7bc <__cstring+0xc28>
10000a743: 6d                          	insd	dword ptr es:[rdi], dx
10000a744: 20 66 6f                    	and	byte ptr [rsi + 111], ah
10000a747: 72 20                       	jb	0x10000a769 <__cstring+0xbd5>
10000a749: 50                          	push	rax
10000a74a: 79 43                       	jns	0x10000a78f <__cstring+0xbfb>
10000a74c: 6f                          	outsd	dx, dword ptr [rsi]
10000a74d: 6e                          	outsb	dx, byte ptr [rsi]
10000a74e: 66 69 67 5f 43 6c           	imul	sp, word ptr [rdi + 95], 27715
10000a754: 65 61                       	<unknown>
10000a756: 72 0a                       	jb	0x10000a762 <__cstring+0xbce>
10000a758: 00 50 79                    	add	byte ptr [rax + 121], dl
10000a75b: 43 6f                       	outsd	dx, dword ptr [rsi]
10000a75d: 6e                          	outsb	dx, byte ptr [rsi]
10000a75e: 66 69 67 5f 49 6e           	imul	sp, word ptr [rdi + 95], 28233
10000a764: 69 74 49 73 6f 6c 61 74     	imul	esi, dword ptr [rcx + 2*rcx + 115], 1952541807
10000a76c: 65 64 43 6f                 	outsd	dx, dword ptr fs:[rsi]
10000a770: 6e                          	outsb	dx, byte ptr [rsi]
10000a771: 66 69 67 00 43 61           	imul	sp, word ptr [rdi], 24899
10000a777: 6e                          	outsb	dx, byte ptr [rsi]
10000a778: 6e                          	outsb	dx, byte ptr [rsi]
10000a779: 6f                          	outsd	dx, dword ptr [rsi]
10000a77a: 74 20                       	je	0x10000a79c <__cstring+0xc08>
10000a77c: 64 6c                       	insb	byte ptr es:[rdi], dx
10000a77e: 73 79                       	jae	0x10000a7f9 <__cstring+0xc65>
10000a780: 6d                          	insd	dword ptr es:[rdi], dx
10000a781: 20 66 6f                    	and	byte ptr [rsi + 111], ah
10000a784: 72 20                       	jb	0x10000a7a6 <__cstring+0xc12>
10000a786: 50                          	push	rax
10000a787: 79 43                       	jns	0x10000a7cc <__cstring+0xc38>
10000a789: 6f                          	outsd	dx, dword ptr [rsi]
10000a78a: 6e                          	outsb	dx, byte ptr [rsi]
10000a78b: 66 69 67 5f 49 6e           	imul	sp, word ptr [rdi + 95], 28233
10000a791: 69 74 49 73 6f 6c 61 74     	imul	esi, dword ptr [rcx + 2*rcx + 115], 1952541807
10000a799: 65 64 43 6f                 	outsd	dx, dword ptr fs:[rsi]
10000a79d: 6e                          	outsb	dx, byte ptr [rsi]
10000a79e: 66 69 67 0a 00 50           	imul	sp, word ptr [rdi + 10], 20480
10000a7a4: 79 43                       	jns	0x10000a7e9 <__cstring+0xc55>
10000a7a6: 6f                          	outsd	dx, dword ptr [rsi]
10000a7a7: 6e                          	outsb	dx, byte ptr [rsi]
10000a7a8: 66 69 67 5f 52 65           	imul	sp, word ptr [rdi + 95], 25938
10000a7ae: 61                          	<unknown>
10000a7af: 64 00 43 61                 	add	byte ptr fs:[rbx + 97], al
10000a7b3: 6e                          	outsb	dx, byte ptr [rsi]
10000a7b4: 6e                          	outsb	dx, byte ptr [rsi]
10000a7b5: 6f                          	outsd	dx, dword ptr [rsi]
10000a7b6: 74 20                       	je	0x10000a7d8 <__cstring+0xc44>
10000a7b8: 64 6c                       	insb	byte ptr es:[rdi], dx
10000a7ba: 73 79                       	jae	0x10000a835 <__cstring+0xca1>
10000a7bc: 6d                          	insd	dword ptr es:[rdi], dx
10000a7bd: 20 66 6f                    	and	byte ptr [rsi + 111], ah
10000a7c0: 72 20                       	jb	0x10000a7e2 <__cstring+0xc4e>
10000a7c2: 50                          	push	rax
10000a7c3: 79 43                       	jns	0x10000a808 <__cstring+0xc74>
10000a7c5: 6f                          	outsd	dx, dword ptr [rsi]
10000a7c6: 6e                          	outsb	dx, byte ptr [rsi]
10000a7c7: 66 69 67 5f 52 65           	imul	sp, word ptr [rdi + 95], 25938
10000a7cd: 61                          	<unknown>
10000a7ce: 64 0a 00                    	or	al, byte ptr fs:[rax]
10000a7d1: 50                          	push	rax
10000a7d2: 79 43                       	jns	0x10000a817 <__cstring+0xc83>
10000a7d4: 6f                          	outsd	dx, dword ptr [rsi]
10000a7d5: 6e                          	outsb	dx, byte ptr [rsi]
10000a7d6: 66 69 67 5f 53 65           	imul	sp, word ptr [rdi + 95], 25939
10000a7dc: 74 42                       	je	0x10000a820 <__cstring+0xc8c>
10000a7de: 79 74                       	jns	0x10000a854 <__cstring+0xcc0>
10000a7e0: 65 73 53                    	jae	0x10000a836 <__cstring+0xca2>
10000a7e3: 74 72                       	je	0x10000a857 <__cstring+0xcc3>
10000a7e5: 69 6e 67 00 43 61 6e        	imul	ebp, dword ptr [rsi + 103], 1851867904
10000a7ec: 6e                          	outsb	dx, byte ptr [rsi]
10000a7ed: 6f                          	outsd	dx, dword ptr [rsi]
10000a7ee: 74 20                       	je	0x10000a810 <__cstring+0xc7c>
10000a7f0: 64 6c                       	insb	byte ptr es:[rdi], dx
10000a7f2: 73 79                       	jae	0x10000a86d <__cstring+0xcd9>
10000a7f4: 6d                          	insd	dword ptr es:[rdi], dx
10000a7f5: 20 66 6f                    	and	byte ptr [rsi + 111], ah
10000a7f8: 72 20                       	jb	0x10000a81a <__cstring+0xc86>
10000a7fa: 50                          	push	rax
10000a7fb: 79 43                       	jns	0x10000a840 <__cstring+0xcac>
10000a7fd: 6f                          	outsd	dx, dword ptr [rsi]
10000a7fe: 6e                          	outsb	dx, byte ptr [rsi]
10000a7ff: 66 69 67 5f 53 65           	imul	sp, word ptr [rdi + 95], 25939
10000a805: 74 42                       	je	0x10000a849 <__cstring+0xcb5>
10000a807: 79 74                       	jns	0x10000a87d <__cstring+0xce9>
10000a809: 65 73 53                    	jae	0x10000a85f <__cstring+0xccb>
10000a80c: 74 72                       	je	0x10000a880 <__cstring+0xcec>
10000a80e: 69 6e 67 0a 00 50 79        	imul	ebp, dword ptr [rsi + 103], 2035286026
10000a815: 43 6f                       	outsd	dx, dword ptr [rsi]
10000a817: 6e                          	outsb	dx, byte ptr [rsi]
10000a818: 66 69 67 5f 53 65           	imul	sp, word ptr [rdi + 95], 25939
10000a81e: 74 53                       	je	0x10000a873 <__cstring+0xcdf>
10000a820: 74 72                       	je	0x10000a894 <__cstring+0xd00>
10000a822: 69 6e 67 00 43 61 6e        	imul	ebp, dword ptr [rsi + 103], 1851867904
10000a829: 6e                          	outsb	dx, byte ptr [rsi]
10000a82a: 6f                          	outsd	dx, dword ptr [rsi]
10000a82b: 74 20                       	je	0x10000a84d <__cstring+0xcb9>
10000a82d: 64 6c                       	insb	byte ptr es:[rdi], dx
10000a82f: 73 79                       	jae	0x10000a8aa <__cstring+0xd16>
10000a831: 6d                          	insd	dword ptr es:[rdi], dx
10000a832: 20 66 6f                    	and	byte ptr [rsi + 111], ah
10000a835: 72 20                       	jb	0x10000a857 <__cstring+0xcc3>
10000a837: 50                          	push	rax
10000a838: 79 43                       	jns	0x10000a87d <__cstring+0xce9>
10000a83a: 6f                          	outsd	dx, dword ptr [rsi]
10000a83b: 6e                          	outsb	dx, byte ptr [rsi]
10000a83c: 66 69 67 5f 53 65           	imul	sp, word ptr [rdi + 95], 25939
10000a842: 74 53                       	je	0x10000a897 <__cstring+0xd03>
10000a844: 74 72                       	je	0x10000a8b8 <__cstring+0xd24>
10000a846: 69 6e 67 0a 00 50 79        	imul	ebp, dword ptr [rsi + 103], 2035286026
10000a84d: 43 6f                       	outsd	dx, dword ptr [rsi]
10000a84f: 6e                          	outsb	dx, byte ptr [rsi]
10000a850: 66 69 67 5f 53 65           	imul	sp, word ptr [rdi + 95], 25939
10000a856: 74 57                       	je	0x10000a8af <__cstring+0xd1b>
10000a858: 69 64 65 53 74 72 69 6e     	imul	esp, dword ptr [rbp + 2*riz + 83], 1852404340
10000a860: 67 4c 69 73 74 00 43 61 6e  	imul	r14, qword ptr [ebx + 116], 1851867904
10000a869: 6e                          	outsb	dx, byte ptr [rsi]
10000a86a: 6f                          	outsd	dx, dword ptr [rsi]
10000a86b: 74 20                       	je	0x10000a88d <__cstring+0xcf9>
10000a86d: 64 6c                       	insb	byte ptr es:[rdi], dx
10000a86f: 73 79                       	jae	0x10000a8ea <__cstring+0xd56>
10000a871: 6d                          	insd	dword ptr es:[rdi], dx
10000a872: 20 66 6f                    	and	byte ptr [rsi + 111], ah
10000a875: 72 20                       	jb	0x10000a897 <__cstring+0xd03>
10000a877: 50                          	push	rax
10000a878: 79 43                       	jns	0x10000a8bd <__cstring+0xd29>
10000a87a: 6f                          	outsd	dx, dword ptr [rsi]
10000a87b: 6e                          	outsb	dx, byte ptr [rsi]
10000a87c: 66 69 67 5f 53 65           	imul	sp, word ptr [rdi + 95], 25939
10000a882: 74 57                       	je	0x10000a8db <__cstring+0xd47>
10000a884: 69 64 65 53 74 72 69 6e     	imul	esp, dword ptr [rbp + 2*riz + 83], 1852404340
10000a88c: 67 4c 69 73 74 0a 00 50 79  	imul	r14, qword ptr [ebx + 116], 2035286026
10000a895: 45 72 72                    	jb	0x10000a90a <__cstring+0xd76>
10000a898: 5f                          	pop	rdi
10000a899: 43 6c                       	insb	byte ptr es:[rdi], dx
10000a89b: 65 61                       	<unknown>
10000a89d: 72 00                       	jb	0x10000a89f <__cstring+0xd0b>
10000a89f: 43 61                       	<unknown>
10000a8a1: 6e                          	outsb	dx, byte ptr [rsi]
10000a8a2: 6e                          	outsb	dx, byte ptr [rsi]
10000a8a3: 6f                          	outsd	dx, dword ptr [rsi]
10000a8a4: 74 20                       	je	0x10000a8c6 <__cstring+0xd32>
10000a8a6: 64 6c                       	insb	byte ptr es:[rdi], dx
10000a8a8: 73 79                       	jae	0x10000a923 <__cstring+0xd8f>
10000a8aa: 6d                          	insd	dword ptr es:[rdi], dx
10000a8ab: 20 66 6f                    	and	byte ptr [rsi + 111], ah
10000a8ae: 72 20                       	jb	0x10000a8d0 <__cstring+0xd3c>
10000a8b0: 50                          	push	rax
10000a8b1: 79 45                       	jns	0x10000a8f8 <__cstring+0xd64>
10000a8b3: 72 72                       	jb	0x10000a927 <__cstring+0xd93>
10000a8b5: 5f                          	pop	rdi
10000a8b6: 43 6c                       	insb	byte ptr es:[rdi], dx
10000a8b8: 65 61                       	<unknown>
10000a8ba: 72 0a                       	jb	0x10000a8c6 <__cstring+0xd32>
10000a8bc: 00 50 79                    	add	byte ptr [rax + 121], dl
10000a8bf: 45 72 72                    	jb	0x10000a934 <__cstring+0xda0>
10000a8c2: 5f                          	pop	rdi
10000a8c3: 46 65                       	gs
10000a8c5: 74 63                       	je	0x10000a92a <__cstring+0xd96>
10000a8c7: 68 00 43 61 6e              	push	1851867904
10000a8cc: 6e                          	outsb	dx, byte ptr [rsi]
10000a8cd: 6f                          	outsd	dx, dword ptr [rsi]
10000a8ce: 74 20                       	je	0x10000a8f0 <__cstring+0xd5c>
10000a8d0: 64 6c                       	insb	byte ptr es:[rdi], dx
10000a8d2: 73 79                       	jae	0x10000a94d <__cstring+0xdb9>
10000a8d4: 6d                          	insd	dword ptr es:[rdi], dx
10000a8d5: 20 66 6f                    	and	byte ptr [rsi + 111], ah
10000a8d8: 72 20                       	jb	0x10000a8fa <__cstring+0xd66>
10000a8da: 50                          	push	rax
10000a8db: 79 45                       	jns	0x10000a922 <__cstring+0xd8e>
10000a8dd: 72 72                       	jb	0x10000a951 <__cstring+0xdbd>
10000a8df: 5f                          	pop	rdi
10000a8e0: 46 65                       	gs
10000a8e2: 74 63                       	je	0x10000a947 <__cstring+0xdb3>
10000a8e4: 68 0a 00 50 79              	push	2035286026
10000a8e9: 45 72 72                    	jb	0x10000a95e <__cstring+0xdca>
10000a8ec: 5f                          	pop	rdi
10000a8ed: 4e 6f                       	outsd	dx, dword ptr [rsi]
10000a8ef: 72 6d                       	jb	0x10000a95e <__cstring+0xdca>
10000a8f1: 61                          	<unknown>
10000a8f2: 6c                          	insb	byte ptr es:[rdi], dx
10000a8f3: 69 7a 65 45 78 63 65        	imul	edi, dword ptr [rdx + 101], 1701017669
10000a8fa: 70 74                       	jo	0x10000a970 <__cstring+0xddc>
10000a8fc: 69 6f 6e 00 43 61 6e        	imul	ebp, dword ptr [rdi + 110], 1851867904
10000a903: 6e                          	outsb	dx, byte ptr [rsi]
10000a904: 6f                          	outsd	dx, dword ptr [rsi]
10000a905: 74 20                       	je	0x10000a927 <__cstring+0xd93>
10000a907: 64 6c                       	insb	byte ptr es:[rdi], dx
10000a909: 73 79                       	jae	0x10000a984 <__cstring+0xdf0>
10000a90b: 6d                          	insd	dword ptr es:[rdi], dx
10000a90c: 20 66 6f                    	and	byte ptr [rsi + 111], ah
10000a90f: 72 20                       	jb	0x10000a931 <__cstring+0xd9d>
10000a911: 50                          	push	rax
10000a912: 79 45                       	jns	0x10000a959 <__cstring+0xdc5>
10000a914: 72 72                       	jb	0x10000a988 <__cstring+0xdf4>
10000a916: 5f                          	pop	rdi
10000a917: 4e 6f                       	outsd	dx, dword ptr [rsi]
10000a919: 72 6d                       	jb	0x10000a988 <__cstring+0xdf4>
10000a91b: 61                          	<unknown>
10000a91c: 6c                          	insb	byte ptr es:[rdi], dx
10000a91d: 69 7a 65 45 78 63 65        	imul	edi, dword ptr [rdx + 101], 1701017669
10000a924: 70 74                       	jo	0x10000a99a <__cstring+0xe06>
10000a926: 69 6f 6e 0a 00 50 79        	imul	ebp, dword ptr [rdi + 110], 2035286026
10000a92d: 45 72 72                    	jb	0x10000a9a2 <__cstring+0xe0e>
10000a930: 5f                          	pop	rdi
10000a931: 4f 63 63 75                 	movsxd	r12, dword ptr [r11 + 117]
10000a935: 72 72                       	jb	0x10000a9a9 <__cstring+0xe15>
10000a937: 65 64 00 43 61              	add	byte ptr fs:[rbx + 97], al
10000a93c: 6e                          	outsb	dx, byte ptr [rsi]
10000a93d: 6e                          	outsb	dx, byte ptr [rsi]
10000a93e: 6f                          	outsd	dx, dword ptr [rsi]
10000a93f: 74 20                       	je	0x10000a961 <__cstring+0xdcd>
10000a941: 64 6c                       	insb	byte ptr es:[rdi], dx
10000a943: 73 79                       	jae	0x10000a9be <__cstring+0xe2a>
10000a945: 6d                          	insd	dword ptr es:[rdi], dx
10000a946: 20 66 6f                    	and	byte ptr [rsi + 111], ah
10000a949: 72 20                       	jb	0x10000a96b <__cstring+0xdd7>
10000a94b: 50                          	push	rax
10000a94c: 79 45                       	jns	0x10000a993 <__cstring+0xdff>
10000a94e: 72 72                       	jb	0x10000a9c2 <__cstring+0xe2e>
10000a950: 5f                          	pop	rdi
10000a951: 4f 63 63 75                 	movsxd	r12, dword ptr [r11 + 117]
10000a955: 72 72                       	jb	0x10000a9c9 <__cstring+0xe35>
10000a957: 65 64 0a 00                 	or	al, byte ptr fs:[rax]
10000a95b: 50                          	push	rax
10000a95c: 79 45                       	jns	0x10000a9a3 <__cstring+0xe0f>
10000a95e: 72 72                       	jb	0x10000a9d2 <__cstring+0xe3e>
10000a960: 5f                          	pop	rdi
10000a961: 50                          	push	rax
10000a962: 72 69                       	jb	0x10000a9cd <__cstring+0xe39>
10000a964: 6e                          	outsb	dx, byte ptr [rsi]
10000a965: 74 00                       	je	0x10000a967 <__cstring+0xdd3>
10000a967: 43 61                       	<unknown>
10000a969: 6e                          	outsb	dx, byte ptr [rsi]
10000a96a: 6e                          	outsb	dx, byte ptr [rsi]
10000a96b: 6f                          	outsd	dx, dword ptr [rsi]
10000a96c: 74 20                       	je	0x10000a98e <__cstring+0xdfa>
10000a96e: 64 6c                       	insb	byte ptr es:[rdi], dx
10000a970: 73 79                       	jae	0x10000a9eb <__cstring+0xe57>
10000a972: 6d                          	insd	dword ptr es:[rdi], dx
10000a973: 20 66 6f                    	and	byte ptr [rsi + 111], ah
10000a976: 72 20                       	jb	0x10000a998 <__cstring+0xe04>
10000a978: 50                          	push	rax
10000a979: 79 45                       	jns	0x10000a9c0 <__cstring+0xe2c>
10000a97b: 72 72                       	jb	0x10000a9ef <__cstring+0xe5b>
10000a97d: 5f                          	pop	rdi
10000a97e: 50                          	push	rax
10000a97f: 72 69                       	jb	0x10000a9ea <__cstring+0xe56>
10000a981: 6e                          	outsb	dx, byte ptr [rsi]
10000a982: 74 0a                       	je	0x10000a98e <__cstring+0xdfa>
10000a984: 00 50 79                    	add	byte ptr [rax + 121], dl
10000a987: 45 72 72                    	jb	0x10000a9fc <__cstring+0xe68>
10000a98a: 5f                          	pop	rdi
10000a98b: 52                          	push	rdx
10000a98c: 65 73 74                    	jae	0x10000aa03 <__cstring+0xe6f>
10000a98f: 6f                          	outsd	dx, dword ptr [rsi]
10000a990: 72 65                       	jb	0x10000a9f7 <__cstring+0xe63>
10000a992: 00 43 61                    	add	byte ptr [rbx + 97], al
10000a995: 6e                          	outsb	dx, byte ptr [rsi]
10000a996: 6e                          	outsb	dx, byte ptr [rsi]
10000a997: 6f                          	outsd	dx, dword ptr [rsi]
10000a998: 74 20                       	je	0x10000a9ba <__cstring+0xe26>
10000a99a: 64 6c                       	insb	byte ptr es:[rdi], dx
10000a99c: 73 79                       	jae	0x10000aa17 <__cstring+0xe83>
10000a99e: 6d                          	insd	dword ptr es:[rdi], dx
10000a99f: 20 66 6f                    	and	byte ptr [rsi + 111], ah
10000a9a2: 72 20                       	jb	0x10000a9c4 <__cstring+0xe30>
10000a9a4: 50                          	push	rax
10000a9a5: 79 45                       	jns	0x10000a9ec <__cstring+0xe58>
10000a9a7: 72 72                       	jb	0x10000aa1b <__cstring+0xe87>
10000a9a9: 5f                          	pop	rdi
10000a9aa: 52                          	push	rdx
10000a9ab: 65 73 74                    	jae	0x10000aa22 <__cstring+0xe8e>
10000a9ae: 6f                          	outsd	dx, dword ptr [rsi]
10000a9af: 72 65                       	jb	0x10000aa16 <__cstring+0xe82>
10000a9b1: 0a 00                       	or	al, byte ptr [rax]
10000a9b3: 50                          	push	rax
10000a9b4: 79 45                       	jns	0x10000a9fb <__cstring+0xe67>
10000a9b6: 76 61                       	jbe	0x10000aa19 <__cstring+0xe85>
10000a9b8: 6c                          	insb	byte ptr es:[rdi], dx
10000a9b9: 5f                          	pop	rdi
10000a9ba: 45 76 61                    	jbe	0x10000aa1e <__cstring+0xe8a>
10000a9bd: 6c                          	insb	byte ptr es:[rdi], dx
10000a9be: 43 6f                       	outsd	dx, dword ptr [rsi]
10000a9c0: 64 65 00 43 61              	add	byte ptr gs:[rbx + 97], al
10000a9c5: 6e                          	outsb	dx, byte ptr [rsi]
10000a9c6: 6e                          	outsb	dx, byte ptr [rsi]
10000a9c7: 6f                          	outsd	dx, dword ptr [rsi]
10000a9c8: 74 20                       	je	0x10000a9ea <__cstring+0xe56>
10000a9ca: 64 6c                       	insb	byte ptr es:[rdi], dx
10000a9cc: 73 79                       	jae	0x10000aa47 <__cstring+0xeb3>
10000a9ce: 6d                          	insd	dword ptr es:[rdi], dx
10000a9cf: 20 66 6f                    	and	byte ptr [rsi + 111], ah
10000a9d2: 72 20                       	jb	0x10000a9f4 <__cstring+0xe60>
10000a9d4: 50                          	push	rax
10000a9d5: 79 45                       	jns	0x10000aa1c <__cstring+0xe88>
10000a9d7: 76 61                       	jbe	0x10000aa3a <__cstring+0xea6>
10000a9d9: 6c                          	insb	byte ptr es:[rdi], dx
10000a9da: 5f                          	pop	rdi
10000a9db: 45 76 61                    	jbe	0x10000aa3f <__cstring+0xeab>
10000a9de: 6c                          	insb	byte ptr es:[rdi], dx
10000a9df: 43 6f                       	outsd	dx, dword ptr [rsi]
10000a9e1: 64 65 0a 00                 	or	al, byte ptr gs:[rax]
10000a9e5: 50                          	push	rax
10000a9e6: 79 49                       	jns	0x10000aa31 <__cstring+0xe9d>
10000a9e8: 6d                          	insd	dword ptr es:[rdi], dx
10000a9e9: 70 6f                       	jo	0x10000aa5a <__cstring+0xec6>
10000a9eb: 72 74                       	jb	0x10000aa61 <__cstring+0xecd>
10000a9ed: 5f                          	pop	rdi
10000a9ee: 41 64                       	fs
10000a9f0: 64 4d 6f                    	outsd	dx, dword ptr fs:[rsi]
10000a9f3: 64 75 6c                    	jne	0x10000aa62 <__cstring+0xece>
10000a9f6: 65 00 43 61                 	add	byte ptr gs:[rbx + 97], al
10000a9fa: 6e                          	outsb	dx, byte ptr [rsi]
10000a9fb: 6e                          	outsb	dx, byte ptr [rsi]
10000a9fc: 6f                          	outsd	dx, dword ptr [rsi]
10000a9fd: 74 20                       	je	0x10000aa1f <__cstring+0xe8b>
10000a9ff: 64 6c                       	insb	byte ptr es:[rdi], dx
10000aa01: 73 79                       	jae	0x10000aa7c <__cstring+0xee8>
10000aa03: 6d                          	insd	dword ptr es:[rdi], dx
10000aa04: 20 66 6f                    	and	byte ptr [rsi + 111], ah
10000aa07: 72 20                       	jb	0x10000aa29 <__cstring+0xe95>
10000aa09: 50                          	push	rax
10000aa0a: 79 49                       	jns	0x10000aa55 <__cstring+0xec1>
10000aa0c: 6d                          	insd	dword ptr es:[rdi], dx
10000aa0d: 70 6f                       	jo	0x10000aa7e <__cstring+0xeea>
10000aa0f: 72 74                       	jb	0x10000aa85 <__cstring+0xef1>
10000aa11: 5f                          	pop	rdi
10000aa12: 41 64                       	fs
10000aa14: 64 4d 6f                    	outsd	dx, dword ptr fs:[rsi]
10000aa17: 64 75 6c                    	jne	0x10000aa86 <__cstring+0xef2>
10000aa1a: 65 0a 00                    	or	al, byte ptr gs:[rax]
10000aa1d: 50                          	push	rax
10000aa1e: 79 49                       	jns	0x10000aa69 <__cstring+0xed5>
10000aa20: 6d                          	insd	dword ptr es:[rdi], dx
10000aa21: 70 6f                       	jo	0x10000aa92 <__cstring+0xefe>
10000aa23: 72 74                       	jb	0x10000aa99 <__cstring+0xf05>
10000aa25: 5f                          	pop	rdi
10000aa26: 45 78 65                    	js	0x10000aa8e <__cstring+0xefa>
10000aa29: 63 43 6f                    	movsxd	eax, dword ptr [rbx + 111]
10000aa2c: 64 65 4d 6f                 	outsd	dx, dword ptr gs:[rsi]
10000aa30: 64 75 6c                    	jne	0x10000aa9f <__cstring+0xf0b>
10000aa33: 65 00 43 61                 	add	byte ptr gs:[rbx + 97], al
10000aa37: 6e                          	outsb	dx, byte ptr [rsi]
10000aa38: 6e                          	outsb	dx, byte ptr [rsi]
10000aa39: 6f                          	outsd	dx, dword ptr [rsi]
10000aa3a: 74 20                       	je	0x10000aa5c <__cstring+0xec8>
10000aa3c: 64 6c                       	insb	byte ptr es:[rdi], dx
10000aa3e: 73 79                       	jae	0x10000aab9 <__cstring+0xf25>
10000aa40: 6d                          	insd	dword ptr es:[rdi], dx
10000aa41: 20 66 6f                    	and	byte ptr [rsi + 111], ah
10000aa44: 72 20                       	jb	0x10000aa66 <__cstring+0xed2>
10000aa46: 50                          	push	rax
10000aa47: 79 49                       	jns	0x10000aa92 <__cstring+0xefe>
10000aa49: 6d                          	insd	dword ptr es:[rdi], dx
10000aa4a: 70 6f                       	jo	0x10000aabb <__cstring+0xf27>
10000aa4c: 72 74                       	jb	0x10000aac2 <__cstring+0xf2e>
10000aa4e: 5f                          	pop	rdi
10000aa4f: 45 78 65                    	js	0x10000aab7 <__cstring+0xf23>
10000aa52: 63 43 6f                    	movsxd	eax, dword ptr [rbx + 111]
10000aa55: 64 65 4d 6f                 	outsd	dx, dword ptr gs:[rsi]
10000aa59: 64 75 6c                    	jne	0x10000aac8 <__cstring+0xf34>
10000aa5c: 65 0a 00                    	or	al, byte ptr gs:[rax]
10000aa5f: 50                          	push	rax
10000aa60: 79 49                       	jns	0x10000aaab <__cstring+0xf17>
10000aa62: 6d                          	insd	dword ptr es:[rdi], dx
10000aa63: 70 6f                       	jo	0x10000aad4 <__cstring+0xf40>
10000aa65: 72 74                       	jb	0x10000aadb <__cstring+0xf47>
10000aa67: 5f                          	pop	rdi
10000aa68: 49 6d                       	insd	dword ptr es:[rdi], dx
10000aa6a: 70 6f                       	jo	0x10000aadb <__cstring+0xf47>
10000aa6c: 72 74                       	jb	0x10000aae2 <__cstring+0xf4e>
10000aa6e: 4d 6f                       	outsd	dx, dword ptr [rsi]
10000aa70: 64 75 6c                    	jne	0x10000aadf <__cstring+0xf4b>
10000aa73: 65 00 43 61                 	add	byte ptr gs:[rbx + 97], al
10000aa77: 6e                          	outsb	dx, byte ptr [rsi]
10000aa78: 6e                          	outsb	dx, byte ptr [rsi]
10000aa79: 6f                          	outsd	dx, dword ptr [rsi]
10000aa7a: 74 20                       	je	0x10000aa9c <__cstring+0xf08>
10000aa7c: 64 6c                       	insb	byte ptr es:[rdi], dx
10000aa7e: 73 79                       	jae	0x10000aaf9 <__cstring+0xf65>
10000aa80: 6d                          	insd	dword ptr es:[rdi], dx
10000aa81: 20 66 6f                    	and	byte ptr [rsi + 111], ah
10000aa84: 72 20                       	jb	0x10000aaa6 <__cstring+0xf12>
10000aa86: 50                          	push	rax
10000aa87: 79 49                       	jns	0x10000aad2 <__cstring+0xf3e>
10000aa89: 6d                          	insd	dword ptr es:[rdi], dx
10000aa8a: 70 6f                       	jo	0x10000aafb <__cstring+0xf67>
10000aa8c: 72 74                       	jb	0x10000ab02 <__cstring+0xf6e>
10000aa8e: 5f                          	pop	rdi
10000aa8f: 49 6d                       	insd	dword ptr es:[rdi], dx
10000aa91: 70 6f                       	jo	0x10000ab02 <__cstring+0xf6e>
10000aa93: 72 74                       	jb	0x10000ab09 <__cstring+0xf75>
10000aa95: 4d 6f                       	outsd	dx, dword ptr [rsi]
10000aa97: 64 75 6c                    	jne	0x10000ab06 <__cstring+0xf72>
10000aa9a: 65 0a 00                    	or	al, byte ptr gs:[rax]
10000aa9d: 50                          	push	rax
10000aa9e: 79 4c                       	jns	0x10000aaec <__cstring+0xf58>
10000aaa0: 69 73 74 5f 41 70 70        	imul	esi, dword ptr [rbx + 116], 1886404959
10000aaa7: 65 6e                       	outsb	dx, byte ptr gs:[rsi]
10000aaa9: 64 00 43 61                 	add	byte ptr fs:[rbx + 97], al
10000aaad: 6e                          	outsb	dx, byte ptr [rsi]
10000aaae: 6e                          	outsb	dx, byte ptr [rsi]
10000aaaf: 6f                          	outsd	dx, dword ptr [rsi]
10000aab0: 74 20                       	je	0x10000aad2 <__cstring+0xf3e>
10000aab2: 64 6c                       	insb	byte ptr es:[rdi], dx
10000aab4: 73 79                       	jae	0x10000ab2f <__cstring+0xf9b>
10000aab6: 6d                          	insd	dword ptr es:[rdi], dx
10000aab7: 20 66 6f                    	and	byte ptr [rsi + 111], ah
10000aaba: 72 20                       	jb	0x10000aadc <__cstring+0xf48>
10000aabc: 50                          	push	rax
10000aabd: 79 4c                       	jns	0x10000ab0b <__cstring+0xf77>
10000aabf: 69 73 74 5f 41 70 70        	imul	esi, dword ptr [rbx + 116], 1886404959
10000aac6: 65 6e                       	outsb	dx, byte ptr gs:[rsi]
10000aac8: 64 0a 00                    	or	al, byte ptr fs:[rax]
10000aacb: 50                          	push	rax
10000aacc: 79 4d                       	jns	0x10000ab1b <__cstring+0xf87>
10000aace: 61                          	<unknown>
10000aacf: 72 73                       	jb	0x10000ab44 <__cstring+0xfb0>
10000aad1: 68 61 6c 5f 52              	push	1381985377
10000aad6: 65 61                       	<unknown>
10000aad8: 64 4f 62                    	<unknown>
10000aadb: 6a 65                       	push	101
10000aadd: 63 74 46 72                 	movsxd	esi, dword ptr [rsi + 2*rax + 114]
10000aae1: 6f                          	outsd	dx, dword ptr [rsi]
10000aae2: 6d                          	insd	dword ptr es:[rdi], dx
10000aae3: 53                          	push	rbx
10000aae4: 74 72                       	je	0x10000ab58 <__cstring+0xfc4>
10000aae6: 69 6e 67 00 43 61 6e        	imul	ebp, dword ptr [rsi + 103], 1851867904
10000aaed: 6e                          	outsb	dx, byte ptr [rsi]
10000aaee: 6f                          	outsd	dx, dword ptr [rsi]
10000aaef: 74 20                       	je	0x10000ab11 <__cstring+0xf7d>
10000aaf1: 64 6c                       	insb	byte ptr es:[rdi], dx
10000aaf3: 73 79                       	jae	0x10000ab6e <__cstring+0xfda>
10000aaf5: 6d                          	insd	dword ptr es:[rdi], dx
10000aaf6: 20 66 6f                    	and	byte ptr [rsi + 111], ah
10000aaf9: 72 20                       	jb	0x10000ab1b <__cstring+0xf87>
10000aafb: 50                          	push	rax
10000aafc: 79 4d                       	jns	0x10000ab4b <__cstring+0xfb7>
10000aafe: 61                          	<unknown>
10000aaff: 72 73                       	jb	0x10000ab74 <__cstring+0xfe0>
10000ab01: 68 61 6c 5f 52              	push	1381985377
10000ab06: 65 61                       	<unknown>
10000ab08: 64 4f 62                    	<unknown>
10000ab0b: 6a 65                       	push	101
10000ab0d: 63 74 46 72                 	movsxd	esi, dword ptr [rsi + 2*rax + 114]
10000ab11: 6f                          	outsd	dx, dword ptr [rsi]
10000ab12: 6d                          	insd	dword ptr es:[rdi], dx
10000ab13: 53                          	push	rbx
10000ab14: 74 72                       	je	0x10000ab88 <__cstring+0xff4>
10000ab16: 69 6e 67 0a 00 50 79        	imul	ebp, dword ptr [rsi + 103], 2035286026
10000ab1d: 4d 65                       	gs
10000ab1f: 6d                          	insd	dword ptr es:[rdi], dx
10000ab20: 5f                          	pop	rdi
10000ab21: 52                          	push	rdx
10000ab22: 61                          	<unknown>
10000ab23: 77 46                       	ja	0x10000ab6b <__cstring+0xfd7>
10000ab25: 72 65                       	jb	0x10000ab8c <__cstring+0xff8>
10000ab27: 65 00 43 61                 	add	byte ptr gs:[rbx + 97], al
10000ab2b: 6e                          	outsb	dx, byte ptr [rsi]
10000ab2c: 6e                          	outsb	dx, byte ptr [rsi]
10000ab2d: 6f                          	outsd	dx, dword ptr [rsi]
10000ab2e: 74 20                       	je	0x10000ab50 <__cstring+0xfbc>
10000ab30: 64 6c                       	insb	byte ptr es:[rdi], dx
10000ab32: 73 79                       	jae	0x10000abad <__cstring+0x1019>
10000ab34: 6d                          	insd	dword ptr es:[rdi], dx
10000ab35: 20 66 6f                    	and	byte ptr [rsi + 111], ah
10000ab38: 72 20                       	jb	0x10000ab5a <__cstring+0xfc6>
10000ab3a: 50                          	push	rax
10000ab3b: 79 4d                       	jns	0x10000ab8a <__cstring+0xff6>
10000ab3d: 65 6d                       	insd	dword ptr es:[rdi], dx
10000ab3f: 5f                          	pop	rdi
10000ab40: 52                          	push	rdx
10000ab41: 61                          	<unknown>
10000ab42: 77 46                       	ja	0x10000ab8a <__cstring+0xff6>
10000ab44: 72 65                       	jb	0x10000abab <__cstring+0x1017>
10000ab46: 65 0a 00                    	or	al, byte ptr gs:[rax]
10000ab49: 50                          	push	rax
10000ab4a: 79 4d                       	jns	0x10000ab99 <__cstring+0x1005>
10000ab4c: 6f                          	outsd	dx, dword ptr [rsi]
10000ab4d: 64 75 6c                    	jne	0x10000abbc <__cstring+0x1028>
10000ab50: 65 5f                       	pop	rdi
10000ab52: 47 65                       	gs
10000ab54: 74 44                       	je	0x10000ab9a <__cstring+0x1006>
10000ab56: 69 63 74 00 43 61 6e        	imul	esp, dword ptr [rbx + 116], 1851867904
10000ab5d: 6e                          	outsb	dx, byte ptr [rsi]
10000ab5e: 6f                          	outsd	dx, dword ptr [rsi]
10000ab5f: 74 20                       	je	0x10000ab81 <__cstring+0xfed>
10000ab61: 64 6c                       	insb	byte ptr es:[rdi], dx
10000ab63: 73 79                       	jae	0x10000abde <__cstring+0x104a>
10000ab65: 6d                          	insd	dword ptr es:[rdi], dx
10000ab66: 20 66 6f                    	and	byte ptr [rsi + 111], ah
10000ab69: 72 20                       	jb	0x10000ab8b <__cstring+0xff7>
10000ab6b: 50                          	push	rax
10000ab6c: 79 4d                       	jns	0x10000abbb <__cstring+0x1027>
10000ab6e: 6f                          	outsd	dx, dword ptr [rsi]
10000ab6f: 64 75 6c                    	jne	0x10000abde <__cstring+0x104a>
10000ab72: 65 5f                       	pop	rdi
10000ab74: 47 65                       	gs
10000ab76: 74 44                       	je	0x10000abbc <__cstring+0x1028>
10000ab78: 69 63 74 0a 00 50 79        	imul	esp, dword ptr [rbx + 116], 2035286026
10000ab7f: 4f 62                       	<unknown>
10000ab81: 6a 65                       	push	101
10000ab83: 63 74 5f 43                 	movsxd	esi, dword ptr [rdi + 2*rbx + 67]
10000ab87: 61                          	<unknown>
10000ab88: 6c                          	insb	byte ptr es:[rdi], dx
10000ab89: 6c                          	insb	byte ptr es:[rdi], dx
10000ab8a: 46 75 6e                    	jne	0x10000abfb <__cstring+0x1067>
10000ab8d: 63 74 69 6f                 	movsxd	esi, dword ptr [rcx + 2*rbp + 111]
10000ab91: 6e                          	outsb	dx, byte ptr [rsi]
10000ab92: 00 43 61                    	add	byte ptr [rbx + 97], al
10000ab95: 6e                          	outsb	dx, byte ptr [rsi]
10000ab96: 6e                          	outsb	dx, byte ptr [rsi]
10000ab97: 6f                          	outsd	dx, dword ptr [rsi]
10000ab98: 74 20                       	je	0x10000abba <__cstring+0x1026>
10000ab9a: 64 6c                       	insb	byte ptr es:[rdi], dx
10000ab9c: 73 79                       	jae	0x10000ac17 <__cstring+0x1083>
10000ab9e: 6d                          	insd	dword ptr es:[rdi], dx
10000ab9f: 20 66 6f                    	and	byte ptr [rsi + 111], ah
10000aba2: 72 20                       	jb	0x10000abc4 <__cstring+0x1030>
10000aba4: 50                          	push	rax
10000aba5: 79 4f                       	jns	0x10000abf6 <__cstring+0x1062>
10000aba7: 62                          	<unknown>
10000aba8: 6a 65                       	push	101
10000abaa: 63 74 5f 43                 	movsxd	esi, dword ptr [rdi + 2*rbx + 67]
10000abae: 61                          	<unknown>
10000abaf: 6c                          	insb	byte ptr es:[rdi], dx
10000abb0: 6c                          	insb	byte ptr es:[rdi], dx
10000abb1: 46 75 6e                    	jne	0x10000ac22 <__cstring+0x108e>
10000abb4: 63 74 69 6f                 	movsxd	esi, dword ptr [rcx + 2*rbp + 111]
10000abb8: 6e                          	outsb	dx, byte ptr [rsi]
10000abb9: 0a 00                       	or	al, byte ptr [rax]
10000abbb: 50                          	push	rax
10000abbc: 79 4f                       	jns	0x10000ac0d <__cstring+0x1079>
10000abbe: 62                          	<unknown>
10000abbf: 6a 65                       	push	101
10000abc1: 63 74 5f 43                 	movsxd	esi, dword ptr [rdi + 2*rbx + 67]
10000abc5: 61                          	<unknown>
10000abc6: 6c                          	insb	byte ptr es:[rdi], dx
10000abc7: 6c                          	insb	byte ptr es:[rdi], dx
10000abc8: 46 75 6e                    	jne	0x10000ac39 <__cstring+0x10a5>
10000abcb: 63 74 69 6f                 	movsxd	esi, dword ptr [rcx + 2*rbp + 111]
10000abcf: 6e                          	outsb	dx, byte ptr [rsi]
10000abd0: 4f 62                       	<unknown>
10000abd2: 6a 41                       	push	65
10000abd4: 72 67                       	jb	0x10000ac3d <__cstring+0x10a9>
10000abd6: 73 00                       	jae	0x10000abd8 <__cstring+0x1044>
10000abd8: 43 61                       	<unknown>
10000abda: 6e                          	outsb	dx, byte ptr [rsi]
10000abdb: 6e                          	outsb	dx, byte ptr [rsi]
10000abdc: 6f                          	outsd	dx, dword ptr [rsi]
10000abdd: 74 20                       	je	0x10000abff <__cstring+0x106b>
10000abdf: 64 6c                       	insb	byte ptr es:[rdi], dx
10000abe1: 73 79                       	jae	0x10000ac5c <__cstring+0x10c8>
10000abe3: 6d                          	insd	dword ptr es:[rdi], dx
10000abe4: 20 66 6f                    	and	byte ptr [rsi + 111], ah
10000abe7: 72 20                       	jb	0x10000ac09 <__cstring+0x1075>
10000abe9: 50                          	push	rax
10000abea: 79 4f                       	jns	0x10000ac3b <__cstring+0x10a7>
10000abec: 62                          	<unknown>
10000abed: 6a 65                       	push	101
10000abef: 63 74 5f 43                 	movsxd	esi, dword ptr [rdi + 2*rbx + 67]
10000abf3: 61                          	<unknown>
10000abf4: 6c                          	insb	byte ptr es:[rdi], dx
10000abf5: 6c                          	insb	byte ptr es:[rdi], dx
10000abf6: 46 75 6e                    	jne	0x10000ac67 <__cstring+0x10d3>
10000abf9: 63 74 69 6f                 	movsxd	esi, dword ptr [rcx + 2*rbp + 111]
10000abfd: 6e                          	outsb	dx, byte ptr [rsi]
10000abfe: 4f 62                       	<unknown>
10000ac00: 6a 41                       	push	65
10000ac02: 72 67                       	jb	0x10000ac6b <__cstring+0x10d7>
10000ac04: 73 0a                       	jae	0x10000ac10 <__cstring+0x107c>
10000ac06: 00 50 79                    	add	byte ptr [rax + 121], dl
10000ac09: 4f 62                       	<unknown>
10000ac0b: 6a 65                       	push	101
10000ac0d: 63 74 5f 47                 	movsxd	esi, dword ptr [rdi + 2*rbx + 71]
10000ac11: 65 74 41                    	je	0x10000ac55 <__cstring+0x10c1>
10000ac14: 74 74                       	je	0x10000ac8a <__cstring+0x10f6>
10000ac16: 72 53                       	jb	0x10000ac6b <__cstring+0x10d7>
10000ac18: 74 72                       	je	0x10000ac8c <__cstring+0x10f8>
10000ac1a: 69 6e 67 00 43 61 6e        	imul	ebp, dword ptr [rsi + 103], 1851867904
10000ac21: 6e                          	outsb	dx, byte ptr [rsi]
10000ac22: 6f                          	outsd	dx, dword ptr [rsi]
10000ac23: 74 20                       	je	0x10000ac45 <__cstring+0x10b1>
10000ac25: 64 6c                       	insb	byte ptr es:[rdi], dx
10000ac27: 73 79                       	jae	0x10000aca2 <__cstring+0x110e>
10000ac29: 6d                          	insd	dword ptr es:[rdi], dx
10000ac2a: 20 66 6f                    	and	byte ptr [rsi + 111], ah
10000ac2d: 72 20                       	jb	0x10000ac4f <__cstring+0x10bb>
10000ac2f: 50                          	push	rax
10000ac30: 79 4f                       	jns	0x10000ac81 <__cstring+0x10ed>
10000ac32: 62                          	<unknown>
10000ac33: 6a 65                       	push	101
10000ac35: 63 74 5f 47                 	movsxd	esi, dword ptr [rdi + 2*rbx + 71]
10000ac39: 65 74 41                    	je	0x10000ac7d <__cstring+0x10e9>
10000ac3c: 74 74                       	je	0x10000acb2 <__cstring+0x111e>
10000ac3e: 72 53                       	jb	0x10000ac93 <__cstring+0x10ff>
10000ac40: 74 72                       	je	0x10000acb4 <__cstring+0x1120>
10000ac42: 69 6e 67 0a 00 50 79        	imul	ebp, dword ptr [rsi + 103], 2035286026
10000ac49: 4f 62                       	<unknown>
10000ac4b: 6a 65                       	push	101
10000ac4d: 63 74 5f 53                 	movsxd	esi, dword ptr [rdi + 2*rbx + 83]
10000ac51: 65 74 41                    	je	0x10000ac95 <__cstring+0x1101>
10000ac54: 74 74                       	je	0x10000acca <__cstring+0x1136>
10000ac56: 72 53                       	jb	0x10000acab <__cstring+0x1117>
10000ac58: 74 72                       	je	0x10000accc <__cstring+0x1138>
10000ac5a: 69 6e 67 00 43 61 6e        	imul	ebp, dword ptr [rsi + 103], 1851867904
10000ac61: 6e                          	outsb	dx, byte ptr [rsi]
10000ac62: 6f                          	outsd	dx, dword ptr [rsi]
10000ac63: 74 20                       	je	0x10000ac85 <__cstring+0x10f1>
10000ac65: 64 6c                       	insb	byte ptr es:[rdi], dx
10000ac67: 73 79                       	jae	0x10000ace2 <__cstring+0x114e>
10000ac69: 6d                          	insd	dword ptr es:[rdi], dx
10000ac6a: 20 66 6f                    	and	byte ptr [rsi + 111], ah
10000ac6d: 72 20                       	jb	0x10000ac8f <__cstring+0x10fb>
10000ac6f: 50                          	push	rax
10000ac70: 79 4f                       	jns	0x10000acc1 <__cstring+0x112d>
10000ac72: 62                          	<unknown>
10000ac73: 6a 65                       	push	101
10000ac75: 63 74 5f 53                 	movsxd	esi, dword ptr [rdi + 2*rbx + 83]
10000ac79: 65 74 41                    	je	0x10000acbd <__cstring+0x1129>
10000ac7c: 74 74                       	je	0x10000acf2 <__cstring+0x115e>
10000ac7e: 72 53                       	jb	0x10000acd3 <__cstring+0x113f>
10000ac80: 74 72                       	je	0x10000acf4 <__cstring+0x1160>
10000ac82: 69 6e 67 0a 00 50 79        	imul	ebp, dword ptr [rsi + 103], 2035286026
10000ac89: 4f 62                       	<unknown>
10000ac8b: 6a 65                       	push	101
10000ac8d: 63 74 5f 53                 	movsxd	esi, dword ptr [rdi + 2*rbx + 83]
10000ac91: 74 72                       	je	0x10000ad05 <__cstring+0x1171>
10000ac93: 00 43 61                    	add	byte ptr [rbx + 97], al
10000ac96: 6e                          	outsb	dx, byte ptr [rsi]
10000ac97: 6e                          	outsb	dx, byte ptr [rsi]
10000ac98: 6f                          	outsd	dx, dword ptr [rsi]
10000ac99: 74 20                       	je	0x10000acbb <__cstring+0x1127>
10000ac9b: 64 6c                       	insb	byte ptr es:[rdi], dx
10000ac9d: 73 79                       	jae	0x10000ad18 <__cstring+0x1184>
10000ac9f: 6d                          	insd	dword ptr es:[rdi], dx
10000aca0: 20 66 6f                    	and	byte ptr [rsi + 111], ah
10000aca3: 72 20                       	jb	0x10000acc5 <__cstring+0x1131>
10000aca5: 50                          	push	rax
10000aca6: 79 4f                       	jns	0x10000acf7 <__cstring+0x1163>
10000aca8: 62                          	<unknown>
10000aca9: 6a 65                       	push	101
10000acab: 63 74 5f 53                 	movsxd	esi, dword ptr [rdi + 2*rbx + 83]
10000acaf: 74 72                       	je	0x10000ad23 <__cstring+0x118f>
10000acb1: 0a 00                       	or	al, byte ptr [rax]
10000acb3: 50                          	push	rax
10000acb4: 79 50                       	jns	0x10000ad06 <__cstring+0x1172>
10000acb6: 72 65                       	jb	0x10000ad1d <__cstring+0x1189>
10000acb8: 43 6f                       	outsd	dx, dword ptr [rsi]
10000acba: 6e                          	outsb	dx, byte ptr [rsi]
10000acbb: 66 69 67 5f 49 6e           	imul	sp, word ptr [rdi + 95], 28233
10000acc1: 69 74 49 73 6f 6c 61 74     	imul	esi, dword ptr [rcx + 2*rcx + 115], 1952541807
10000acc9: 65 64 43 6f                 	outsd	dx, dword ptr fs:[rsi]
10000accd: 6e                          	outsb	dx, byte ptr [rsi]
10000acce: 66 69 67 00 43 61           	imul	sp, word ptr [rdi], 24899
10000acd4: 6e                          	outsb	dx, byte ptr [rsi]
10000acd5: 6e                          	outsb	dx, byte ptr [rsi]
10000acd6: 6f                          	outsd	dx, dword ptr [rsi]
10000acd7: 74 20                       	je	0x10000acf9 <__cstring+0x1165>
10000acd9: 64 6c                       	insb	byte ptr es:[rdi], dx
10000acdb: 73 79                       	jae	0x10000ad56 <__cstring+0x11c2>
10000acdd: 6d                          	insd	dword ptr es:[rdi], dx
10000acde: 20 66 6f                    	and	byte ptr [rsi + 111], ah
10000ace1: 72 20                       	jb	0x10000ad03 <__cstring+0x116f>
10000ace3: 50                          	push	rax
10000ace4: 79 50                       	jns	0x10000ad36 <__cstring+0x11a2>
10000ace6: 72 65                       	jb	0x10000ad4d <__cstring+0x11b9>
10000ace8: 43 6f                       	outsd	dx, dword ptr [rsi]
10000acea: 6e                          	outsb	dx, byte ptr [rsi]
10000aceb: 66 69 67 5f 49 6e           	imul	sp, word ptr [rdi + 95], 28233
10000acf1: 69 74 49 73 6f 6c 61 74     	imul	esi, dword ptr [rcx + 2*rcx + 115], 1952541807
10000acf9: 65 64 43 6f                 	outsd	dx, dword ptr fs:[rsi]
10000acfd: 6e                          	outsb	dx, byte ptr [rsi]
10000acfe: 66 69 67 0a 00 50           	imul	sp, word ptr [rdi + 10], 20480
10000ad04: 79 52                       	jns	0x10000ad58 <__cstring+0x11c4>
10000ad06: 75 6e                       	jne	0x10000ad76 <__cstring+0x11e2>
10000ad08: 5f                          	pop	rdi
10000ad09: 53                          	push	rbx
10000ad0a: 69 6d 70 6c 65 53 74        	imul	ebp, dword ptr [rbp + 112], 1951622508
10000ad11: 72 69                       	jb	0x10000ad7c <__cstring+0x11e8>
10000ad13: 6e                          	outsb	dx, byte ptr [rsi]
10000ad14: 67 46 6c                    	insb	byte ptr es:[edi], dx
10000ad17: 61                          	<unknown>
10000ad18: 67 73 00                    	addr32		jae	0x10000ad1b <__cstring+0x1187>
10000ad1b: 43 61                       	<unknown>
10000ad1d: 6e                          	outsb	dx, byte ptr [rsi]
10000ad1e: 6e                          	outsb	dx, byte ptr [rsi]
10000ad1f: 6f                          	outsd	dx, dword ptr [rsi]
10000ad20: 74 20                       	je	0x10000ad42 <__cstring+0x11ae>
10000ad22: 64 6c                       	insb	byte ptr es:[rdi], dx
10000ad24: 73 79                       	jae	0x10000ad9f <__cstring+0x120b>
10000ad26: 6d                          	insd	dword ptr es:[rdi], dx
10000ad27: 20 66 6f                    	and	byte ptr [rsi + 111], ah
10000ad2a: 72 20                       	jb	0x10000ad4c <__cstring+0x11b8>
10000ad2c: 50                          	push	rax
10000ad2d: 79 52                       	jns	0x10000ad81 <__cstring+0x11ed>
10000ad2f: 75 6e                       	jne	0x10000ad9f <__cstring+0x120b>
10000ad31: 5f                          	pop	rdi
10000ad32: 53                          	push	rbx
10000ad33: 69 6d 70 6c 65 53 74        	imul	ebp, dword ptr [rbp + 112], 1951622508
10000ad3a: 72 69                       	jb	0x10000ada5 <__cstring+0x1211>
10000ad3c: 6e                          	outsb	dx, byte ptr [rsi]
10000ad3d: 67 46 6c                    	insb	byte ptr es:[edi], dx
10000ad40: 61                          	<unknown>
10000ad41: 67 73 0a                    	addr32		jae	0x10000ad4e <__cstring+0x11ba>
10000ad44: 00 50 79                    	add	byte ptr [rax + 121], dl
10000ad47: 53                          	push	rbx
10000ad48: 74 61                       	je	0x10000adab <__cstring+0x1217>
10000ad4a: 74 75                       	je	0x10000adc1 <__cstring+0x122d>
10000ad4c: 73 5f                       	jae	0x10000adad <__cstring+0x1219>
10000ad4e: 45 78 63                    	js	0x10000adb4 <__cstring+0x1220>
10000ad51: 65 70 74                    	jo	0x10000adc8 <__cstring+0x1234>
10000ad54: 69 6f 6e 00 43 61 6e        	imul	ebp, dword ptr [rdi + 110], 1851867904
10000ad5b: 6e                          	outsb	dx, byte ptr [rsi]
10000ad5c: 6f                          	outsd	dx, dword ptr [rsi]
10000ad5d: 74 20                       	je	0x10000ad7f <__cstring+0x11eb>
10000ad5f: 64 6c                       	insb	byte ptr es:[rdi], dx
10000ad61: 73 79                       	jae	0x10000addc <__cstring+0x1248>
10000ad63: 6d                          	insd	dword ptr es:[rdi], dx
10000ad64: 20 66 6f                    	and	byte ptr [rsi + 111], ah
10000ad67: 72 20                       	jb	0x10000ad89 <__cstring+0x11f5>
10000ad69: 50                          	push	rax
10000ad6a: 79 53                       	jns	0x10000adbf <__cstring+0x122b>
10000ad6c: 74 61                       	je	0x10000adcf <__cstring+0x123b>
10000ad6e: 74 75                       	je	0x10000ade5 <__cstring+0x1251>
10000ad70: 73 5f                       	jae	0x10000add1 <__cstring+0x123d>
10000ad72: 45 78 63                    	js	0x10000add8 <__cstring+0x1244>
10000ad75: 65 70 74                    	jo	0x10000adec <__cstring+0x1258>
10000ad78: 69 6f 6e 0a 00 50 79        	imul	ebp, dword ptr [rdi + 110], 2035286026
10000ad7f: 53                          	push	rbx
10000ad80: 79 73                       	jns	0x10000adf5 <__cstring+0x1261>
10000ad82: 5f                          	pop	rdi
10000ad83: 47 65                       	gs
10000ad85: 74 4f                       	je	0x10000add6 <__cstring+0x1242>
10000ad87: 62                          	<unknown>
10000ad88: 6a 65                       	push	101
10000ad8a: 63 74 00 43                 	movsxd	esi, dword ptr [rax + rax + 67]
10000ad8e: 61                          	<unknown>
10000ad8f: 6e                          	outsb	dx, byte ptr [rsi]
10000ad90: 6e                          	outsb	dx, byte ptr [rsi]
10000ad91: 6f                          	outsd	dx, dword ptr [rsi]
10000ad92: 74 20                       	je	0x10000adb4 <__cstring+0x1220>
10000ad94: 64 6c                       	insb	byte ptr es:[rdi], dx
10000ad96: 73 79                       	jae	0x10000ae11 <__cstring+0x127d>
10000ad98: 6d                          	insd	dword ptr es:[rdi], dx
10000ad99: 20 66 6f                    	and	byte ptr [rsi + 111], ah
10000ad9c: 72 20                       	jb	0x10000adbe <__cstring+0x122a>
10000ad9e: 50                          	push	rax
10000ad9f: 79 53                       	jns	0x10000adf4 <__cstring+0x1260>
10000ada1: 79 73                       	jns	0x10000ae16 <__cstring+0x1282>
10000ada3: 5f                          	pop	rdi
10000ada4: 47 65                       	gs
10000ada6: 74 4f                       	je	0x10000adf7 <__cstring+0x1263>
10000ada8: 62                          	<unknown>
10000ada9: 6a 65                       	push	101
10000adab: 63 74 0a 00                 	movsxd	esi, dword ptr [rdx + rcx]
10000adaf: 50                          	push	rax
10000adb0: 79 53                       	jns	0x10000ae05 <__cstring+0x1271>
10000adb2: 79 73                       	jns	0x10000ae27 <__cstring+0x1293>
10000adb4: 5f                          	pop	rdi
10000adb5: 53                          	push	rbx
10000adb6: 65 74 4f                    	je	0x10000ae08 <__cstring+0x1274>
10000adb9: 62                          	<unknown>
10000adba: 6a 65                       	push	101
10000adbc: 63 74 00 43                 	movsxd	esi, dword ptr [rax + rax + 67]
10000adc0: 61                          	<unknown>
10000adc1: 6e                          	outsb	dx, byte ptr [rsi]
10000adc2: 6e                          	outsb	dx, byte ptr [rsi]
10000adc3: 6f                          	outsd	dx, dword ptr [rsi]
10000adc4: 74 20                       	je	0x10000ade6 <__cstring+0x1252>
10000adc6: 64 6c                       	insb	byte ptr es:[rdi], dx
10000adc8: 73 79                       	jae	0x10000ae43 <__cstring+0x12af>
10000adca: 6d                          	insd	dword ptr es:[rdi], dx
10000adcb: 20 66 6f                    	and	byte ptr [rsi + 111], ah
10000adce: 72 20                       	jb	0x10000adf0 <__cstring+0x125c>
10000add0: 50                          	push	rax
10000add1: 79 53                       	jns	0x10000ae26 <__cstring+0x1292>
10000add3: 79 73                       	jns	0x10000ae48 <__cstring+0x12b4>
10000add5: 5f                          	pop	rdi
10000add6: 53                          	push	rbx
10000add7: 65 74 4f                    	je	0x10000ae29 <__cstring+0x1295>
10000adda: 62                          	<unknown>
10000addb: 6a 65                       	push	101
10000addd: 63 74 0a 00                 	movsxd	esi, dword ptr [rdx + rcx]
10000ade1: 50                          	push	rax
10000ade2: 79 55                       	jns	0x10000ae39 <__cstring+0x12a5>
10000ade4: 6e                          	outsb	dx, byte ptr [rsi]
10000ade5: 69 63 6f 64 65 5f 41        	imul	esp, dword ptr [rbx + 111], 1096770916
10000adec: 73 55                       	jae	0x10000ae43 <__cstring+0x12af>
10000adee: 54                          	push	rsp
10000adef: 46 38 00                    	cmp	byte ptr [rax], r8b
10000adf2: 43 61                       	<unknown>
10000adf4: 6e                          	outsb	dx, byte ptr [rsi]
10000adf5: 6e                          	outsb	dx, byte ptr [rsi]
10000adf6: 6f                          	outsd	dx, dword ptr [rsi]
10000adf7: 74 20                       	je	0x10000ae19 <__cstring+0x1285>
10000adf9: 64 6c                       	insb	byte ptr es:[rdi], dx
10000adfb: 73 79                       	jae	0x10000ae76 <__cstring+0x12e2>
10000adfd: 6d                          	insd	dword ptr es:[rdi], dx
10000adfe: 20 66 6f                    	and	byte ptr [rsi + 111], ah
10000ae01: 72 20                       	jb	0x10000ae23 <__cstring+0x128f>
10000ae03: 50                          	push	rax
10000ae04: 79 55                       	jns	0x10000ae5b <__cstring+0x12c7>
10000ae06: 6e                          	outsb	dx, byte ptr [rsi]
10000ae07: 69 63 6f 64 65 5f 41        	imul	esp, dword ptr [rbx + 111], 1096770916
10000ae0e: 73 55                       	jae	0x10000ae65 <__cstring+0x12d1>
10000ae10: 54                          	push	rsp
10000ae11: 46 38 0a                    	cmp	byte ptr [rdx], r9b
10000ae14: 00 50 79                    	add	byte ptr [rax + 121], dl
10000ae17: 55                          	push	rbp
10000ae18: 6e                          	outsb	dx, byte ptr [rsi]
10000ae19: 69 63 6f 64 65 5f 44        	imul	esp, dword ptr [rbx + 111], 1147102564
10000ae20: 65 63 6f 64                 	movsxd	ebp, dword ptr gs:[rdi + 100]
10000ae24: 65 00 43 61                 	add	byte ptr gs:[rbx + 97], al
10000ae28: 6e                          	outsb	dx, byte ptr [rsi]
10000ae29: 6e                          	outsb	dx, byte ptr [rsi]
10000ae2a: 6f                          	outsd	dx, dword ptr [rsi]
10000ae2b: 74 20                       	je	0x10000ae4d <__cstring+0x12b9>
10000ae2d: 64 6c                       	insb	byte ptr es:[rdi], dx
10000ae2f: 73 79                       	jae	0x10000aeaa <__cstring+0x1316>
10000ae31: 6d                          	insd	dword ptr es:[rdi], dx
10000ae32: 20 66 6f                    	and	byte ptr [rsi + 111], ah
10000ae35: 72 20                       	jb	0x10000ae57 <__cstring+0x12c3>
10000ae37: 50                          	push	rax
10000ae38: 79 55                       	jns	0x10000ae8f <__cstring+0x12fb>
10000ae3a: 6e                          	outsb	dx, byte ptr [rsi]
10000ae3b: 69 63 6f 64 65 5f 44        	imul	esp, dword ptr [rbx + 111], 1147102564
10000ae42: 65 63 6f 64                 	movsxd	ebp, dword ptr gs:[rdi + 100]
10000ae46: 65 0a 00                    	or	al, byte ptr gs:[rax]
10000ae49: 50                          	push	rax
10000ae4a: 79 55                       	jns	0x10000aea1 <__cstring+0x130d>
10000ae4c: 6e                          	outsb	dx, byte ptr [rsi]
10000ae4d: 69 63 6f 64 65 5f 44        	imul	esp, dword ptr [rbx + 111], 1147102564
10000ae54: 65 63 6f 64                 	movsxd	ebp, dword ptr gs:[rdi + 100]
10000ae58: 65 46 53                    	push	rbx
10000ae5b: 44 65                       	gs
10000ae5d: 66 61                       	<unknown>
10000ae5f: 75 6c                       	jne	0x10000aecd <__cstring+0x1339>
10000ae61: 74 00                       	je	0x10000ae63 <__cstring+0x12cf>
10000ae63: 43 61                       	<unknown>
10000ae65: 6e                          	outsb	dx, byte ptr [rsi]
10000ae66: 6e                          	outsb	dx, byte ptr [rsi]
10000ae67: 6f                          	outsd	dx, dword ptr [rsi]
10000ae68: 74 20                       	je	0x10000ae8a <__cstring+0x12f6>
10000ae6a: 64 6c                       	insb	byte ptr es:[rdi], dx
10000ae6c: 73 79                       	jae	0x10000aee7 <__cstring+0x1353>
10000ae6e: 6d                          	insd	dword ptr es:[rdi], dx
10000ae6f: 20 66 6f                    	and	byte ptr [rsi + 111], ah
10000ae72: 72 20                       	jb	0x10000ae94 <__cstring+0x1300>
10000ae74: 50                          	push	rax
10000ae75: 79 55                       	jns	0x10000aecc <__cstring+0x1338>
10000ae77: 6e                          	outsb	dx, byte ptr [rsi]
10000ae78: 69 63 6f 64 65 5f 44        	imul	esp, dword ptr [rbx + 111], 1147102564
10000ae7f: 65 63 6f 64                 	movsxd	ebp, dword ptr gs:[rdi + 100]
10000ae83: 65 46 53                    	push	rbx
10000ae86: 44 65                       	gs
10000ae88: 66 61                       	<unknown>
10000ae8a: 75 6c                       	jne	0x10000aef8 <__cstring+0x1364>
10000ae8c: 74 0a                       	je	0x10000ae98 <__cstring+0x1304>
10000ae8e: 00 50 79                    	add	byte ptr [rax + 121], dl
10000ae91: 55                          	push	rbp
10000ae92: 6e                          	outsb	dx, byte ptr [rsi]
10000ae93: 69 63 6f 64 65 5f 46        	imul	esp, dword ptr [rbx + 111], 1180656996
10000ae9a: 72 6f                       	jb	0x10000af0b <__cstring+0x1377>
10000ae9c: 6d                          	insd	dword ptr es:[rdi], dx
10000ae9d: 46 6f                       	outsd	dx, dword ptr [rsi]
10000ae9f: 72 6d                       	jb	0x10000af0e <__cstring+0x137a>
10000aea1: 61                          	<unknown>
10000aea2: 74 00                       	je	0x10000aea4 <__cstring+0x1310>
10000aea4: 43 61                       	<unknown>
10000aea6: 6e                          	outsb	dx, byte ptr [rsi]
10000aea7: 6e                          	outsb	dx, byte ptr [rsi]
10000aea8: 6f                          	outsd	dx, dword ptr [rsi]
10000aea9: 74 20                       	je	0x10000aecb <__cstring+0x1337>
10000aeab: 64 6c                       	insb	byte ptr es:[rdi], dx
10000aead: 73 79                       	jae	0x10000af28 <__cstring+0x1394>
10000aeaf: 6d                          	insd	dword ptr es:[rdi], dx
10000aeb0: 20 66 6f                    	and	byte ptr [rsi + 111], ah
10000aeb3: 72 20                       	jb	0x10000aed5 <__cstring+0x1341>
10000aeb5: 50                          	push	rax
10000aeb6: 79 55                       	jns	0x10000af0d <__cstring+0x1379>
10000aeb8: 6e                          	outsb	dx, byte ptr [rsi]
10000aeb9: 69 63 6f 64 65 5f 46        	imul	esp, dword ptr [rbx + 111], 1180656996
10000aec0: 72 6f                       	jb	0x10000af31 <__cstring+0x139d>
10000aec2: 6d                          	insd	dword ptr es:[rdi], dx
10000aec3: 46 6f                       	outsd	dx, dword ptr [rsi]
10000aec5: 72 6d                       	jb	0x10000af34 <__cstring+0x13a0>
10000aec7: 61                          	<unknown>
10000aec8: 74 0a                       	je	0x10000aed4 <__cstring+0x1340>
10000aeca: 00 50 79                    	add	byte ptr [rax + 121], dl
10000aecd: 55                          	push	rbp
10000aece: 6e                          	outsb	dx, byte ptr [rsi]
10000aecf: 69 63 6f 64 65 5f 46        	imul	esp, dword ptr [rbx + 111], 1180656996
10000aed6: 72 6f                       	jb	0x10000af47 <__cstring+0x13b3>
10000aed8: 6d                          	insd	dword ptr es:[rdi], dx
10000aed9: 53                          	push	rbx
10000aeda: 74 72                       	je	0x10000af4e <__cstring+0x13ba>
10000aedc: 69 6e 67 00 43 61 6e        	imul	ebp, dword ptr [rsi + 103], 1851867904
10000aee3: 6e                          	outsb	dx, byte ptr [rsi]
10000aee4: 6f                          	outsd	dx, dword ptr [rsi]
10000aee5: 74 20                       	je	0x10000af07 <__cstring+0x1373>
10000aee7: 64 6c                       	insb	byte ptr es:[rdi], dx
10000aee9: 73 79                       	jae	0x10000af64 <__cstring+0x13d0>
10000aeeb: 6d                          	insd	dword ptr es:[rdi], dx
10000aeec: 20 66 6f                    	and	byte ptr [rsi + 111], ah
10000aeef: 72 20                       	jb	0x10000af11 <__cstring+0x137d>
10000aef1: 50                          	push	rax
10000aef2: 79 55                       	jns	0x10000af49 <__cstring+0x13b5>
10000aef4: 6e                          	outsb	dx, byte ptr [rsi]
10000aef5: 69 63 6f 64 65 5f 46        	imul	esp, dword ptr [rbx + 111], 1180656996
10000aefc: 72 6f                       	jb	0x10000af6d <__cstring+0x13d9>
10000aefe: 6d                          	insd	dword ptr es:[rdi], dx
10000aeff: 53                          	push	rbx
10000af00: 74 72                       	je	0x10000af74 <__cstring+0x13e0>
10000af02: 69 6e 67 0a 00 50 79        	imul	ebp, dword ptr [rsi + 103], 2035286026
10000af09: 55                          	push	rbp
10000af0a: 6e                          	outsb	dx, byte ptr [rsi]
10000af0b: 69 63 6f 64 65 5f 4a        	imul	esp, dword ptr [rbx + 111], 1247765860
10000af12: 6f                          	outsd	dx, dword ptr [rsi]
10000af13: 69 6e 00 43 61 6e 6e        	imul	ebp, dword ptr [rsi], 1852727619
10000af1a: 6f                          	outsd	dx, dword ptr [rsi]
10000af1b: 74 20                       	je	0x10000af3d <__cstring+0x13a9>
10000af1d: 64 6c                       	insb	byte ptr es:[rdi], dx
10000af1f: 73 79                       	jae	0x10000af9a <__cstring+0x1406>
10000af21: 6d                          	insd	dword ptr es:[rdi], dx
10000af22: 20 66 6f                    	and	byte ptr [rsi + 111], ah
10000af25: 72 20                       	jb	0x10000af47 <__cstring+0x13b3>
10000af27: 50                          	push	rax
10000af28: 79 55                       	jns	0x10000af7f <__cstring+0x13eb>
10000af2a: 6e                          	outsb	dx, byte ptr [rsi]
10000af2b: 69 63 6f 64 65 5f 4a        	imul	esp, dword ptr [rbx + 111], 1247765860
10000af32: 6f                          	outsd	dx, dword ptr [rsi]
10000af33: 69 6e 0a 00 50 79 55        	imul	ebp, dword ptr [rsi + 10], 1434013696
10000af3a: 6e                          	outsb	dx, byte ptr [rsi]
10000af3b: 69 63 6f 64 65 5f 52        	imul	esp, dword ptr [rbx + 111], 1381983588
10000af42: 65 70 6c                    	jo	0x10000afb1 <__cstring+0x141d>
10000af45: 61                          	<unknown>
10000af46: 63 65 00                    	movsxd	esp, dword ptr [rbp]
10000af49: 43 61                       	<unknown>
10000af4b: 6e                          	outsb	dx, byte ptr [rsi]
10000af4c: 6e                          	outsb	dx, byte ptr [rsi]
10000af4d: 6f                          	outsd	dx, dword ptr [rsi]
10000af4e: 74 20                       	je	0x10000af70 <__cstring+0x13dc>
10000af50: 64 6c                       	insb	byte ptr es:[rdi], dx
10000af52: 73 79                       	jae	0x10000afcd <__cstring+0x1439>
10000af54: 6d                          	insd	dword ptr es:[rdi], dx
10000af55: 20 66 6f                    	and	byte ptr [rsi + 111], ah
10000af58: 72 20                       	jb	0x10000af7a <__cstring+0x13e6>
10000af5a: 50                          	push	rax
10000af5b: 79 55                       	jns	0x10000afb2 <__cstring+0x141e>
10000af5d: 6e                          	outsb	dx, byte ptr [rsi]
10000af5e: 69 63 6f 64 65 5f 52        	imul	esp, dword ptr [rbx + 111], 1381983588
10000af65: 65 70 6c                    	jo	0x10000afd4 <__cstring+0x1440>
10000af68: 61                          	<unknown>
10000af69: 63 65 0a                    	movsxd	esp, dword ptr [rbp + 10]
10000af6c: 00 52 65                    	add	byte ptr [rdx + 101], dl
10000af6f: 70 6f                       	jo	0x10000afe0 <__cstring+0x144c>
10000af71: 72 74                       	jb	0x10000afe7 <__cstring+0x1453>
10000af73: 65 64 20 6c 65 6e           	and	byte ptr fs:[rbp + 2*riz + 110], ch
10000af79: 67 74 68                    	addr32		je	0x10000afe4 <__cstring+0x1450>
10000af7c: 20 28                       	and	byte ptr [rax], ch
10000af7e: 25 64 29 20 6f              	and	eax, 1864378724
10000af83: 66 20 50 79                 	and	byte ptr [rax + 121], dl
10000af87: 74 68                       	je	0x10000aff1 <__cstring+0x145d>
10000af89: 6f                          	outsd	dx, dword ptr [rsi]
10000af8a: 6e                          	outsb	dx, byte ptr [rsi]
10000af8b: 20 73 68                    	and	byte ptr [rbx + 104], dh
10000af8e: 61                          	<unknown>
10000af8f: 72 65                       	jb	0x10000aff6 <__cstring+0x1462>
10000af91: 64 20 6c 69 62              	and	byte ptr fs:[rcx + 2*rbp + 98], ch
10000af96: 72 61                       	jb	0x10000aff9 <__cstring+0x1465>
10000af98: 72 79                       	jb	0x10000b013 <__cstring+0x147f>
10000af9a: 20 6e 61                    	and	byte ptr [rsi + 97], ch
10000af9d: 6d                          	insd	dword ptr es:[rdi], dx
10000af9e: 65 20 28                    	and	byte ptr gs:[rax], ch
10000afa1: 25 73 29 20 65              	and	eax, 1696606579
10000afa6: 78 63                       	js	0x10000b00b <__cstring+0x1477>
10000afa8: 65 65 64 73 20              	jae	0x10000afcd <__cstring+0x1439>
10000afad: 62 75 66 66 65              	<unknown>
10000afb2: 72 20                       	jb	0x10000afd4 <__cstring+0x1440>
10000afb4: 73 69                       	jae	0x10000b01f <__cstring+0x148b>
10000afb6: 7a 65                       	jp	0x10000b01d <__cstring+0x1489>
10000afb8: 20 28                       	and	byte ptr [rax], ch
10000afba: 25 64 29 0a 00              	and	eax, 665956
10000afbf: 50                          	push	rax
10000afc0: 61                          	<unknown>
10000afc1: 74 68                       	je	0x10000b02b <__cstring+0x1497>
10000afc3: 20 6f 66                    	and	byte ptr [rdi + 102], ch
10000afc6: 20 50 79                    	and	byte ptr [rax + 121], dl
10000afc9: 74 68                       	je	0x10000b033 <__cstring+0x149f>
10000afcb: 6f                          	outsd	dx, dword ptr [rsi]
10000afcc: 6e                          	outsb	dx, byte ptr [rsi]
10000afcd: 20 73 68                    	and	byte ptr [rbx + 104], dh
10000afd0: 61                          	<unknown>
10000afd1: 72 65                       	jb	0x10000b038 <__cstring+0x14a4>
10000afd3: 64 20 6c 69 62              	and	byte ptr fs:[rcx + 2*rbp + 98], ch
10000afd8: 72 61                       	jb	0x10000b03b <__cstring+0x14a7>
10000afda: 72 79                       	jb	0x10000b055 <__cstring+0x14c1>
10000afdc: 20 28                       	and	byte ptr [rax], ch
10000afde: 25 73 29 20 61              	and	eax, 1629497715
10000afe3: 6e                          	outsb	dx, byte ptr [rsi]
10000afe4: 64 20 69 74                 	and	byte ptr fs:[rcx + 116], ch
10000afe8: 73 20                       	jae	0x10000b00a <__cstring+0x1476>
10000afea: 6e                          	outsb	dx, byte ptr [rsi]
10000afeb: 61                          	<unknown>
10000afec: 6d                          	insd	dword ptr es:[rdi], dx
10000afed: 65 20 28                    	and	byte ptr gs:[rax], ch
10000aff0: 25 73 29 20 65              	and	eax, 1696606579
10000aff5: 78 63                       	js	0x10000b05a <__cstring+0x14c6>
10000aff7: 65 65 64 20 62 75           	and	byte ptr fs:[rdx + 117], ah
10000affd: 66 66 65 72 20              	jb	0x10000b022 <__cstring+0x148e>
10000b002: 73 69                       	jae	0x10000b06d <__cstring+0x14d9>
10000b004: 7a 65                       	jp	0x10000b06b <__cstring+0x14d7>
10000b006: 20 28                       	and	byte ptr [rax], ch
10000b008: 25 64 29 0a 00              	and	eax, 665956
10000b00d: 46 61                       	<unknown>
10000b00f: 69 6c 65 64 20 74 6f 20     	imul	ebp, dword ptr [rbp + 2*riz + 100], 544175136
10000b017: 6c                          	insb	byte ptr es:[rdi], dx
10000b018: 6f                          	outsd	dx, dword ptr [rsi]
10000b019: 61                          	<unknown>
10000b01a: 64 20 50 79                 	and	byte ptr fs:[rax + 121], dl
10000b01e: 74 68                       	je	0x10000b088 <__cstring+0x14f4>
10000b020: 6f                          	outsd	dx, dword ptr [rsi]
10000b021: 6e                          	outsb	dx, byte ptr [rsi]
10000b022: 20 73 68                    	and	byte ptr [rbx + 104], dh
10000b025: 61                          	<unknown>
10000b026: 72 65                       	jb	0x10000b08d <__cstring+0x14f9>
10000b028: 64 20 6c 69 62              	and	byte ptr fs:[rcx + 2*rbp + 98], ch
10000b02d: 72 61                       	jb	0x10000b090 <__cstring+0x14fc>
10000b02f: 72 79                       	jb	0x10000b0aa <__cstring+0x1516>
10000b031: 20 27                       	and	byte ptr [rdi], ah
10000b033: 25 73 27 3a 20              	and	eax, 540682099
10000b038: 64 6c                       	insb	byte ptr es:[rdi], dx
10000b03a: 6f                          	outsd	dx, dword ptr [rsi]
10000b03b: 70 65                       	jo	0x10000b0a2 <__cstring+0x150e>
10000b03d: 6e                          	outsb	dx, byte ptr [rsi]
10000b03e: 3a 20                       	cmp	ah, byte ptr [rax]
10000b040: 25 73 0a 00 46              	and	eax, 1174407795
10000b045: 61                          	<unknown>
10000b046: 69 6c 65 64 20 74 6f 20     	imul	ebp, dword ptr [rbp + 2*riz + 100], 544175136
10000b04e: 70 61                       	jo	0x10000b0b1 <__cstring+0x151d>
10000b050: 72 73                       	jb	0x10000b0c5 <__cstring+0x1531>
10000b052: 65 20 72 75                 	and	byte ptr gs:[rdx + 117], dh
10000b056: 6e                          	outsb	dx, byte ptr [rsi]
10000b057: 2d 74 69 6d 65              	sub	eax, 1701669236
10000b05c: 20 6f 70                    	and	byte ptr [rdi + 112], ch
10000b05f: 74 69                       	je	0x10000b0ca <__cstring+0x1536>
10000b061: 6f                          	outsd	dx, dword ptr [rsi]
10000b062: 6e                          	outsb	dx, byte ptr [rsi]
10000b063: 73 21                       	jae	0x10000b086 <__cstring+0x14f2>
10000b065: 0a 00                       	or	al, byte ptr [rax]
10000b067: 46 61                       	<unknown>
10000b069: 69 6c 65 64 20 74 6f 20     	imul	ebp, dword ptr [rbp + 2*riz + 100], 544175136
10000b071: 70 72                       	jo	0x10000b0e5 <__cstring+0x1551>
10000b073: 65 2d 69 6e 69 74           	sub	eax, 1953066601
10000b079: 69 61 6c 69 7a 65 20        	imul	esp, dword ptr [rcx + 108], 543521385
10000b080: 65 6d                       	insd	dword ptr es:[rdi], dx
10000b082: 62 65 64 64 65              	<unknown>
10000b087: 64 20 70 79                 	and	byte ptr fs:[rax + 121], dh
10000b08b: 74 68                       	je	0x10000b0f5 <__cstring+0x1561>
10000b08d: 6f                          	outsd	dx, dword ptr [rsi]
10000b08e: 6e                          	outsb	dx, byte ptr [rsi]
10000b08f: 20 69 6e                    	and	byte ptr [rcx + 110], ch
10000b092: 74 65                       	je	0x10000b0f9 <__cstring+0x1565>
10000b094: 72 70                       	jb	0x10000b106 <__cstring+0x1572>
10000b096: 72 65                       	jb	0x10000b0fd <__cstring+0x1569>
10000b098: 74 65                       	je	0x10000b0ff <__cstring+0x156b>
10000b09a: 72 21                       	jb	0x10000b0bd <__cstring+0x1529>
10000b09c: 0a 00                       	or	al, byte ptr [rax]
10000b09e: 46 61                       	<unknown>
10000b0a0: 69 6c 65 64 20 74 6f 20     	imul	ebp, dword ptr [rbp + 2*riz + 100], 544175136
10000b0a8: 61                          	<unknown>
10000b0a9: 6c                          	insb	byte ptr es:[rdi], dx
10000b0aa: 6c                          	insb	byte ptr es:[rdi], dx
10000b0ab: 6f                          	outsd	dx, dword ptr [rsi]
10000b0ac: 63 61 74                    	movsxd	esp, dword ptr [rcx + 116]
10000b0af: 65 20 50 79                 	and	byte ptr gs:[rax + 121], dl
10000b0b3: 43 6f                       	outsd	dx, dword ptr [rsi]
10000b0b5: 6e                          	outsb	dx, byte ptr [rsi]
10000b0b6: 66 69 67 20 73 74           	imul	sp, word ptr [rdi + 32], 29811
10000b0bc: 72 75                       	jb	0x10000b133 <__cstring+0x159f>
10000b0be: 63 74 75 72                 	movsxd	esi, dword ptr [rbp + 2*rsi + 114]
10000b0c2: 65 21 20                    	and	dword ptr gs:[rax], esp
10000b0c5: 55                          	push	rbp
10000b0c6: 6e                          	outsb	dx, byte ptr [rsi]
10000b0c7: 73 75                       	jae	0x10000b13e <__cstring+0x15aa>
10000b0c9: 70 70                       	jo	0x10000b13b <__cstring+0x15a7>
10000b0cb: 6f                          	outsd	dx, dword ptr [rsi]
10000b0cc: 72 74                       	jb	0x10000b142 <__cstring+0x15ae>
10000b0ce: 65 64 20 70 79              	and	byte ptr fs:[rax + 121], dh
10000b0d3: 74 68                       	je	0x10000b13d <__cstring+0x15a9>
10000b0d5: 6f                          	outsd	dx, dword ptr [rsi]
10000b0d6: 6e                          	outsb	dx, byte ptr [rsi]
10000b0d7: 20 76 65                    	and	byte ptr [rsi + 101], dh
10000b0da: 72 73                       	jb	0x10000b14f <__cstring+0x15bb>
10000b0dc: 69 6f 6e 3f 0a 00 46        	imul	ebp, dword ptr [rdi + 110], 1174407743
10000b0e3: 61                          	<unknown>
10000b0e4: 69 6c 65 64 20 74 6f 20     	imul	ebp, dword ptr [rbp + 2*riz + 100], 544175136
10000b0ec: 73 65                       	jae	0x10000b153 <__cstring+0x15bf>
10000b0ee: 74 20                       	je	0x10000b110 <__cstring+0x157c>
10000b0f0: 70 72                       	jo	0x10000b164 <__cstring+0x15d0>
10000b0f2: 6f                          	outsd	dx, dword ptr [rsi]
10000b0f3: 67 72 61                    	addr32		jb	0x10000b157 <__cstring+0x15c3>
10000b0f6: 6d                          	insd	dword ptr es:[rdi], dx
10000b0f7: 20 6e 61                    	and	byte ptr [rsi + 97], ch
10000b0fa: 6d                          	insd	dword ptr es:[rdi], dx
10000b0fb: 65 21 0a                    	and	dword ptr gs:[rdx], ecx
10000b0fe: 00 46 61                    	add	byte ptr [rsi + 97], al
10000b101: 69 6c 65 64 20 74 6f 20     	imul	ebp, dword ptr [rbp + 2*riz + 100], 544175136
10000b109: 73 65                       	jae	0x10000b170 <__cstring+0x15dc>
10000b10b: 74 20                       	je	0x10000b12d <__cstring+0x1599>
10000b10d: 70 79                       	jo	0x10000b188 <__cstring+0x15f4>
10000b10f: 74 68                       	je	0x10000b179 <__cstring+0x15e5>
10000b111: 6f                          	outsd	dx, dword ptr [rsi]
10000b112: 6e                          	outsb	dx, byte ptr [rsi]
10000b113: 20 68 6f                    	and	byte ptr [rax + 111], ch
10000b116: 6d                          	insd	dword ptr es:[rdi], dx
10000b117: 65 20 70 61                 	and	byte ptr gs:[rax + 97], dh
10000b11b: 74 68                       	je	0x10000b185 <__cstring+0x15f1>
10000b11d: 21 0a                       	and	dword ptr [rdx], ecx
10000b11f: 00 46 61                    	add	byte ptr [rsi + 97], al
10000b122: 69 6c 65 64 20 74 6f 20     	imul	ebp, dword ptr [rbp + 2*riz + 100], 544175136
10000b12a: 73 65                       	jae	0x10000b191 <__cstring+0x15fd>
10000b12c: 74 20                       	je	0x10000b14e <__cstring+0x15ba>
10000b12e: 6d                          	insd	dword ptr es:[rdi], dx
10000b12f: 6f                          	outsd	dx, dword ptr [rsi]
10000b130: 64 75 6c                    	jne	0x10000b19f <__cstring+0x160b>
10000b133: 65 20 73 65                 	and	byte ptr gs:[rbx + 101], dh
10000b137: 61                          	<unknown>
10000b138: 72 63                       	jb	0x10000b19d <__cstring+0x1609>
10000b13a: 68 20 70 61 74              	push	1952542752
10000b13f: 68 73 21 0a 00              	push	663923
10000b144: 46 61                       	<unknown>
10000b146: 69 6c 65 64 20 74 6f 20     	imul	ebp, dword ptr [rbp + 2*riz + 100], 544175136
10000b14e: 73 65                       	jae	0x10000b1b5 <__cstring+0x1621>
10000b150: 74 20                       	je	0x10000b172 <__cstring+0x15de>
10000b152: 73 79                       	jae	0x10000b1cd <__cstring+0x1639>
10000b154: 73 2e                       	jae	0x10000b184 <__cstring+0x15f0>
10000b156: 61                          	<unknown>
10000b157: 72 67                       	jb	0x10000b1c0 <__cstring+0x162c>
10000b159: 76 21                       	jbe	0x10000b17c <__cstring+0x15e8>
10000b15b: 0a 00                       	or	al, byte ptr [rax]
10000b15d: 46 61                       	<unknown>
10000b15f: 69 6c 65 64 20 74 6f 20     	imul	ebp, dword ptr [rbp + 2*riz + 100], 544175136
10000b167: 73 65                       	jae	0x10000b1ce <__cstring+0x163a>
10000b169: 74 20                       	je	0x10000b18b <__cstring+0x15f7>
10000b16b: 72 75                       	jb	0x10000b1e2 <__cstring+0x164e>
10000b16d: 6e                          	outsb	dx, byte ptr [rsi]
10000b16e: 2d 74 69 6d 65              	sub	eax, 1701669236
10000b173: 20 6f 70                    	and	byte ptr [rdi + 112], ch
10000b176: 74 69                       	je	0x10000b1e1 <__cstring+0x164d>
10000b178: 6f                          	outsd	dx, dword ptr [rsi]
10000b179: 6e                          	outsb	dx, byte ptr [rsi]
10000b17a: 73 21                       	jae	0x10000b19d <__cstring+0x1609>
10000b17c: 0a 00                       	or	al, byte ptr [rax]
10000b17e: 46 61                       	<unknown>
10000b180: 69 6c 65 64 20 74 6f 20     	imul	ebp, dword ptr [rbp + 2*riz + 100], 544175136
10000b188: 73 74                       	jae	0x10000b1fe <__cstring+0x166a>
10000b18a: 61                          	<unknown>
10000b18b: 72 74                       	jb	0x10000b201 <__cstring+0x166d>
10000b18d: 20 65 6d                    	and	byte ptr [rbp + 109], ah
10000b190: 62 65 64 64 65              	<unknown>
10000b195: 64 20 70 79                 	and	byte ptr fs:[rax + 121], dh
10000b199: 74 68                       	je	0x10000b203 <__cstring+0x166f>
10000b19b: 6f                          	outsd	dx, dword ptr [rsi]
10000b19c: 6e                          	outsb	dx, byte ptr [rsi]
10000b19d: 20 69 6e                    	and	byte ptr [rcx + 110], ch
10000b1a0: 74 65                       	je	0x10000b207 <__cstring+0x1673>
10000b1a2: 72 70                       	jb	0x10000b214 <__cstring+0x1680>
10000b1a4: 72 65                       	jb	0x10000b20b <__cstring+0x1677>
10000b1a6: 74 65                       	je	0x10000b20d <__cstring+0x1679>
10000b1a8: 72 21                       	jb	0x10000b1cb <__cstring+0x1637>
10000b1aa: 0a 00                       	or	al, byte ptr [rax]
10000b1ac: 46 61                       	<unknown>
10000b1ae: 69 6c 65 64 20 74 6f 20     	imul	ebp, dword ptr [rbp + 2*riz + 100], 544175136
10000b1b6: 67 65 74 20                 	addr32		je	0x10000b1da <__cstring+0x1646>
10000b1ba: 5f                          	pop	rdi
10000b1bb: 4d 45                       	<unknown>
10000b1bd: 49 50                       	push	r8
10000b1bf: 41 53                       	push	r11
10000b1c1: 53                          	push	rbx
10000b1c2: 20 61 73                    	and	byte ptr [rcx + 115], ah
10000b1c5: 20 50 79                    	and	byte ptr [rax + 121], dl
10000b1c8: 4f 62                       	<unknown>
10000b1ca: 6a 65                       	push	101
10000b1cc: 63 74 2e 0a                 	movsxd	esi, dword ptr [rsi + rbp + 10]
10000b1d0: 00 5f 4d                    	add	byte ptr [rdi + 77], bl
10000b1d3: 45 49                       	<unknown>
10000b1d5: 50                          	push	rax
10000b1d6: 41 53                       	push	r11
10000b1d8: 53                          	push	rbx
10000b1d9: 00 46 61                    	add	byte ptr [rsi + 97], al
10000b1dc: 69 6c 65 64 20 74 6f 20     	imul	ebp, dword ptr [rbp + 2*riz + 100], 544175136
10000b1e4: 75 6e                       	jne	0x10000b254 <__cstring+0x16c0>
10000b1e6: 6d                          	insd	dword ptr es:[rdi], dx
10000b1e7: 61                          	<unknown>
10000b1e8: 72 73                       	jb	0x10000b25d <__cstring+0x16c9>
10000b1ea: 68 61 6c 20 63              	push	1663069281
10000b1ef: 6f                          	outsd	dx, dword ptr [rsi]
10000b1f0: 64 65 20 6f 62              	and	byte ptr gs:[rdi + 98], ch
10000b1f5: 6a 65                       	push	101
10000b1f7: 63 74 20 66                 	movsxd	esi, dword ptr [rax + riz + 102]
10000b1fb: 6f                          	outsd	dx, dword ptr [rsi]
10000b1fc: 72 20                       	jb	0x10000b21e <__cstring+0x168a>
10000b1fe: 6d                          	insd	dword ptr es:[rdi], dx
10000b1ff: 6f                          	outsd	dx, dword ptr [rsi]
10000b200: 64 75 6c                    	jne	0x10000b26f <__cstring+0x16db>
10000b203: 65 20 25 73 21 0a 00        	and	byte ptr gs:[rip + 663923], ah
10000b20a: 4d 6f                       	outsd	dx, dword ptr [rsi]
10000b20c: 64 75 6c                    	jne	0x10000b27b <__cstring+0x16e7>
10000b20f: 65 20 6f 62                 	and	byte ptr gs:[rdi + 98], ch
10000b213: 6a 65                       	push	101
10000b215: 63 74 20 66                 	movsxd	esi, dword ptr [rax + riz + 102]
10000b219: 6f                          	outsd	dx, dword ptr [rsi]
10000b21a: 72 20                       	jb	0x10000b23c <__cstring+0x16a8>
10000b21c: 25 73 20 69 73              	and	eax, 1936269427
10000b221: 20 4e 55                    	and	byte ptr [rsi + 85], cl
10000b224: 4c 4c                       	<unknown>
10000b226: 21 0a                       	and	dword ptr [rdx], ecx
10000b228: 00 70 61                    	add	byte ptr [rax + 97], dh
10000b22b: 74 68                       	je	0x10000b295 <__cstring+0x1701>
10000b22d: 00 49 6e                    	add	byte ptr [rcx + 110], cl
10000b230: 73 74                       	jae	0x10000b2a6 <__cstring+0x1712>
10000b232: 61                          	<unknown>
10000b233: 6c                          	insb	byte ptr es:[rdi], dx
10000b234: 6c                          	insb	byte ptr es:[rdi], dx
10000b235: 69 6e 67 20 50 59 5a        	imul	ebp, dword ptr [rsi + 103], 1515802656
10000b23c: 3a 20                       	cmp	ah, byte ptr [rax]
10000b23e: 63 6f 75                    	movsxd	ebp, dword ptr [rdi + 117]
10000b241: 6c                          	insb	byte ptr es:[rdi], dx
10000b242: 64 20 6e 6f                 	and	byte ptr fs:[rsi + 111], ch
10000b246: 74 20                       	je	0x10000b268 <__cstring+0x16d4>
10000b248: 67 65 74 20                 	addr32		je	0x10000b26c <__cstring+0x16d8>
10000b24c: 73 79                       	jae	0x10000b2c7 <__cstring+0x1733>
10000b24e: 73 2e                       	jae	0x10000b27e <__cstring+0x16ea>
10000b250: 70 61                       	jo	0x10000b2b3 <__cstring+0x171f>
10000b252: 74 68                       	je	0x10000b2bc <__cstring+0x1728>
10000b254: 20 6f 62                    	and	byte ptr [rdi + 98], ch
10000b257: 6a 65                       	push	101
10000b259: 63 74 21 0a                 	movsxd	esi, dword ptr [rcx + riz + 10]
10000b25d: 00 25 55 3f 25 6c           	add	byte ptr [rip + 1814380373], ah ## 0x16c25f1b8 <dyld_stub_binder+0x16c25f1b8>
10000b263: 6c                          	insb	byte ptr es:[rdi], dx
10000b264: 75 00                       	jne	0x10000b266 <__cstring+0x16d2>
10000b266: 46 61                       	<unknown>
10000b268: 69 6c 65 64 20 74 6f 20     	imul	ebp, dword ptr [rbp + 2*riz + 100], 544175136
10000b270: 61                          	<unknown>
10000b271: 70 70                       	jo	0x10000b2e3 <__cstring+0x174f>
10000b273: 65 6e                       	outsb	dx, byte ptr gs:[rsi]
10000b275: 64 20 50 59                 	and	byte ptr fs:[rax + 89], dl
10000b279: 5a                          	pop	rdx
10000b27a: 20 65 6e                    	and	byte ptr [rbp + 110], ah
10000b27d: 74 72                       	je	0x10000b2f1 <__cstring+0x175d>
10000b27f: 79 20                       	jns	0x10000b2a1 <__cstring+0x170d>
10000b281: 74 6f                       	je	0x10000b2f2 <__cstring+0x175e>
10000b283: 20 73 79                    	and	byte ptr [rbx + 121], dh
10000b286: 73 2e                       	jae	0x10000b2b6 <__cstring+0x1722>
10000b288: 70 61                       	jo	0x10000b2eb <__cstring+0x1757>
10000b28a: 74 68                       	je	0x10000b2f4 <__cstring+0x1760>
10000b28c: 21 0a                       	and	dword ptr [rdx], ecx
10000b28e: 00 69 6d                    	add	byte ptr [rcx + 109], ch
10000b291: 70 6f                       	jo	0x10000b302 <__cstring+0x176e>
10000b293: 72 74                       	jb	0x10000b309 <__cstring+0x1775>
10000b295: 20 73 79                    	and	byte ptr [rbx + 121], dh
10000b298: 73 3b                       	jae	0x10000b2d5 <__cstring+0x1741>
10000b29a: 20 73 79                    	and	byte ptr [rbx + 121], dh
10000b29d: 73 2e                       	jae	0x10000b2cd <__cstring+0x1739>
10000b29f: 73 74                       	jae	0x10000b315 <__cstring+0x1781>
10000b2a1: 64 6f                       	outsd	dx, dword ptr fs:[rsi]
10000b2a3: 75 74                       	jne	0x10000b319 <__cstring+0x1785>
10000b2a5: 2e 66 6c                    	insb	byte ptr es:[rdi], dx
10000b2a8: 75 73                       	jne	0x10000b31d <__cstring+0x1789>
10000b2aa: 68 28 29 3b 20              	push	540748072
10000b2af: 20 20                       	and	byte ptr [rax], ah
10000b2b1: 20 20                       	and	byte ptr [rax], ah
10000b2b3: 20 20                       	and	byte ptr [rax], ah
10000b2b5: 20 20                       	and	byte ptr [rax], ah
10000b2b7: 28 73 79                    	sub	byte ptr [rbx + 121], dh
10000b2ba: 73 2e                       	jae	0x10000b2ea <__cstring+0x1756>
10000b2bc: 5f                          	pop	rdi
10000b2bd: 5f                          	pop	rdi
10000b2be: 73 74                       	jae	0x10000b334 <__cstring+0x17a0>
10000b2c0: 64 6f                       	outsd	dx, dword ptr fs:[rsi]
10000b2c2: 75 74                       	jne	0x10000b338 <__cstring+0x17a4>
10000b2c4: 5f                          	pop	rdi
10000b2c5: 5f                          	pop	rdi
10000b2c6: 2e 66 6c                    	insb	byte ptr es:[rdi], dx
10000b2c9: 75 73                       	jne	0x10000b33e <__cstring+0x17aa>
10000b2cb: 68 20 69 66 20              	push	543582496
10000b2d0: 73 79                       	jae	0x10000b34b <__cstring+0x17b7>
10000b2d2: 73 2e                       	jae	0x10000b302 <__cstring+0x176e>
10000b2d4: 5f                          	pop	rdi
10000b2d5: 5f                          	pop	rdi
10000b2d6: 73 74                       	jae	0x10000b34c <__cstring+0x17b8>
10000b2d8: 64 6f                       	outsd	dx, dword ptr fs:[rsi]
10000b2da: 75 74                       	jne	0x10000b350 <__cstring+0x17bc>
10000b2dc: 5f                          	pop	rdi
10000b2dd: 5f                          	pop	rdi
10000b2de: 20 20                       	and	byte ptr [rax], ah
10000b2e0: 20 20                       	and	byte ptr [rax], ah
10000b2e2: 20 20                       	and	byte ptr [rax], ah
10000b2e4: 20 20                       	and	byte ptr [rax], ah
10000b2e6: 20 69 73                    	and	byte ptr [rcx + 115], ch
10000b2e9: 20 6e 6f                    	and	byte ptr [rsi + 111], ch
10000b2ec: 74 20                       	je	0x10000b30e <__cstring+0x177a>
10000b2ee: 73 79                       	jae	0x10000b369 <__cstring+0x17d5>
10000b2f0: 73 2e                       	jae	0x10000b320 <__cstring+0x178c>
10000b2f2: 73 74                       	jae	0x10000b368 <__cstring+0x17d4>
10000b2f4: 64 6f                       	outsd	dx, dword ptr fs:[rsi]
10000b2f6: 75 74                       	jne	0x10000b36c <__cstring+0x17d8>
10000b2f8: 20 65 6c                    	and	byte ptr [rbp + 108], ah
10000b2fb: 73 65                       	jae	0x10000b362 <__cstring+0x17ce>
10000b2fd: 20 28                       	and	byte ptr [rax], ch
10000b2ff: 6c                          	insb	byte ptr es:[rdi], dx
10000b300: 61                          	<unknown>
10000b301: 6d                          	insd	dword ptr es:[rdi], dx
10000b302: 62                          	<unknown>
10000b303: 64 61                       	<unknown>
10000b305: 3a 20                       	cmp	ah, byte ptr [rax]
10000b307: 4e 6f                       	outsd	dx, dword ptr [rsi]
10000b309: 6e                          	outsb	dx, byte ptr [rsi]
10000b30a: 65 29 29                    	sub	dword ptr gs:[rcx], ebp
10000b30d: 28 29                       	sub	byte ptr [rcx], ch
10000b30f: 00 69 6d                    	add	byte ptr [rcx + 109], ch
10000b312: 70 6f                       	jo	0x10000b383 <__cstring+0x17ef>
10000b314: 72 74                       	jb	0x10000b38a <__cstring+0x17f6>
10000b316: 20 73 79                    	and	byte ptr [rbx + 121], dh
10000b319: 73 3b                       	jae	0x10000b356 <__cstring+0x17c2>
10000b31b: 20 73 79                    	and	byte ptr [rbx + 121], dh
10000b31e: 73 2e                       	jae	0x10000b34e <__cstring+0x17ba>
10000b320: 73 74                       	jae	0x10000b396 <__cstring+0x1802>
10000b322: 64 65 72 72                 	jb	0x10000b398 <__cstring+0x1804>
10000b326: 2e 66 6c                    	insb	byte ptr es:[rdi], dx
10000b329: 75 73                       	jne	0x10000b39e <__cstring+0x180a>
10000b32b: 68 28 29 3b 20              	push	540748072
10000b330: 20 20                       	and	byte ptr [rax], ah
10000b332: 20 20                       	and	byte ptr [rax], ah
10000b334: 20 20                       	and	byte ptr [rax], ah
10000b336: 20 20                       	and	byte ptr [rax], ah
10000b338: 28 73 79                    	sub	byte ptr [rbx + 121], dh
10000b33b: 73 2e                       	jae	0x10000b36b <__cstring+0x17d7>
10000b33d: 5f                          	pop	rdi
10000b33e: 5f                          	pop	rdi
10000b33f: 73 74                       	jae	0x10000b3b5 <__cstring+0x1821>
10000b341: 64 65 72 72                 	jb	0x10000b3b7 <__cstring+0x1823>
10000b345: 5f                          	pop	rdi
10000b346: 5f                          	pop	rdi
10000b347: 2e 66 6c                    	insb	byte ptr es:[rdi], dx
10000b34a: 75 73                       	jne	0x10000b3bf <__cstring+0x182b>
10000b34c: 68 20 69 66 20              	push	543582496
10000b351: 73 79                       	jae	0x10000b3cc <__cstring+0x1838>
10000b353: 73 2e                       	jae	0x10000b383 <__cstring+0x17ef>
10000b355: 5f                          	pop	rdi
10000b356: 5f                          	pop	rdi
10000b357: 73 74                       	jae	0x10000b3cd <__cstring+0x1839>
10000b359: 64 65 72 72                 	jb	0x10000b3cf <__cstring+0x183b>
10000b35d: 5f                          	pop	rdi
10000b35e: 5f                          	pop	rdi
10000b35f: 20 20                       	and	byte ptr [rax], ah
10000b361: 20 20                       	and	byte ptr [rax], ah
10000b363: 20 20                       	and	byte ptr [rax], ah
10000b365: 20 20                       	and	byte ptr [rax], ah
10000b367: 20 69 73                    	and	byte ptr [rcx + 115], ch
10000b36a: 20 6e 6f                    	and	byte ptr [rsi + 111], ch
10000b36d: 74 20                       	je	0x10000b38f <__cstring+0x17fb>
10000b36f: 73 79                       	jae	0x10000b3ea <__cstring+0x1856>
10000b371: 73 2e                       	jae	0x10000b3a1 <__cstring+0x180d>
10000b373: 73 74                       	jae	0x10000b3e9 <__cstring+0x1855>
10000b375: 64 65 72 72                 	jb	0x10000b3eb <__cstring+0x1857>
10000b379: 20 65 6c                    	and	byte ptr [rbp + 108], ah
10000b37c: 73 65                       	jae	0x10000b3e3 <__cstring+0x184f>
10000b37e: 20 28                       	and	byte ptr [rax], ch
10000b380: 6c                          	insb	byte ptr es:[rdi], dx
10000b381: 61                          	<unknown>
10000b382: 6d                          	insd	dword ptr es:[rdi], dx
10000b383: 62                          	<unknown>
10000b384: 64 61                       	<unknown>
10000b386: 3a 20                       	cmp	ah, byte ptr [rax]
10000b388: 4e 6f                       	outsd	dx, dword ptr [rsi]
10000b38a: 6e                          	outsb	dx, byte ptr [rsi]
10000b38b: 65 29 29                    	sub	dword ptr gs:[rcx], ebp
10000b38e: 28 29                       	sub	byte ptr [rcx], ch
10000b390: 00 53 50                    	add	byte ptr [rbx + 80], dl
10000b393: 4c 41                       	<unknown>
10000b395: 53                          	push	rbx
10000b396: 48 3a 20                    	cmp	spl, byte ptr [rax]
10000b399: 6c                          	insb	byte ptr es:[rdi], dx
10000b39a: 65 6e                       	outsb	dx, byte ptr gs:[rsi]
10000b39c: 67 74 68                    	addr32		je	0x10000b407 <__cstring+0x1873>
10000b39f: 20 6f 66                    	and	byte ptr [rdi + 102], ch
10000b3a2: 20 54 63 6c                 	and	byte ptr [rbx + 2*riz + 108], dl
10000b3a6: 20 73 68                    	and	byte ptr [rbx + 104], dh
10000b3a9: 61                          	<unknown>
10000b3aa: 72 65                       	jb	0x10000b411 <__cstring+0x187d>
10000b3ac: 64 20 6c 69 62              	and	byte ptr fs:[rcx + 2*rbp + 98], ch
10000b3b1: 72 61                       	jb	0x10000b414 <__cstring+0x1880>
10000b3b3: 72 79                       	jb	0x10000b42e <__cstring+0x189a>
10000b3b5: 20 70 61                    	and	byte ptr [rax + 97], dh
10000b3b8: 74 68                       	je	0x10000b422 <__cstring+0x188e>
10000b3ba: 20 65 78                    	and	byte ptr [rbp + 120], ah
10000b3bd: 63 65 65                    	movsxd	esp, dword ptr [rbp + 101]
10000b3c0: 64 73 20                    	jae	0x10000b3e3 <__cstring+0x184f>
10000b3c3: 6d                          	insd	dword ptr es:[rdi], dx
10000b3c4: 61                          	<unknown>
10000b3c5: 78 69                       	js	0x10000b430 <__cstring+0x189c>
10000b3c7: 6d                          	insd	dword ptr es:[rdi], dx
10000b3c8: 75 6d                       	jne	0x10000b437 <__cstring+0x18a3>
10000b3ca: 20 70 61                    	and	byte ptr [rax + 97], dh
10000b3cd: 74 68                       	je	0x10000b437 <__cstring+0x18a3>
10000b3cf: 20 6c 65 6e                 	and	byte ptr [rbp + 2*riz + 110], ch
10000b3d3: 67 74 68                    	addr32		je	0x10000b43e <__cstring+0x18aa>
10000b3d6: 21 0a                       	and	dword ptr [rdx], ecx
10000b3d8: 00 53 50                    	add	byte ptr [rbx + 80], dl
10000b3db: 4c 41                       	<unknown>
10000b3dd: 53                          	push	rbx
10000b3de: 48 3a 20                    	cmp	spl, byte ptr [rax]
10000b3e1: 6c                          	insb	byte ptr es:[rdi], dx
10000b3e2: 65 6e                       	outsb	dx, byte ptr gs:[rsi]
10000b3e4: 67 74 68                    	addr32		je	0x10000b44f <__cstring+0x18bb>
10000b3e7: 20 6f 66                    	and	byte ptr [rdi + 102], ch
10000b3ea: 20 54 6b 20                 	and	byte ptr [rbx + 2*rbp + 32], dl
10000b3ee: 73 68                       	jae	0x10000b458 <__cstring+0x18c4>
10000b3f0: 61                          	<unknown>
10000b3f1: 72 65                       	jb	0x10000b458 <__cstring+0x18c4>
10000b3f3: 64 20 6c 69 62              	and	byte ptr fs:[rcx + 2*rbp + 98], ch
10000b3f8: 72 61                       	jb	0x10000b45b <__cstring+0x18c7>
10000b3fa: 72 79                       	jb	0x10000b475 <__cstring+0x18e1>
10000b3fc: 20 70 61                    	and	byte ptr [rax + 97], dh
10000b3ff: 74 68                       	je	0x10000b469 <__cstring+0x18d5>
10000b401: 20 65 78                    	and	byte ptr [rbp + 120], ah
10000b404: 63 65 65                    	movsxd	esp, dword ptr [rbp + 101]
10000b407: 64 73 20                    	jae	0x10000b42a <__cstring+0x1896>
10000b40a: 6d                          	insd	dword ptr es:[rdi], dx
10000b40b: 61                          	<unknown>
10000b40c: 78 69                       	js	0x10000b477 <__cstring+0x18e3>
10000b40e: 6d                          	insd	dword ptr es:[rdi], dx
10000b40f: 75 6d                       	jne	0x10000b47e <__cstring+0x18ea>
10000b411: 20 70 61                    	and	byte ptr [rax + 97], dh
10000b414: 74 68                       	je	0x10000b47e <__cstring+0x18ea>
10000b416: 20 6c 65 6e                 	and	byte ptr [rbp + 2*riz + 110], ch
10000b41a: 67 74 68                    	addr32		je	0x10000b485 <__cstring+0x18f1>
10000b41d: 21 0a                       	and	dword ptr [rdx], ecx
10000b41f: 00 43 6f                    	add	byte ptr [rbx + 111], al
10000b422: 75 6c                       	jne	0x10000b490 <__cstring+0x18fc>
10000b424: 64 20 6e 6f                 	and	byte ptr fs:[rsi + 111], ch
10000b428: 74 20                       	je	0x10000b44a <__cstring+0x18b6>
10000b42a: 61                          	<unknown>
10000b42b: 6c                          	insb	byte ptr es:[rdi], dx
10000b42c: 6c                          	insb	byte ptr es:[rdi], dx
10000b42d: 6f                          	outsd	dx, dword ptr [rsi]
10000b42e: 63 61 74                    	movsxd	esp, dword ptr [rcx + 116]
10000b431: 65 20 6d 65                 	and	byte ptr gs:[rbp + 101], ch
10000b435: 6d                          	insd	dword ptr es:[rdi], dx
10000b436: 6f                          	outsd	dx, dword ptr [rsi]
10000b437: 72 79                       	jb	0x10000b4b2 <__cstring+0x191e>
10000b439: 20 66 6f                    	and	byte ptr [rsi + 111], ah
10000b43c: 72 20                       	jb	0x10000b45e <__cstring+0x18ca>
10000b43e: 73 70                       	jae	0x10000b4b0 <__cstring+0x191c>
10000b440: 6c                          	insb	byte ptr es:[rdi], dx
10000b441: 61                          	<unknown>
10000b442: 73 68                       	jae	0x10000b4ac <__cstring+0x1918>
10000b444: 20 73 63                    	and	byte ptr [rbx + 99], dh
10000b447: 72 65                       	jb	0x10000b4ae <__cstring+0x191a>
10000b449: 65 6e                       	outsb	dx, byte ptr gs:[rsi]
10000b44b: 20 72 65                    	and	byte ptr [rdx + 101], dh
10000b44e: 73 6f                       	jae	0x10000b4bf <__cstring+0x192b>
10000b450: 75 72                       	jne	0x10000b4c4 <__cstring+0x1930>
10000b452: 63 65 73                    	movsxd	esp, dword ptr [rbp + 115]
10000b455: 2e 0a 00                    	or	al, byte ptr cs:[rax]
10000b458: 53                          	push	rbx
10000b459: 50                          	push	rax
10000b45a: 4c 41                       	<unknown>
10000b45c: 53                          	push	rbx
10000b45d: 48 3a 20                    	cmp	spl, byte ptr [rax]
10000b460: 54                          	push	rsp
10000b461: 63 6c 20 69                 	movsxd	ebp, dword ptr [rax + riz + 105]
10000b465: 73 20                       	jae	0x10000b487 <__cstring+0x18f3>
10000b467: 6e                          	outsb	dx, byte ptr [rsi]
10000b468: 6f                          	outsd	dx, dword ptr [rsi]
10000b469: 74 20                       	je	0x10000b48b <__cstring+0x18f7>
10000b46b: 74 68                       	je	0x10000b4d5 <__cstring+0x1941>
10000b46d: 72 65                       	jb	0x10000b4d4 <__cstring+0x1940>
10000b46f: 61                          	<unknown>
10000b470: 64 65 64 2e 20 4f 6e        	and	byte ptr cs:[rdi + 110], cl
10000b477: 6c                          	insb	byte ptr es:[rdi], dx
10000b478: 79 20                       	jns	0x10000b49a <__cstring+0x1906>
10000b47a: 74 68                       	je	0x10000b4e4 <__cstring+0x1950>
10000b47c: 72 65                       	jb	0x10000b4e3 <__cstring+0x194f>
10000b47e: 61                          	<unknown>
10000b47f: 64 65 64 20 54 63 6c        	and	byte ptr fs:[rbx + 2*riz + 108], dl
10000b486: 20 69 73                    	and	byte ptr [rcx + 115], ch
10000b489: 20 73 75                    	and	byte ptr [rbx + 117], dh
10000b48c: 70 70                       	jo	0x10000b4fe <__cstring+0x196a>
10000b48e: 6f                          	outsd	dx, dword ptr [rsi]
10000b48f: 72 74                       	jb	0x10000b505 <__cstring+0x1971>
10000b491: 65 64 2e 0a 00              	or	al, byte ptr cs:[rax]
10000b496: 53                          	push	rbx
10000b497: 50                          	push	rax
10000b498: 4c 41                       	<unknown>
10000b49a: 53                          	push	rbx
10000b49b: 48 3a 20                    	cmp	spl, byte ptr [rax]
10000b49e: 63 6f 75                    	movsxd	ebp, dword ptr [rdi + 117]
10000b4a1: 6c                          	insb	byte ptr es:[rdi], dx
10000b4a2: 64 20 6e 6f                 	and	byte ptr fs:[rsi + 111], ch
10000b4a6: 74 20                       	je	0x10000b4c8 <__cstring+0x1934>
10000b4a8: 66 69 6e 64 20 72           	imul	bp, word ptr [rsi + 100], 29216
10000b4ae: 65 71 75                    	jno	0x10000b526 <__cstring+0x1992>
10000b4b1: 69 72 65 6d 65 6e 74        	imul	esi, dword ptr [rdx + 101], 1953391981
10000b4b8: 20 25 73 20 69 6e           	and	byte ptr [rip + 1852383347], ah ## 0x16e69d531 <dyld_stub_binder+0x16e69d531>
10000b4be: 20 61 72                    	and	byte ptr [rcx + 114], ah
10000b4c1: 63 68 69                    	movsxd	ebp, dword ptr [rax + 105]
10000b4c4: 76 65                       	jbe	0x10000b52b <__cstring+0x1997>
10000b4c6: 2e 0a 00                    	or	al, byte ptr cs:[rax]
10000b4c9: 53                          	push	rbx
10000b4ca: 50                          	push	rax
10000b4cb: 4c 41                       	<unknown>
10000b4cd: 53                          	push	rbx
10000b4ce: 48 3a 20                    	cmp	spl, byte ptr [rax]
10000b4d1: 65 78 74                    	js	0x10000b548 <__cstring+0x19b4>
10000b4d4: 72 61                       	jb	0x10000b537 <__cstring+0x19a3>
10000b4d6: 63 74 69 6f                 	movsxd	esi, dword ptr [rcx + 2*rbp + 111]
10000b4da: 6e                          	outsb	dx, byte ptr [rsi]
10000b4db: 20 70 61                    	and	byte ptr [rax + 97], dh
10000b4de: 74 68                       	je	0x10000b548 <__cstring+0x19b4>
10000b4e0: 20 6c 65 6e                 	and	byte ptr [rbp + 2*riz + 110], ch
10000b4e4: 67 74 68                    	addr32		je	0x10000b54f <__cstring+0x19bb>
10000b4e7: 20 65 78                    	and	byte ptr [rbp + 120], ah
10000b4ea: 63 65 65                    	movsxd	esp, dword ptr [rbp + 101]
10000b4ed: 64 73 20                    	jae	0x10000b510 <__cstring+0x197c>
10000b4f0: 6d                          	insd	dword ptr es:[rdi], dx
10000b4f1: 61                          	<unknown>
10000b4f2: 78 69                       	js	0x10000b55d <__cstring+0x19c9>
10000b4f4: 6d                          	insd	dword ptr es:[rdi], dx
10000b4f5: 75 6d                       	jne	0x10000b564 <__cstring+0x19d0>
10000b4f7: 20 70 61                    	and	byte ptr [rax + 97], dh
10000b4fa: 74 68                       	je	0x10000b564 <__cstring+0x19d0>
10000b4fc: 20 6c 65 6e                 	and	byte ptr [rbp + 2*riz + 110], ch
10000b500: 67 74 68                    	addr32		je	0x10000b56b <__cstring+0x19d7>
10000b503: 21 0a                       	and	dword ptr [rdx], ecx
10000b505: 00 53 50                    	add	byte ptr [rbx + 80], dl
10000b508: 4c 41                       	<unknown>
10000b50a: 53                          	push	rbx
10000b50b: 48 3a 20                    	cmp	spl, byte ptr [rax]
10000b50e: 66 69 6c 65 20 61 6c        	imul	bp, word ptr [rbp + 2*riz + 32], 27745
10000b515: 72 65                       	jb	0x10000b57c <__cstring+0x19e8>
10000b517: 61                          	<unknown>
10000b518: 64 79 20                    	jns	0x10000b53b <__cstring+0x19a7>
10000b51b: 65 78 69                    	js	0x10000b587 <__cstring+0x19f3>
10000b51e: 73 74                       	jae	0x10000b594 <__cstring+0x1a00>
10000b520: 73 20                       	jae	0x10000b542 <__cstring+0x19ae>
10000b522: 62 75 74 20 73              	<unknown>
10000b527: 68 6f 75 6c 64              	push	1684829551
10000b52c: 20 6e 6f                    	and	byte ptr [rsi + 111], ch
10000b52f: 74 3a                       	je	0x10000b56b <__cstring+0x19d7>
10000b531: 20 25 73 0a 00 53           	and	byte ptr [rip + 1392511603], ah ## 0x15300bfaa <dyld_stub_binder+0x15300bfaa>
10000b537: 50                          	push	rax
10000b538: 4c 41                       	<unknown>
10000b53a: 53                          	push	rbx
10000b53b: 48 3a 20                    	cmp	spl, byte ptr [rax]
10000b53e: 57                          	push	rdi
10000b53f: 41 52                       	push	r10
10000b541: 4e 49                       	<unknown>
10000b543: 4e 47                       	<unknown>
10000b545: 3a 20                       	cmp	ah, byte ptr [rax]
10000b547: 66 69 6c 65 20 61 6c        	imul	bp, word ptr [rbp + 2*riz + 32], 27745
10000b54e: 72 65                       	jb	0x10000b5b5 <__cstring+0x1a21>
10000b550: 61                          	<unknown>
10000b551: 64 79 20                    	jns	0x10000b574 <__cstring+0x19e0>
10000b554: 65 78 69                    	js	0x10000b5c0 <__cstring+0x1a2c>
10000b557: 73 74                       	jae	0x10000b5cd <__cstring+0x1a39>
10000b559: 73 20                       	jae	0x10000b57b <__cstring+0x19e7>
10000b55b: 62 75 74 20 73              	<unknown>
10000b560: 68 6f 75 6c 64              	push	1684829551
10000b565: 20 6e 6f                    	and	byte ptr [rsi + 111], ch
10000b568: 74 3a                       	je	0x10000b5a4 <__cstring+0x1a10>
10000b56a: 20 25 73 0a 00 53           	and	byte ptr [rip + 1392511603], ah ## 0x15300bfe3 <dyld_stub_binder+0x15300bfe3>
10000b570: 50                          	push	rax
10000b571: 4c 41                       	<unknown>
10000b573: 53                          	push	rbx
10000b574: 48 3a 20                    	cmp	spl, byte ptr [rax]
10000b577: 66 61                       	<unknown>
10000b579: 69 6c 65 64 20 74 6f 20     	imul	ebp, dword ptr [rbp + 2*riz + 100], 544175136
10000b581: 63 72 65                    	movsxd	esi, dword ptr [rdx + 101]
10000b584: 61                          	<unknown>
10000b585: 74 65                       	je	0x10000b5ec <__cstring+0x1a58>
10000b587: 20 70 61                    	and	byte ptr [rax + 97], dh
10000b58a: 72 65                       	jb	0x10000b5f1 <__cstring+0x1a5d>
10000b58c: 6e                          	outsb	dx, byte ptr [rsi]
10000b58d: 74 20                       	je	0x10000b5af <__cstring+0x1a1b>
10000b58f: 64 69 72 65 63 74 6f 72     	imul	esi, dword ptr fs:[rdx + 101], 1919906915
10000b597: 79 20                       	jns	0x10000b5b9 <__cstring+0x1a25>
10000b599: 73 74                       	jae	0x10000b60f <__cstring+0x1a7b>
10000b59b: 72 75                       	jb	0x10000b612 <__cstring+0x1a7e>
10000b59d: 63 74 75 72                 	movsxd	esi, dword ptr [rbp + 2*rsi + 114]
10000b5a1: 65 2e 0a 00                 	or	al, byte ptr cs:[rax]
10000b5a5: 53                          	push	rbx
10000b5a6: 50                          	push	rax
10000b5a7: 4c 41                       	<unknown>
10000b5a9: 53                          	push	rbx
10000b5aa: 48 3a 20                    	cmp	spl, byte ptr [rax]
10000b5ad: 63 6f 75                    	movsxd	ebp, dword ptr [rdi + 117]
10000b5b0: 6c                          	insb	byte ptr es:[rdi], dx
10000b5b1: 64 20 6e 6f                 	and	byte ptr fs:[rsi + 111], ch
10000b5b5: 74 20                       	je	0x10000b5d7 <__cstring+0x1a43>
10000b5b7: 65 78 74                    	js	0x10000b62e <__cstring+0x1a9a>
10000b5ba: 72 61                       	jb	0x10000b61d <__cstring+0x1a89>
10000b5bc: 63 74 20 72                 	movsxd	esi, dword ptr [rax + riz + 114]
10000b5c0: 65 71 75                    	jno	0x10000b638 <__cstring+0x1aa4>
10000b5c3: 69 72 65 6d 65 6e 74        	imul	esi, dword ptr [rdx + 101], 1953391981
10000b5ca: 20 25 73 2e 0a 00           	and	byte ptr [rip + 667251], ah ## 0x1000ae443 <dyld_stub_binder+0x1000ae443>
10000b5d0: 53                          	push	rbx
10000b5d1: 50                          	push	rax
10000b5d2: 4c 41                       	<unknown>
10000b5d4: 53                          	push	rbx
10000b5d5: 48 3a 20                    	cmp	spl, byte ptr [rax]
10000b5d8: 66 61                       	<unknown>
10000b5da: 69 6c 65 64 20 74 6f 20     	imul	ebp, dword ptr [rbp + 2*riz + 100], 544175136
10000b5e2: 6c                          	insb	byte ptr es:[rdi], dx
10000b5e3: 6f                          	outsd	dx, dword ptr [rsi]
10000b5e4: 61                          	<unknown>
10000b5e5: 64 20 54 63 6c              	and	byte ptr fs:[rbx + 2*riz + 108], dl
10000b5ea: 2f                          	<unknown>
10000b5eb: 54                          	push	rsp
10000b5ec: 6b 20 73                    	imul	esp, dword ptr [rax], 115
10000b5ef: 68 61 72 65 64              	push	1684370017
10000b5f4: 20 6c 69 62                 	and	byte ptr [rcx + 2*rbp + 98], ch
10000b5f8: 72 61                       	jb	0x10000b65b <__cstring+0x1ac7>
10000b5fa: 72 69                       	jb	0x10000b665 <__cstring+0x1ad1>
10000b5fc: 65 73 21                    	jae	0x10000b620 <__cstring+0x1a8c>
10000b5ff: 0a 00                       	or	al, byte ptr [rax]
10000b601: 43 6f                       	outsd	dx, dword ptr [rsi]
10000b603: 75 6c                       	jne	0x10000b671 <__cstring+0x1add>
10000b605: 64 20 6e 6f                 	and	byte ptr fs:[rsi + 111], ch
10000b609: 74 20                       	je	0x10000b62b <__cstring+0x1a97>
10000b60b: 61                          	<unknown>
10000b60c: 6c                          	insb	byte ptr es:[rdi], dx
10000b60d: 6c                          	insb	byte ptr es:[rdi], dx
10000b60e: 6f                          	outsd	dx, dword ptr [rsi]
10000b60f: 63 61 74                    	movsxd	esp, dword ptr [rcx + 116]
10000b612: 65 20 6d 65                 	and	byte ptr gs:[rbp + 101], ch
10000b616: 6d                          	insd	dword ptr es:[rdi], dx
10000b617: 6f                          	outsd	dx, dword ptr [rsi]
10000b618: 72 79                       	jb	0x10000b693 <__cstring+0x1aff>
10000b61a: 20 66 6f                    	and	byte ptr [rsi + 111], ah
10000b61d: 72 20                       	jb	0x10000b63f <__cstring+0x1aab>
10000b61f: 53                          	push	rbx
10000b620: 50                          	push	rax
10000b621: 4c 41                       	<unknown>
10000b623: 53                          	push	rbx
10000b624: 48 5f                       	pop	rdi
10000b626: 43 4f                       	<unknown>
10000b628: 4e 54                       	push	rsp
10000b62a: 45 58                       	pop	r8
10000b62c: 54                          	push	rsp
10000b62d: 2e 0a 00                    	or	al, byte ptr cs:[rax]
10000b630: 73 74                       	jae	0x10000b6a6 <__cstring+0x1b12>
10000b632: 61                          	<unknown>
10000b633: 74 75                       	je	0x10000b6aa <__cstring+0x1b16>
10000b635: 73 5f                       	jae	0x10000b696 <__cstring+0x1b02>
10000b637: 74 65                       	je	0x10000b69e <__cstring+0x1b0a>
10000b639: 78 74                       	js	0x10000b6af <__cstring+0x1b1b>
10000b63b: 00 74 63 6c                 	add	byte ptr [rbx + 2*riz + 108], dh
10000b63f: 49 6e                       	outsb	dx, byte ptr [rsi]
10000b641: 69 74 00 74 63 6c 5f 66     	imul	esi, dword ptr [rax + rax + 116], 1717529699
10000b649: 69 6e 64 4c 69 62 72        	imul	ebp, dword ptr [rsi + 100], 1919052108
10000b650: 61                          	<unknown>
10000b651: 72 79                       	jb	0x10000b6cc <__cstring+0x1b38>
10000b653: 00 65 78                    	add	byte ptr [rbp + 120], ah
10000b656: 69 74 00 72 65 6e 61 6d     	imul	esi, dword ptr [rax + rax + 114], 1835101797
10000b65e: 65 20 3a                    	and	byte ptr gs:[rdx], bh
10000b661: 3a 73 6f                    	cmp	dh, byte ptr [rbx + 111]
10000b664: 75 72                       	jne	0x10000b6d8 <__cstring+0x1b44>
10000b666: 63 65 20                    	movsxd	esp, dword ptr [rbp + 32]
10000b669: 3a 3a                       	cmp	bh, byte ptr [rdx]
10000b66b: 5f                          	pop	rdi
10000b66c: 73 6f                       	jae	0x10000b6dd <__cstring+0x1b49>
10000b66e: 75 72                       	jne	0x10000b6e2 <__cstring+0x1b4e>
10000b670: 63 65 00                    	movsxd	esp, dword ptr [rbp]
10000b673: 73 6f                       	jae	0x10000b6e4 <__cstring+0x1b50>
10000b675: 75 72                       	jne	0x10000b6e9 <__cstring+0x1b55>
10000b677: 63 65 00                    	movsxd	esp, dword ptr [rbp]
10000b67a: 5f                          	pop	rdi
10000b67b: 69 6d 61 67 65 5f 64        	imul	ebp, dword ptr [rbp + 97], 1683973479
10000b682: 61                          	<unknown>
10000b683: 74 61                       	je	0x10000b6e6 <__cstring+0x1b52>
10000b685: 00 74 6b 2e                 	add	byte ptr [rbx + 2*rbp + 46], dh
10000b689: 74 63                       	je	0x10000b6ee <__cstring+0x1b5a>
10000b68b: 6c                          	insb	byte ptr es:[rdi], dx
10000b68c: 00 74 6b 5f                 	add	byte ptr [rbx + 2*rbp + 95], dh
10000b690: 6c                          	insb	byte ptr es:[rdi], dx
10000b691: 69 62 72 61 72 79 00        	imul	esp, dword ptr [rdx + 114], 7959137
10000b698: 5f                          	pop	rdi
10000b699: 73 6f                       	jae	0x10000b70a <__cstring+0x1b76>
10000b69b: 75 72                       	jne	0x10000b70f <__cstring+0x1b7b>
10000b69d: 63 65 00                    	movsxd	esp, dword ptr [rbp]
10000b6a0: 54                          	push	rsp
10000b6a1: 63 6c 5f 49                 	movsxd	ebp, dword ptr [rdi + 2*rbx + 73]
10000b6a5: 6e                          	outsb	dx, byte ptr [rsi]
10000b6a6: 69 74 00 43 61 6e 6e 6f     	imul	esi, dword ptr [rax + rax + 67], 1869508193
10000b6ae: 74 20                       	je	0x10000b6d0 <__cstring+0x1b3c>
10000b6b0: 64 6c                       	insb	byte ptr es:[rdi], dx
10000b6b2: 73 79                       	jae	0x10000b72d <__cstring+0x1b99>
10000b6b4: 6d                          	insd	dword ptr es:[rdi], dx
10000b6b5: 20 66 6f                    	and	byte ptr [rsi + 111], ah
10000b6b8: 72 20                       	jb	0x10000b6da <__cstring+0x1b46>
10000b6ba: 54                          	push	rsp
10000b6bb: 63 6c 5f 49                 	movsxd	ebp, dword ptr [rdi + 2*rbx + 73]
10000b6bf: 6e                          	outsb	dx, byte ptr [rsi]
10000b6c0: 69 74 0a 00 54 63 6c 5f     	imul	esi, dword ptr [rdx + rcx], 1600938836
10000b6c8: 43 72 65                    	jb	0x10000b730 <__cstring+0x1b9c>
10000b6cb: 61                          	<unknown>
10000b6cc: 74 65                       	je	0x10000b733 <__cstring+0x1b9f>
10000b6ce: 49 6e                       	outsb	dx, byte ptr [rsi]
10000b6d0: 74 65                       	je	0x10000b737 <__cstring+0x1ba3>
10000b6d2: 72 70                       	jb	0x10000b744 <__cstring+0x1bb0>
10000b6d4: 00 43 61                    	add	byte ptr [rbx + 97], al
10000b6d7: 6e                          	outsb	dx, byte ptr [rsi]
10000b6d8: 6e                          	outsb	dx, byte ptr [rsi]
10000b6d9: 6f                          	outsd	dx, dword ptr [rsi]
10000b6da: 74 20                       	je	0x10000b6fc <__cstring+0x1b68>
10000b6dc: 64 6c                       	insb	byte ptr es:[rdi], dx
10000b6de: 73 79                       	jae	0x10000b759 <__cstring+0x1bc5>
10000b6e0: 6d                          	insd	dword ptr es:[rdi], dx
10000b6e1: 20 66 6f                    	and	byte ptr [rsi + 111], ah
10000b6e4: 72 20                       	jb	0x10000b706 <__cstring+0x1b72>
10000b6e6: 54                          	push	rsp
10000b6e7: 63 6c 5f 43                 	movsxd	ebp, dword ptr [rdi + 2*rbx + 67]
10000b6eb: 72 65                       	jb	0x10000b752 <__cstring+0x1bbe>
10000b6ed: 61                          	<unknown>
10000b6ee: 74 65                       	je	0x10000b755 <__cstring+0x1bc1>
10000b6f0: 49 6e                       	outsb	dx, byte ptr [rsi]
10000b6f2: 74 65                       	je	0x10000b759 <__cstring+0x1bc5>
10000b6f4: 72 70                       	jb	0x10000b766 <__cstring+0x1bd2>
10000b6f6: 0a 00                       	or	al, byte ptr [rax]
10000b6f8: 54                          	push	rsp
10000b6f9: 63 6c 5f 46                 	movsxd	ebp, dword ptr [rdi + 2*rbx + 70]
10000b6fd: 69 6e 64 45 78 65 63        	imul	ebp, dword ptr [rsi + 100], 1667594309
10000b704: 75 74                       	jne	0x10000b77a <__cstring+0x1be6>
10000b706: 61                          	<unknown>
10000b707: 62                          	<unknown>
10000b708: 6c                          	insb	byte ptr es:[rdi], dx
10000b709: 65 00 43 61                 	add	byte ptr gs:[rbx + 97], al
10000b70d: 6e                          	outsb	dx, byte ptr [rsi]
10000b70e: 6e                          	outsb	dx, byte ptr [rsi]
10000b70f: 6f                          	outsd	dx, dword ptr [rsi]
10000b710: 74 20                       	je	0x10000b732 <__cstring+0x1b9e>
10000b712: 64 6c                       	insb	byte ptr es:[rdi], dx
10000b714: 73 79                       	jae	0x10000b78f <__cstring+0x1bfb>
10000b716: 6d                          	insd	dword ptr es:[rdi], dx
10000b717: 20 66 6f                    	and	byte ptr [rsi + 111], ah
10000b71a: 72 20                       	jb	0x10000b73c <__cstring+0x1ba8>
10000b71c: 54                          	push	rsp
10000b71d: 63 6c 5f 46                 	movsxd	ebp, dword ptr [rdi + 2*rbx + 70]
10000b721: 69 6e 64 45 78 65 63        	imul	ebp, dword ptr [rsi + 100], 1667594309
10000b728: 75 74                       	jne	0x10000b79e <__cstring+0x1c0a>
10000b72a: 61                          	<unknown>
10000b72b: 62                          	<unknown>
10000b72c: 6c                          	insb	byte ptr es:[rdi], dx
10000b72d: 65 0a 00                    	or	al, byte ptr gs:[rax]
10000b730: 54                          	push	rsp
10000b731: 63 6c 5f 44                 	movsxd	ebp, dword ptr [rdi + 2*rbx + 68]
10000b735: 6f                          	outsd	dx, dword ptr [rsi]
10000b736: 4f 6e                       	outsb	dx, byte ptr [rsi]
10000b738: 65 45 76 65                 	jbe	0x10000b7a1 <__cstring+0x1c0d>
10000b73c: 6e                          	outsb	dx, byte ptr [rsi]
10000b73d: 74 00                       	je	0x10000b73f <__cstring+0x1bab>
10000b73f: 43 61                       	<unknown>
10000b741: 6e                          	outsb	dx, byte ptr [rsi]
10000b742: 6e                          	outsb	dx, byte ptr [rsi]
10000b743: 6f                          	outsd	dx, dword ptr [rsi]
10000b744: 74 20                       	je	0x10000b766 <__cstring+0x1bd2>
10000b746: 64 6c                       	insb	byte ptr es:[rdi], dx
10000b748: 73 79                       	jae	0x10000b7c3 <__cstring+0x1c2f>
10000b74a: 6d                          	insd	dword ptr es:[rdi], dx
10000b74b: 20 66 6f                    	and	byte ptr [rsi + 111], ah
10000b74e: 72 20                       	jb	0x10000b770 <__cstring+0x1bdc>
10000b750: 54                          	push	rsp
10000b751: 63 6c 5f 44                 	movsxd	ebp, dword ptr [rdi + 2*rbx + 68]
10000b755: 6f                          	outsd	dx, dword ptr [rsi]
10000b756: 4f 6e                       	outsb	dx, byte ptr [rsi]
10000b758: 65 45 76 65                 	jbe	0x10000b7c1 <__cstring+0x1c2d>
10000b75c: 6e                          	outsb	dx, byte ptr [rsi]
10000b75d: 74 0a                       	je	0x10000b769 <__cstring+0x1bd5>
10000b75f: 00 54 63 6c                 	add	byte ptr [rbx + 2*riz + 108], dl
10000b763: 5f                          	pop	rdi
10000b764: 46 69 6e 61 6c 69 7a 65     	imul	r13d, dword ptr [rsi + 97], 1702521196
10000b76c: 00 43 61                    	add	byte ptr [rbx + 97], al
10000b76f: 6e                          	outsb	dx, byte ptr [rsi]
10000b770: 6e                          	outsb	dx, byte ptr [rsi]
10000b771: 6f                          	outsd	dx, dword ptr [rsi]
10000b772: 74 20                       	je	0x10000b794 <__cstring+0x1c00>
10000b774: 64 6c                       	insb	byte ptr es:[rdi], dx
10000b776: 73 79                       	jae	0x10000b7f1 <__cstring+0x1c5d>
10000b778: 6d                          	insd	dword ptr es:[rdi], dx
10000b779: 20 66 6f                    	and	byte ptr [rsi + 111], ah
10000b77c: 72 20                       	jb	0x10000b79e <__cstring+0x1c0a>
10000b77e: 54                          	push	rsp
10000b77f: 63 6c 5f 46                 	movsxd	ebp, dword ptr [rdi + 2*rbx + 70]
10000b783: 69 6e 61 6c 69 7a 65        	imul	ebp, dword ptr [rsi + 97], 1702521196
10000b78a: 0a 00                       	or	al, byte ptr [rax]
10000b78c: 54                          	push	rsp
10000b78d: 63 6c 5f 46                 	movsxd	ebp, dword ptr [rdi + 2*rbx + 70]
10000b791: 69 6e 61 6c 69 7a 65        	imul	ebp, dword ptr [rsi + 97], 1702521196
10000b798: 54                          	push	rsp
10000b799: 68 72 65 61 64              	push	1684104562
10000b79e: 00 43 61                    	add	byte ptr [rbx + 97], al
10000b7a1: 6e                          	outsb	dx, byte ptr [rsi]
10000b7a2: 6e                          	outsb	dx, byte ptr [rsi]
10000b7a3: 6f                          	outsd	dx, dword ptr [rsi]
10000b7a4: 74 20                       	je	0x10000b7c6 <__cstring+0x1c32>
10000b7a6: 64 6c                       	insb	byte ptr es:[rdi], dx
10000b7a8: 73 79                       	jae	0x10000b823 <__cstring+0x1c8f>
10000b7aa: 6d                          	insd	dword ptr es:[rdi], dx
10000b7ab: 20 66 6f                    	and	byte ptr [rsi + 111], ah
10000b7ae: 72 20                       	jb	0x10000b7d0 <__cstring+0x1c3c>
10000b7b0: 54                          	push	rsp
10000b7b1: 63 6c 5f 46                 	movsxd	ebp, dword ptr [rdi + 2*rbx + 70]
10000b7b5: 69 6e 61 6c 69 7a 65        	imul	ebp, dword ptr [rsi + 97], 1702521196
10000b7bc: 54                          	push	rsp
10000b7bd: 68 72 65 61 64              	push	1684104562
10000b7c2: 0a 00                       	or	al, byte ptr [rax]
10000b7c4: 54                          	push	rsp
10000b7c5: 63 6c 5f 44                 	movsxd	ebp, dword ptr [rdi + 2*rbx + 68]
10000b7c9: 65 6c                       	insb	byte ptr es:[rdi], dx
10000b7cb: 65 74 65                    	je	0x10000b833 <__cstring+0x1c9f>
10000b7ce: 49 6e                       	outsb	dx, byte ptr [rsi]
10000b7d0: 74 65                       	je	0x10000b837 <__cstring+0x1ca3>
10000b7d2: 72 70                       	jb	0x10000b844 <__cstring+0x1cb0>
10000b7d4: 00 43 61                    	add	byte ptr [rbx + 97], al
10000b7d7: 6e                          	outsb	dx, byte ptr [rsi]
10000b7d8: 6e                          	outsb	dx, byte ptr [rsi]
10000b7d9: 6f                          	outsd	dx, dword ptr [rsi]
10000b7da: 74 20                       	je	0x10000b7fc <__cstring+0x1c68>
10000b7dc: 64 6c                       	insb	byte ptr es:[rdi], dx
10000b7de: 73 79                       	jae	0x10000b859 <__cstring+0x1cc5>
10000b7e0: 6d                          	insd	dword ptr es:[rdi], dx
10000b7e1: 20 66 6f                    	and	byte ptr [rsi + 111], ah
10000b7e4: 72 20                       	jb	0x10000b806 <__cstring+0x1c72>
10000b7e6: 54                          	push	rsp
10000b7e7: 63 6c 5f 44                 	movsxd	ebp, dword ptr [rdi + 2*rbx + 68]
10000b7eb: 65 6c                       	insb	byte ptr es:[rdi], dx
10000b7ed: 65 74 65                    	je	0x10000b855 <__cstring+0x1cc1>
10000b7f0: 49 6e                       	outsb	dx, byte ptr [rsi]
10000b7f2: 74 65                       	je	0x10000b859 <__cstring+0x1cc5>
10000b7f4: 72 70                       	jb	0x10000b866 <__cstring+0x1cd2>
10000b7f6: 0a 00                       	or	al, byte ptr [rax]
10000b7f8: 54                          	push	rsp
10000b7f9: 63 6c 5f 43                 	movsxd	ebp, dword ptr [rdi + 2*rbx + 67]
10000b7fd: 72 65                       	jb	0x10000b864 <__cstring+0x1cd0>
10000b7ff: 61                          	<unknown>
10000b800: 74 65                       	je	0x10000b867 <__cstring+0x1cd3>
10000b802: 54                          	push	rsp
10000b803: 68 72 65 61 64              	push	1684104562
10000b808: 00 43 61                    	add	byte ptr [rbx + 97], al
10000b80b: 6e                          	outsb	dx, byte ptr [rsi]
10000b80c: 6e                          	outsb	dx, byte ptr [rsi]
10000b80d: 6f                          	outsd	dx, dword ptr [rsi]
10000b80e: 74 20                       	je	0x10000b830 <__cstring+0x1c9c>
10000b810: 64 6c                       	insb	byte ptr es:[rdi], dx
10000b812: 73 79                       	jae	0x10000b88d <__cstring+0x1cf9>
10000b814: 6d                          	insd	dword ptr es:[rdi], dx
10000b815: 20 66 6f                    	and	byte ptr [rsi + 111], ah
10000b818: 72 20                       	jb	0x10000b83a <__cstring+0x1ca6>
10000b81a: 54                          	push	rsp
10000b81b: 63 6c 5f 43                 	movsxd	ebp, dword ptr [rdi + 2*rbx + 67]
10000b81f: 72 65                       	jb	0x10000b886 <__cstring+0x1cf2>
10000b821: 61                          	<unknown>
10000b822: 74 65                       	je	0x10000b889 <__cstring+0x1cf5>
10000b824: 54                          	push	rsp
10000b825: 68 72 65 61 64              	push	1684104562
10000b82a: 0a 00                       	or	al, byte ptr [rax]
10000b82c: 54                          	push	rsp
10000b82d: 63 6c 5f 47                 	movsxd	ebp, dword ptr [rdi + 2*rbx + 71]
10000b831: 65 74 43                    	je	0x10000b877 <__cstring+0x1ce3>
10000b834: 75 72                       	jne	0x10000b8a8 <__cstring+0x1d14>
10000b836: 72 65                       	jb	0x10000b89d <__cstring+0x1d09>
10000b838: 6e                          	outsb	dx, byte ptr [rsi]
10000b839: 74 54                       	je	0x10000b88f <__cstring+0x1cfb>
10000b83b: 68 72 65 61 64              	push	1684104562
10000b840: 00 43 61                    	add	byte ptr [rbx + 97], al
10000b843: 6e                          	outsb	dx, byte ptr [rsi]
10000b844: 6e                          	outsb	dx, byte ptr [rsi]
10000b845: 6f                          	outsd	dx, dword ptr [rsi]
10000b846: 74 20                       	je	0x10000b868 <__cstring+0x1cd4>
10000b848: 64 6c                       	insb	byte ptr es:[rdi], dx
10000b84a: 73 79                       	jae	0x10000b8c5 <__cstring+0x1d31>
10000b84c: 6d                          	insd	dword ptr es:[rdi], dx
10000b84d: 20 66 6f                    	and	byte ptr [rsi + 111], ah
10000b850: 72 20                       	jb	0x10000b872 <__cstring+0x1cde>
10000b852: 54                          	push	rsp
10000b853: 63 6c 5f 47                 	movsxd	ebp, dword ptr [rdi + 2*rbx + 71]
10000b857: 65 74 43                    	je	0x10000b89d <__cstring+0x1d09>
10000b85a: 75 72                       	jne	0x10000b8ce <__cstring+0x1d3a>
10000b85c: 72 65                       	jb	0x10000b8c3 <__cstring+0x1d2f>
10000b85e: 6e                          	outsb	dx, byte ptr [rsi]
10000b85f: 74 54                       	je	0x10000b8b5 <__cstring+0x1d21>
10000b861: 68 72 65 61 64              	push	1684104562
10000b866: 0a 00                       	or	al, byte ptr [rax]
10000b868: 54                          	push	rsp
10000b869: 63 6c 5f 4d                 	movsxd	ebp, dword ptr [rdi + 2*rbx + 77]
10000b86d: 75 74                       	jne	0x10000b8e3 <__cstring+0x1d4f>
10000b86f: 65 78 4c                    	js	0x10000b8be <__cstring+0x1d2a>
10000b872: 6f                          	outsd	dx, dword ptr [rsi]
10000b873: 63 6b 00                    	movsxd	ebp, dword ptr [rbx]
10000b876: 43 61                       	<unknown>
10000b878: 6e                          	outsb	dx, byte ptr [rsi]
10000b879: 6e                          	outsb	dx, byte ptr [rsi]
10000b87a: 6f                          	outsd	dx, dword ptr [rsi]
10000b87b: 74 20                       	je	0x10000b89d <__cstring+0x1d09>
10000b87d: 64 6c                       	insb	byte ptr es:[rdi], dx
10000b87f: 73 79                       	jae	0x10000b8fa <__cstring+0x1d66>
10000b881: 6d                          	insd	dword ptr es:[rdi], dx
10000b882: 20 66 6f                    	and	byte ptr [rsi + 111], ah
10000b885: 72 20                       	jb	0x10000b8a7 <__cstring+0x1d13>
10000b887: 54                          	push	rsp
10000b888: 63 6c 5f 4d                 	movsxd	ebp, dword ptr [rdi + 2*rbx + 77]
10000b88c: 75 74                       	jne	0x10000b902 <__cstring+0x1d6e>
10000b88e: 65 78 4c                    	js	0x10000b8dd <__cstring+0x1d49>
10000b891: 6f                          	outsd	dx, dword ptr [rsi]
10000b892: 63 6b 0a                    	movsxd	ebp, dword ptr [rbx + 10]
10000b895: 00 54 63 6c                 	add	byte ptr [rbx + 2*riz + 108], dl
10000b899: 5f                          	pop	rdi
10000b89a: 4d 75 74                    	jne	0x10000b911 <__cstring+0x1d7d>
10000b89d: 65 78 55                    	js	0x10000b8f5 <__cstring+0x1d61>
10000b8a0: 6e                          	outsb	dx, byte ptr [rsi]
10000b8a1: 6c                          	insb	byte ptr es:[rdi], dx
10000b8a2: 6f                          	outsd	dx, dword ptr [rsi]
10000b8a3: 63 6b 00                    	movsxd	ebp, dword ptr [rbx]
10000b8a6: 43 61                       	<unknown>
10000b8a8: 6e                          	outsb	dx, byte ptr [rsi]
10000b8a9: 6e                          	outsb	dx, byte ptr [rsi]
10000b8aa: 6f                          	outsd	dx, dword ptr [rsi]
10000b8ab: 74 20                       	je	0x10000b8cd <__cstring+0x1d39>
10000b8ad: 64 6c                       	insb	byte ptr es:[rdi], dx
10000b8af: 73 79                       	jae	0x10000b92a <__cstring+0x1d96>
10000b8b1: 6d                          	insd	dword ptr es:[rdi], dx
10000b8b2: 20 66 6f                    	and	byte ptr [rsi + 111], ah
10000b8b5: 72 20                       	jb	0x10000b8d7 <__cstring+0x1d43>
10000b8b7: 54                          	push	rsp
10000b8b8: 63 6c 5f 4d                 	movsxd	ebp, dword ptr [rdi + 2*rbx + 77]
10000b8bc: 75 74                       	jne	0x10000b932 <__cstring+0x1d9e>
10000b8be: 65 78 55                    	js	0x10000b916 <__cstring+0x1d82>
10000b8c1: 6e                          	outsb	dx, byte ptr [rsi]
10000b8c2: 6c                          	insb	byte ptr es:[rdi], dx
10000b8c3: 6f                          	outsd	dx, dword ptr [rsi]
10000b8c4: 63 6b 0a                    	movsxd	ebp, dword ptr [rbx + 10]
10000b8c7: 00 54 63 6c                 	add	byte ptr [rbx + 2*riz + 108], dl
10000b8cb: 5f                          	pop	rdi
10000b8cc: 43 6f                       	outsd	dx, dword ptr [rsi]
10000b8ce: 6e                          	outsb	dx, byte ptr [rsi]
10000b8cf: 64 69 74 69 6f 6e 46 69 6e  	imul	esi, dword ptr fs:[rcx + 2*rbp + 111], 1852393070
10000b8d8: 61                          	<unknown>
10000b8d9: 6c                          	insb	byte ptr es:[rdi], dx
10000b8da: 69 7a 65 00 43 61 6e        	imul	edi, dword ptr [rdx + 101], 1851867904
10000b8e1: 6e                          	outsb	dx, byte ptr [rsi]
10000b8e2: 6f                          	outsd	dx, dword ptr [rsi]
10000b8e3: 74 20                       	je	0x10000b905 <__cstring+0x1d71>
10000b8e5: 64 6c                       	insb	byte ptr es:[rdi], dx
10000b8e7: 73 79                       	jae	0x10000b962 <__cstring+0x1dce>
10000b8e9: 6d                          	insd	dword ptr es:[rdi], dx
10000b8ea: 20 66 6f                    	and	byte ptr [rsi + 111], ah
10000b8ed: 72 20                       	jb	0x10000b90f <__cstring+0x1d7b>
10000b8ef: 54                          	push	rsp
10000b8f0: 63 6c 5f 43                 	movsxd	ebp, dword ptr [rdi + 2*rbx + 67]
10000b8f4: 6f                          	outsd	dx, dword ptr [rsi]
10000b8f5: 6e                          	outsb	dx, byte ptr [rsi]
10000b8f6: 64 69 74 69 6f 6e 46 69 6e  	imul	esi, dword ptr fs:[rcx + 2*rbp + 111], 1852393070
10000b8ff: 61                          	<unknown>
10000b900: 6c                          	insb	byte ptr es:[rdi], dx
10000b901: 69 7a 65 0a 00 54 63        	imul	edi, dword ptr [rdx + 101], 1666449418
10000b908: 6c                          	insb	byte ptr es:[rdi], dx
10000b909: 5f                          	pop	rdi
10000b90a: 43 6f                       	outsd	dx, dword ptr [rsi]
10000b90c: 6e                          	outsb	dx, byte ptr [rsi]
10000b90d: 64 69 74 69 6f 6e 4e 6f 74  	imul	esi, dword ptr fs:[rcx + 2*rbp + 111], 1953451630
10000b916: 69 66 79 00 43 61 6e        	imul	esp, dword ptr [rsi + 121], 1851867904
10000b91d: 6e                          	outsb	dx, byte ptr [rsi]
10000b91e: 6f                          	outsd	dx, dword ptr [rsi]
10000b91f: 74 20                       	je	0x10000b941 <__cstring+0x1dad>
10000b921: 64 6c                       	insb	byte ptr es:[rdi], dx
10000b923: 73 79                       	jae	0x10000b99e <__cstring+0x1e0a>
10000b925: 6d                          	insd	dword ptr es:[rdi], dx
10000b926: 20 66 6f                    	and	byte ptr [rsi + 111], ah
10000b929: 72 20                       	jb	0x10000b94b <__cstring+0x1db7>
10000b92b: 54                          	push	rsp
10000b92c: 63 6c 5f 43                 	movsxd	ebp, dword ptr [rdi + 2*rbx + 67]
10000b930: 6f                          	outsd	dx, dword ptr [rsi]
10000b931: 6e                          	outsb	dx, byte ptr [rsi]
10000b932: 64 69 74 69 6f 6e 4e 6f 74  	imul	esi, dword ptr fs:[rcx + 2*rbp + 111], 1953451630
10000b93b: 69 66 79 0a 00 54 63        	imul	esp, dword ptr [rsi + 121], 1666449418
10000b942: 6c                          	insb	byte ptr es:[rdi], dx
10000b943: 5f                          	pop	rdi
10000b944: 43 6f                       	outsd	dx, dword ptr [rsi]
10000b946: 6e                          	outsb	dx, byte ptr [rsi]
10000b947: 64 69 74 69 6f 6e 57 61 69  	imul	esi, dword ptr fs:[rcx + 2*rbp + 111], 1767987054
10000b950: 74 00                       	je	0x10000b952 <__cstring+0x1dbe>
10000b952: 43 61                       	<unknown>
10000b954: 6e                          	outsb	dx, byte ptr [rsi]
10000b955: 6e                          	outsb	dx, byte ptr [rsi]
10000b956: 6f                          	outsd	dx, dword ptr [rsi]
10000b957: 74 20                       	je	0x10000b979 <__cstring+0x1de5>
10000b959: 64 6c                       	insb	byte ptr es:[rdi], dx
10000b95b: 73 79                       	jae	0x10000b9d6 <__cstring+0x1e42>
10000b95d: 6d                          	insd	dword ptr es:[rdi], dx
10000b95e: 20 66 6f                    	and	byte ptr [rsi + 111], ah
10000b961: 72 20                       	jb	0x10000b983 <__cstring+0x1def>
10000b963: 54                          	push	rsp
10000b964: 63 6c 5f 43                 	movsxd	ebp, dword ptr [rdi + 2*rbx + 67]
10000b968: 6f                          	outsd	dx, dword ptr [rsi]
10000b969: 6e                          	outsb	dx, byte ptr [rsi]
10000b96a: 64 69 74 69 6f 6e 57 61 69  	imul	esi, dword ptr fs:[rcx + 2*rbp + 111], 1767987054
10000b973: 74 0a                       	je	0x10000b97f <__cstring+0x1deb>
10000b975: 00 54 63 6c                 	add	byte ptr [rbx + 2*riz + 108], dl
10000b979: 5f                          	pop	rdi
10000b97a: 54                          	push	rsp
10000b97b: 68 72 65 61 64              	push	1684104562
10000b980: 51                          	push	rcx
10000b981: 75 65                       	jne	0x10000b9e8 <__cstring+0x1e54>
10000b983: 75 65                       	jne	0x10000b9ea <__cstring+0x1e56>
10000b985: 45 76 65                    	jbe	0x10000b9ed <__cstring+0x1e59>
10000b988: 6e                          	outsb	dx, byte ptr [rsi]
10000b989: 74 00                       	je	0x10000b98b <__cstring+0x1df7>
10000b98b: 43 61                       	<unknown>
10000b98d: 6e                          	outsb	dx, byte ptr [rsi]
10000b98e: 6e                          	outsb	dx, byte ptr [rsi]
10000b98f: 6f                          	outsd	dx, dword ptr [rsi]
10000b990: 74 20                       	je	0x10000b9b2 <__cstring+0x1e1e>
10000b992: 64 6c                       	insb	byte ptr es:[rdi], dx
10000b994: 73 79                       	jae	0x10000ba0f <__cstring+0x1e7b>
10000b996: 6d                          	insd	dword ptr es:[rdi], dx
10000b997: 20 66 6f                    	and	byte ptr [rsi + 111], ah
10000b99a: 72 20                       	jb	0x10000b9bc <__cstring+0x1e28>
10000b99c: 54                          	push	rsp
10000b99d: 63 6c 5f 54                 	movsxd	ebp, dword ptr [rdi + 2*rbx + 84]
10000b9a1: 68 72 65 61 64              	push	1684104562
10000b9a6: 51                          	push	rcx
10000b9a7: 75 65                       	jne	0x10000ba0e <__cstring+0x1e7a>
10000b9a9: 75 65                       	jne	0x10000ba10 <__cstring+0x1e7c>
10000b9ab: 45 76 65                    	jbe	0x10000ba13 <__cstring+0x1e7f>
10000b9ae: 6e                          	outsb	dx, byte ptr [rsi]
10000b9af: 74 0a                       	je	0x10000b9bb <__cstring+0x1e27>
10000b9b1: 00 54 63 6c                 	add	byte ptr [rbx + 2*riz + 108], dl
10000b9b5: 5f                          	pop	rdi
10000b9b6: 54                          	push	rsp
10000b9b7: 68 72 65 61 64              	push	1684104562
10000b9bc: 41 6c                       	insb	byte ptr es:[rdi], dx
10000b9be: 65 72 74                    	jb	0x10000ba35 <__cstring+0x1ea1>
10000b9c1: 00 43 61                    	add	byte ptr [rbx + 97], al
10000b9c4: 6e                          	outsb	dx, byte ptr [rsi]
10000b9c5: 6e                          	outsb	dx, byte ptr [rsi]
10000b9c6: 6f                          	outsd	dx, dword ptr [rsi]
10000b9c7: 74 20                       	je	0x10000b9e9 <__cstring+0x1e55>
10000b9c9: 64 6c                       	insb	byte ptr es:[rdi], dx
10000b9cb: 73 79                       	jae	0x10000ba46 <__cstring+0x1eb2>
10000b9cd: 6d                          	insd	dword ptr es:[rdi], dx
10000b9ce: 20 66 6f                    	and	byte ptr [rsi + 111], ah
10000b9d1: 72 20                       	jb	0x10000b9f3 <__cstring+0x1e5f>
10000b9d3: 54                          	push	rsp
10000b9d4: 63 6c 5f 54                 	movsxd	ebp, dword ptr [rdi + 2*rbx + 84]
10000b9d8: 68 72 65 61 64              	push	1684104562
10000b9dd: 41 6c                       	insb	byte ptr es:[rdi], dx
10000b9df: 65 72 74                    	jb	0x10000ba56 <__cstring+0x1ec2>
10000b9e2: 0a 00                       	or	al, byte ptr [rax]
10000b9e4: 54                          	push	rsp
10000b9e5: 63 6c 5f 47                 	movsxd	ebp, dword ptr [rdi + 2*rbx + 71]
10000b9e9: 65 74 56                    	je	0x10000ba42 <__cstring+0x1eae>
10000b9ec: 61                          	<unknown>
10000b9ed: 72 32                       	jb	0x10000ba21 <__cstring+0x1e8d>
10000b9ef: 00 43 61                    	add	byte ptr [rbx + 97], al
10000b9f2: 6e                          	outsb	dx, byte ptr [rsi]
10000b9f3: 6e                          	outsb	dx, byte ptr [rsi]
10000b9f4: 6f                          	outsd	dx, dword ptr [rsi]
10000b9f5: 74 20                       	je	0x10000ba17 <__cstring+0x1e83>
10000b9f7: 64 6c                       	insb	byte ptr es:[rdi], dx
10000b9f9: 73 79                       	jae	0x10000ba74 <__cstring+0x1ee0>
10000b9fb: 6d                          	insd	dword ptr es:[rdi], dx
10000b9fc: 20 66 6f                    	and	byte ptr [rsi + 111], ah
10000b9ff: 72 20                       	jb	0x10000ba21 <__cstring+0x1e8d>
10000ba01: 54                          	push	rsp
10000ba02: 63 6c 5f 47                 	movsxd	ebp, dword ptr [rdi + 2*rbx + 71]
10000ba06: 65 74 56                    	je	0x10000ba5f <__cstring+0x1ecb>
10000ba09: 61                          	<unknown>
10000ba0a: 72 32                       	jb	0x10000ba3e <__cstring+0x1eaa>
10000ba0c: 0a 00                       	or	al, byte ptr [rax]
10000ba0e: 54                          	push	rsp
10000ba0f: 63 6c 5f 53                 	movsxd	ebp, dword ptr [rdi + 2*rbx + 83]
10000ba13: 65 74 56                    	je	0x10000ba6c <__cstring+0x1ed8>
10000ba16: 61                          	<unknown>
10000ba17: 72 32                       	jb	0x10000ba4b <__cstring+0x1eb7>
10000ba19: 00 43 61                    	add	byte ptr [rbx + 97], al
10000ba1c: 6e                          	outsb	dx, byte ptr [rsi]
10000ba1d: 6e                          	outsb	dx, byte ptr [rsi]
10000ba1e: 6f                          	outsd	dx, dword ptr [rsi]
10000ba1f: 74 20                       	je	0x10000ba41 <__cstring+0x1ead>
10000ba21: 64 6c                       	insb	byte ptr es:[rdi], dx
10000ba23: 73 79                       	jae	0x10000ba9e <__cstring+0x1f0a>
10000ba25: 6d                          	insd	dword ptr es:[rdi], dx
10000ba26: 20 66 6f                    	and	byte ptr [rsi + 111], ah
10000ba29: 72 20                       	jb	0x10000ba4b <__cstring+0x1eb7>
10000ba2b: 54                          	push	rsp
10000ba2c: 63 6c 5f 53                 	movsxd	ebp, dword ptr [rdi + 2*rbx + 83]
10000ba30: 65 74 56                    	je	0x10000ba89 <__cstring+0x1ef5>
10000ba33: 61                          	<unknown>
10000ba34: 72 32                       	jb	0x10000ba68 <__cstring+0x1ed4>
10000ba36: 0a 00                       	or	al, byte ptr [rax]
10000ba38: 54                          	push	rsp
10000ba39: 63 6c 5f 43                 	movsxd	ebp, dword ptr [rdi + 2*rbx + 67]
10000ba3d: 72 65                       	jb	0x10000baa4 <__cstring+0x1f10>
10000ba3f: 61                          	<unknown>
10000ba40: 74 65                       	je	0x10000baa7 <__cstring+0x1f13>
10000ba42: 4f 62                       	<unknown>
10000ba44: 6a 43                       	push	67
10000ba46: 6f                          	outsd	dx, dword ptr [rsi]
10000ba47: 6d                          	insd	dword ptr es:[rdi], dx
10000ba48: 6d                          	insd	dword ptr es:[rdi], dx
10000ba49: 61                          	<unknown>
10000ba4a: 6e                          	outsb	dx, byte ptr [rsi]
10000ba4b: 64 00 43 61                 	add	byte ptr fs:[rbx + 97], al
10000ba4f: 6e                          	outsb	dx, byte ptr [rsi]
10000ba50: 6e                          	outsb	dx, byte ptr [rsi]
10000ba51: 6f                          	outsd	dx, dword ptr [rsi]
10000ba52: 74 20                       	je	0x10000ba74 <__cstring+0x1ee0>
10000ba54: 64 6c                       	insb	byte ptr es:[rdi], dx
10000ba56: 73 79                       	jae	0x10000bad1 <__cstring+0x1f3d>
10000ba58: 6d                          	insd	dword ptr es:[rdi], dx
10000ba59: 20 66 6f                    	and	byte ptr [rsi + 111], ah
10000ba5c: 72 20                       	jb	0x10000ba7e <__cstring+0x1eea>
10000ba5e: 54                          	push	rsp
10000ba5f: 63 6c 5f 43                 	movsxd	ebp, dword ptr [rdi + 2*rbx + 67]
10000ba63: 72 65                       	jb	0x10000baca <__cstring+0x1f36>
10000ba65: 61                          	<unknown>
10000ba66: 74 65                       	je	0x10000bacd <__cstring+0x1f39>
10000ba68: 4f 62                       	<unknown>
10000ba6a: 6a 43                       	push	67
10000ba6c: 6f                          	outsd	dx, dword ptr [rsi]
10000ba6d: 6d                          	insd	dword ptr es:[rdi], dx
10000ba6e: 6d                          	insd	dword ptr es:[rdi], dx
10000ba6f: 61                          	<unknown>
10000ba70: 6e                          	outsb	dx, byte ptr [rsi]
10000ba71: 64 0a 00                    	or	al, byte ptr fs:[rax]
10000ba74: 54                          	push	rsp
10000ba75: 63 6c 5f 47                 	movsxd	ebp, dword ptr [rdi + 2*rbx + 71]
10000ba79: 65 74 53                    	je	0x10000bacf <__cstring+0x1f3b>
10000ba7c: 74 72                       	je	0x10000baf0 <__cstring+0x1f5c>
10000ba7e: 69 6e 67 00 43 61 6e        	imul	ebp, dword ptr [rsi + 103], 1851867904
10000ba85: 6e                          	outsb	dx, byte ptr [rsi]
10000ba86: 6f                          	outsd	dx, dword ptr [rsi]
10000ba87: 74 20                       	je	0x10000baa9 <__cstring+0x1f15>
10000ba89: 64 6c                       	insb	byte ptr es:[rdi], dx
10000ba8b: 73 79                       	jae	0x10000bb06 <__cstring+0x1f72>
10000ba8d: 6d                          	insd	dword ptr es:[rdi], dx
10000ba8e: 20 66 6f                    	and	byte ptr [rsi + 111], ah
10000ba91: 72 20                       	jb	0x10000bab3 <__cstring+0x1f1f>
10000ba93: 54                          	push	rsp
10000ba94: 63 6c 5f 47                 	movsxd	ebp, dword ptr [rdi + 2*rbx + 71]
10000ba98: 65 74 53                    	je	0x10000baee <__cstring+0x1f5a>
10000ba9b: 74 72                       	je	0x10000bb0f <__cstring+0x1f7b>
10000ba9d: 69 6e 67 0a 00 54 63        	imul	ebp, dword ptr [rsi + 103], 1666449418
10000baa4: 6c                          	insb	byte ptr es:[rdi], dx
10000baa5: 5f                          	pop	rdi
10000baa6: 4e 65                       	gs
10000baa8: 77 53                       	ja	0x10000bafd <__cstring+0x1f69>
10000baaa: 74 72                       	je	0x10000bb1e <__cstring+0x1f8a>
10000baac: 69 6e 67 4f 62 6a 00        	imul	ebp, dword ptr [rsi + 103], 6971983
10000bab3: 43 61                       	<unknown>
10000bab5: 6e                          	outsb	dx, byte ptr [rsi]
10000bab6: 6e                          	outsb	dx, byte ptr [rsi]
10000bab7: 6f                          	outsd	dx, dword ptr [rsi]
10000bab8: 74 20                       	je	0x10000bada <__cstring+0x1f46>
10000baba: 64 6c                       	insb	byte ptr es:[rdi], dx
10000babc: 73 79                       	jae	0x10000bb37 <__cstring+0x1fa3>
10000babe: 6d                          	insd	dword ptr es:[rdi], dx
10000babf: 20 66 6f                    	and	byte ptr [rsi + 111], ah
10000bac2: 72 20                       	jb	0x10000bae4 <__cstring+0x1f50>
10000bac4: 54                          	push	rsp
10000bac5: 63 6c 5f 4e                 	movsxd	ebp, dword ptr [rdi + 2*rbx + 78]
10000bac9: 65 77 53                    	ja	0x10000bb1f <__cstring+0x1f8b>
10000bacc: 74 72                       	je	0x10000bb40 <__cstring+0x1fac>
10000bace: 69 6e 67 4f 62 6a 0a        	imul	ebp, dword ptr [rsi + 103], 174744143
10000bad5: 00 54 63 6c                 	add	byte ptr [rbx + 2*riz + 108], dl
10000bad9: 5f                          	pop	rdi
10000bada: 4e 65                       	gs
10000badc: 77 42                       	ja	0x10000bb20 <__cstring+0x1f8c>
10000bade: 79 74                       	jns	0x10000bb54 <__cstring+0x1fc0>
10000bae0: 65 41 72 72                 	jb	0x10000bb56 <__cstring+0x1fc2>
10000bae4: 61                          	<unknown>
10000bae5: 79 4f                       	jns	0x10000bb36 <__cstring+0x1fa2>
10000bae7: 62                          	<unknown>
10000bae8: 6a 00                       	push	0
10000baea: 43 61                       	<unknown>
10000baec: 6e                          	outsb	dx, byte ptr [rsi]
10000baed: 6e                          	outsb	dx, byte ptr [rsi]
10000baee: 6f                          	outsd	dx, dword ptr [rsi]
10000baef: 74 20                       	je	0x10000bb11 <__cstring+0x1f7d>
10000baf1: 64 6c                       	insb	byte ptr es:[rdi], dx
10000baf3: 73 79                       	jae	0x10000bb6e <__cstring+0x1fda>
10000baf5: 6d                          	insd	dword ptr es:[rdi], dx
10000baf6: 20 66 6f                    	and	byte ptr [rsi + 111], ah
10000baf9: 72 20                       	jb	0x10000bb1b <__cstring+0x1f87>
10000bafb: 54                          	push	rsp
10000bafc: 63 6c 5f 4e                 	movsxd	ebp, dword ptr [rdi + 2*rbx + 78]
10000bb00: 65 77 42                    	ja	0x10000bb45 <__cstring+0x1fb1>
10000bb03: 79 74                       	jns	0x10000bb79 <__cstring+0x1fe5>
10000bb05: 65 41 72 72                 	jb	0x10000bb7b <__cstring+0x1fe7>
10000bb09: 61                          	<unknown>
10000bb0a: 79 4f                       	jns	0x10000bb5b <__cstring+0x1fc7>
10000bb0c: 62                          	<unknown>
10000bb0d: 6a 0a                       	push	10
10000bb0f: 00 54 63 6c                 	add	byte ptr [rbx + 2*riz + 108], dl
10000bb13: 5f                          	pop	rdi
10000bb14: 53                          	push	rbx
10000bb15: 65 74 56                    	je	0x10000bb6e <__cstring+0x1fda>
10000bb18: 61                          	<unknown>
10000bb19: 72 32                       	jb	0x10000bb4d <__cstring+0x1fb9>
10000bb1b: 45 78 00                    	js	0x10000bb1e <__cstring+0x1f8a>
10000bb1e: 43 61                       	<unknown>
10000bb20: 6e                          	outsb	dx, byte ptr [rsi]
10000bb21: 6e                          	outsb	dx, byte ptr [rsi]
10000bb22: 6f                          	outsd	dx, dword ptr [rsi]
10000bb23: 74 20                       	je	0x10000bb45 <__cstring+0x1fb1>
10000bb25: 64 6c                       	insb	byte ptr es:[rdi], dx
10000bb27: 73 79                       	jae	0x10000bba2 <__cstring+0x200e>
10000bb29: 6d                          	insd	dword ptr es:[rdi], dx
10000bb2a: 20 66 6f                    	and	byte ptr [rsi + 111], ah
10000bb2d: 72 20                       	jb	0x10000bb4f <__cstring+0x1fbb>
10000bb2f: 54                          	push	rsp
10000bb30: 63 6c 5f 53                 	movsxd	ebp, dword ptr [rdi + 2*rbx + 83]
10000bb34: 65 74 56                    	je	0x10000bb8d <__cstring+0x1ff9>
10000bb37: 61                          	<unknown>
10000bb38: 72 32                       	jb	0x10000bb6c <__cstring+0x1fd8>
10000bb3a: 45 78 0a                    	js	0x10000bb47 <__cstring+0x1fb3>
10000bb3d: 00 54 63 6c                 	add	byte ptr [rbx + 2*riz + 108], dl
10000bb41: 5f                          	pop	rdi
10000bb42: 47 65                       	gs
10000bb44: 74 4f                       	je	0x10000bb95 <__cstring+0x2001>
10000bb46: 62                          	<unknown>
10000bb47: 6a 52                       	push	82
10000bb49: 65 73 75                    	jae	0x10000bbc1 <__cstring+0x202d>
10000bb4c: 6c                          	insb	byte ptr es:[rdi], dx
10000bb4d: 74 00                       	je	0x10000bb4f <__cstring+0x1fbb>
10000bb4f: 43 61                       	<unknown>
10000bb51: 6e                          	outsb	dx, byte ptr [rsi]
10000bb52: 6e                          	outsb	dx, byte ptr [rsi]
10000bb53: 6f                          	outsd	dx, dword ptr [rsi]
10000bb54: 74 20                       	je	0x10000bb76 <__cstring+0x1fe2>
10000bb56: 64 6c                       	insb	byte ptr es:[rdi], dx
10000bb58: 73 79                       	jae	0x10000bbd3 <__cstring+0x203f>
10000bb5a: 6d                          	insd	dword ptr es:[rdi], dx
10000bb5b: 20 66 6f                    	and	byte ptr [rsi + 111], ah
10000bb5e: 72 20                       	jb	0x10000bb80 <__cstring+0x1fec>
10000bb60: 54                          	push	rsp
10000bb61: 63 6c 5f 47                 	movsxd	ebp, dword ptr [rdi + 2*rbx + 71]
10000bb65: 65 74 4f                    	je	0x10000bbb7 <__cstring+0x2023>
10000bb68: 62                          	<unknown>
10000bb69: 6a 52                       	push	82
10000bb6b: 65 73 75                    	jae	0x10000bbe3 <__cstring+0x204f>
10000bb6e: 6c                          	insb	byte ptr es:[rdi], dx
10000bb6f: 74 0a                       	je	0x10000bb7b <__cstring+0x1fe7>
10000bb71: 00 54 63 6c                 	add	byte ptr [rbx + 2*riz + 108], dl
10000bb75: 5f                          	pop	rdi
10000bb76: 45 76 61                    	jbe	0x10000bbda <__cstring+0x2046>
10000bb79: 6c                          	insb	byte ptr es:[rdi], dx
10000bb7a: 46 69 6c 65 00 43 61 6e 6e  	imul	r13d, dword ptr [rbp + 2*r12], 1852727619
10000bb83: 6f                          	outsd	dx, dword ptr [rsi]
10000bb84: 74 20                       	je	0x10000bba6 <__cstring+0x2012>
10000bb86: 64 6c                       	insb	byte ptr es:[rdi], dx
10000bb88: 73 79                       	jae	0x10000bc03 <__cstring+0x206f>
10000bb8a: 6d                          	insd	dword ptr es:[rdi], dx
10000bb8b: 20 66 6f                    	and	byte ptr [rsi + 111], ah
10000bb8e: 72 20                       	jb	0x10000bbb0 <__cstring+0x201c>
10000bb90: 54                          	push	rsp
10000bb91: 63 6c 5f 45                 	movsxd	ebp, dword ptr [rdi + 2*rbx + 69]
10000bb95: 76 61                       	jbe	0x10000bbf8 <__cstring+0x2064>
10000bb97: 6c                          	insb	byte ptr es:[rdi], dx
10000bb98: 46 69 6c 65 0a 00 54 63 6c  	imul	r13d, dword ptr [rbp + 2*r12 + 10], 1818448896
10000bba1: 5f                          	pop	rdi
10000bba2: 45 76 61                    	jbe	0x10000bc06 <__cstring+0x2072>
10000bba5: 6c                          	insb	byte ptr es:[rdi], dx
10000bba6: 45 78 00                    	js	0x10000bba9 <__cstring+0x2015>
10000bba9: 43 61                       	<unknown>
10000bbab: 6e                          	outsb	dx, byte ptr [rsi]
10000bbac: 6e                          	outsb	dx, byte ptr [rsi]
10000bbad: 6f                          	outsd	dx, dword ptr [rsi]
10000bbae: 74 20                       	je	0x10000bbd0 <__cstring+0x203c>
10000bbb0: 64 6c                       	insb	byte ptr es:[rdi], dx
10000bbb2: 73 79                       	jae	0x10000bc2d <__cstring+0x2099>
10000bbb4: 6d                          	insd	dword ptr es:[rdi], dx
10000bbb5: 20 66 6f                    	and	byte ptr [rsi + 111], ah
10000bbb8: 72 20                       	jb	0x10000bbda <__cstring+0x2046>
10000bbba: 54                          	push	rsp
10000bbbb: 63 6c 5f 45                 	movsxd	ebp, dword ptr [rdi + 2*rbx + 69]
10000bbbf: 76 61                       	jbe	0x10000bc22 <__cstring+0x208e>
10000bbc1: 6c                          	insb	byte ptr es:[rdi], dx
10000bbc2: 45 78 0a                    	js	0x10000bbcf <__cstring+0x203b>
10000bbc5: 00 54 63 6c                 	add	byte ptr [rbx + 2*riz + 108], dl
10000bbc9: 5f                          	pop	rdi
10000bbca: 45 76 61                    	jbe	0x10000bc2e <__cstring+0x209a>
10000bbcd: 6c                          	insb	byte ptr es:[rdi], dx
10000bbce: 4f 62                       	<unknown>
10000bbd0: 6a 76                       	push	118
10000bbd2: 00 43 61                    	add	byte ptr [rbx + 97], al
10000bbd5: 6e                          	outsb	dx, byte ptr [rsi]
10000bbd6: 6e                          	outsb	dx, byte ptr [rsi]
10000bbd7: 6f                          	outsd	dx, dword ptr [rsi]
10000bbd8: 74 20                       	je	0x10000bbfa <__cstring+0x2066>
10000bbda: 64 6c                       	insb	byte ptr es:[rdi], dx
10000bbdc: 73 79                       	jae	0x10000bc57 <__cstring+0x20c3>
10000bbde: 6d                          	insd	dword ptr es:[rdi], dx
10000bbdf: 20 66 6f                    	and	byte ptr [rsi + 111], ah
10000bbe2: 72 20                       	jb	0x10000bc04 <__cstring+0x2070>
10000bbe4: 54                          	push	rsp
10000bbe5: 63 6c 5f 45                 	movsxd	ebp, dword ptr [rdi + 2*rbx + 69]
10000bbe9: 76 61                       	jbe	0x10000bc4c <__cstring+0x20b8>
10000bbeb: 6c                          	insb	byte ptr es:[rdi], dx
10000bbec: 4f 62                       	<unknown>
10000bbee: 6a 76                       	push	118
10000bbf0: 0a 00                       	or	al, byte ptr [rax]
10000bbf2: 54                          	push	rsp
10000bbf3: 63 6c 5f 41                 	movsxd	ebp, dword ptr [rdi + 2*rbx + 65]
10000bbf7: 6c                          	insb	byte ptr es:[rdi], dx
10000bbf8: 6c                          	insb	byte ptr es:[rdi], dx
10000bbf9: 6f                          	outsd	dx, dword ptr [rsi]
10000bbfa: 63 00                       	movsxd	eax, dword ptr [rax]
10000bbfc: 43 61                       	<unknown>
10000bbfe: 6e                          	outsb	dx, byte ptr [rsi]
10000bbff: 6e                          	outsb	dx, byte ptr [rsi]
10000bc00: 6f                          	outsd	dx, dword ptr [rsi]
10000bc01: 74 20                       	je	0x10000bc23 <__cstring+0x208f>
10000bc03: 64 6c                       	insb	byte ptr es:[rdi], dx
10000bc05: 73 79                       	jae	0x10000bc80 <__cstring+0x20ec>
10000bc07: 6d                          	insd	dword ptr es:[rdi], dx
10000bc08: 20 66 6f                    	and	byte ptr [rsi + 111], ah
10000bc0b: 72 20                       	jb	0x10000bc2d <__cstring+0x2099>
10000bc0d: 54                          	push	rsp
10000bc0e: 63 6c 5f 41                 	movsxd	ebp, dword ptr [rdi + 2*rbx + 65]
10000bc12: 6c                          	insb	byte ptr es:[rdi], dx
10000bc13: 6c                          	insb	byte ptr es:[rdi], dx
10000bc14: 6f                          	outsd	dx, dword ptr [rsi]
10000bc15: 63 0a                       	movsxd	ecx, dword ptr [rdx]
10000bc17: 00 54 63 6c                 	add	byte ptr [rbx + 2*riz + 108], dl
10000bc1b: 5f                          	pop	rdi
10000bc1c: 46 72 65                    	jb	0x10000bc84 <__cstring+0x20f0>
10000bc1f: 65 00 43 61                 	add	byte ptr gs:[rbx + 97], al
10000bc23: 6e                          	outsb	dx, byte ptr [rsi]
10000bc24: 6e                          	outsb	dx, byte ptr [rsi]
10000bc25: 6f                          	outsd	dx, dword ptr [rsi]
10000bc26: 74 20                       	je	0x10000bc48 <__cstring+0x20b4>
10000bc28: 64 6c                       	insb	byte ptr es:[rdi], dx
10000bc2a: 73 79                       	jae	0x10000bca5 <__cstring+0x2111>
10000bc2c: 6d                          	insd	dword ptr es:[rdi], dx
10000bc2d: 20 66 6f                    	and	byte ptr [rsi + 111], ah
10000bc30: 72 20                       	jb	0x10000bc52 <__cstring+0x20be>
10000bc32: 54                          	push	rsp
10000bc33: 63 6c 5f 46                 	movsxd	ebp, dword ptr [rdi + 2*rbx + 70]
10000bc37: 72 65                       	jb	0x10000bc9e <__cstring+0x210a>
10000bc39: 65 0a 00                    	or	al, byte ptr gs:[rax]
10000bc3c: 54                          	push	rsp
10000bc3d: 6b 5f 49 6e                 	imul	ebx, dword ptr [rdi + 73], 110
10000bc41: 69 74 00 43 61 6e 6e 6f     	imul	esi, dword ptr [rax + rax + 67], 1869508193
10000bc49: 74 20                       	je	0x10000bc6b <__cstring+0x20d7>
10000bc4b: 64 6c                       	insb	byte ptr es:[rdi], dx
10000bc4d: 73 79                       	jae	0x10000bcc8 <__cstring+0x2134>
10000bc4f: 6d                          	insd	dword ptr es:[rdi], dx
10000bc50: 20 66 6f                    	and	byte ptr [rsi + 111], ah
10000bc53: 72 20                       	jb	0x10000bc75 <__cstring+0x20e1>
10000bc55: 54                          	push	rsp
10000bc56: 6b 5f 49 6e                 	imul	ebx, dword ptr [rdi + 73], 110
10000bc5a: 69 74 0a 00 54 6b 5f 47     	imul	esi, dword ptr [rdx + rcx], 1197435732
10000bc62: 65 74 4e                    	je	0x10000bcb3 <__cstring+0x211f>
10000bc65: 75 6d                       	jne	0x10000bcd4 <__cstring+0x2140>
10000bc67: 4d 61                       	<unknown>
10000bc69: 69 6e 57 69 6e 64 6f        	imul	ebp, dword ptr [rsi + 87], 1868852841
10000bc70: 77 73                       	ja	0x10000bce5 <__cstring+0x2151>
10000bc72: 00 43 61                    	add	byte ptr [rbx + 97], al
10000bc75: 6e                          	outsb	dx, byte ptr [rsi]
10000bc76: 6e                          	outsb	dx, byte ptr [rsi]
10000bc77: 6f                          	outsd	dx, dword ptr [rsi]
10000bc78: 74 20                       	je	0x10000bc9a <__cstring+0x2106>
10000bc7a: 64 6c                       	insb	byte ptr es:[rdi], dx
10000bc7c: 73 79                       	jae	0x10000bcf7 <__cstring+0x2163>
10000bc7e: 6d                          	insd	dword ptr es:[rdi], dx
10000bc7f: 20 66 6f                    	and	byte ptr [rsi + 111], ah
10000bc82: 72 20                       	jb	0x10000bca4 <__cstring+0x2110>
10000bc84: 54                          	push	rsp
10000bc85: 6b 5f 47 65                 	imul	ebx, dword ptr [rdi + 71], 101
10000bc89: 74 4e                       	je	0x10000bcd9 <__cstring+0x2145>
10000bc8b: 75 6d                       	jne	0x10000bcfa <__cstring+0x2166>
10000bc8d: 4d 61                       	<unknown>
10000bc8f: 69 6e 57 69 6e 64 6f        	imul	ebp, dword ptr [rsi + 87], 1868852841
10000bc96: 77 73                       	ja	0x10000bd0b <__cstring+0x2177>
10000bc98: 0a 00                       	or	al, byte ptr [rax]
10000bc9a: 25 73 25 63 00              	and	eax, 6497651
10000bc9f: 25 2e 2a 73 00              	and	eax, 7547438
10000bca4: 54                          	push	rsp
10000bca5: 4d 50                       	push	r8
10000bca7: 44 49                       	<unknown>
10000bca9: 52                          	push	rdx
10000bcaa: 00 54 45 4d                 	add	byte ptr [rbp + 2*rax + 77], dl
10000bcae: 50                          	push	rax
10000bcaf: 00 54 4d 50                 	add	byte ptr [rbp + 2*rcx + 80], dl
10000bcb3: 00 2f                       	add	byte ptr [rdi], ch
10000bcb5: 74 6d                       	je	0x10000bd24 <__cstring+0x2190>
10000bcb7: 70 00                       	jo	0x10000bcb9 <__cstring+0x2125>
10000bcb9: 2f                          	<unknown>
10000bcba: 76 61                       	jbe	0x10000bd1d <__cstring+0x2189>
10000bcbc: 72 2f                       	jb	0x10000bced <__cstring+0x2159>
10000bcbe: 74 6d                       	je	0x10000bd2d <__cstring+0x2199>
10000bcc0: 70 00                       	jo	0x10000bcc2 <__cstring+0x212e>
10000bcc2: 2f                          	<unknown>
10000bcc3: 75 73                       	jne	0x10000bd38 <__cstring+0x21a4>
10000bcc5: 72 2f                       	jb	0x10000bcf6 <__cstring+0x2162>
10000bcc7: 74 6d                       	je	0x10000bd36 <__cstring+0x21a2>
10000bcc9: 70 00                       	jo	0x10000bccb <__cstring+0x2137>
10000bccb: 46 61                       	<unknown>
10000bccd: 69 6c 65 64 20 74 6f 20     	imul	ebp, dword ptr [rbp + 2*riz + 100], 544175136
10000bcd5: 63 72 65                    	movsxd	esi, dword ptr [rdx + 101]
10000bcd8: 61                          	<unknown>
10000bcd9: 74 65                       	je	0x10000bd40 <__cstring+0x21ac>
10000bcdb: 20 6f 72                    	and	byte ptr [rdi + 114], ch
10000bcde: 20 72 65                    	and	byte ptr [rdx + 101], dh
10000bce1: 73 6f                       	jae	0x10000bd52 <__cstring+0x21be>
10000bce3: 6c                          	insb	byte ptr es:[rdi], dx
10000bce4: 76 65                       	jbe	0x10000bd4b <__cstring+0x21b7>
10000bce6: 20 72 75                    	and	byte ptr [rdx + 117], dh
10000bce9: 6e                          	outsb	dx, byte ptr [rsi]
10000bcea: 74 69                       	je	0x10000bd55 <__cstring+0x21c1>
10000bcec: 6d                          	insd	dword ptr es:[rdi], dx
10000bced: 65 5f                       	pop	rdi
10000bcef: 74 6d                       	je	0x10000bd5e <__cstring+0x21ca>
10000bcf1: 70 64                       	jo	0x10000bd57 <__cstring+0x21c3>
10000bcf3: 69 72 20 66 72 6f 6d        	imul	esi, dword ptr [rdx + 32], 1836020326
10000bcfa: 20 67 69                    	and	byte ptr [rdi + 105], ah
10000bcfd: 76 65                       	jbe	0x10000bd64 <__cstring+0x21d0>
10000bcff: 6e                          	outsb	dx, byte ptr [rsi]
10000bd00: 20 70 61                    	and	byte ptr [rax + 97], dh
10000bd03: 74 68                       	je	0x10000bd6d <__cstring+0x21d9>
10000bd05: 3a 20                       	cmp	ah, byte ptr [rax]
10000bd07: 25 73 0a 00 4c              	and	eax, 1275071091
10000bd0c: 65 6e                       	outsb	dx, byte ptr gs:[rsi]
10000bd0e: 67 74 68                    	addr32		je	0x10000bd79 <__cstring+0x21e5>
10000bd11: 20 6f 66                    	and	byte ptr [rdi + 102], ch
10000bd14: 20 72 65                    	and	byte ptr [rdx + 101], dh
10000bd17: 73 6f                       	jae	0x10000bd88 <__cstring+0x21f4>
10000bd19: 6c                          	insb	byte ptr es:[rdi], dx
10000bd1a: 76 65                       	jbe	0x10000bd81 <__cstring+0x21ed>
10000bd1c: 64 20 72 75                 	and	byte ptr fs:[rdx + 117], dh
10000bd20: 6e                          	outsb	dx, byte ptr [rsi]
10000bd21: 74 69                       	je	0x10000bd8c <__cstring+0x21f8>
10000bd23: 6d                          	insd	dword ptr es:[rdi], dx
10000bd24: 65 5f                       	pop	rdi
10000bd26: 74 6d                       	je	0x10000bd95 <__cstring+0x2201>
10000bd28: 70 64                       	jo	0x10000bd8e <__cstring+0x21fa>
10000bd2a: 69 72 20 65 78 63 65        	imul	esi, dword ptr [rdx + 32], 1701017701
10000bd31: 65 64 73 20                 	jae	0x10000bd55 <__cstring+0x21c1>
10000bd35: 6d                          	insd	dword ptr es:[rdi], dx
10000bd36: 61                          	<unknown>
10000bd37: 78 69                       	js	0x10000bda2 <__cstring+0x220e>
10000bd39: 6d                          	insd	dword ptr es:[rdi], dx
10000bd3a: 75 6d                       	jne	0x10000bda9 <__cstring+0x2215>
10000bd3c: 20 70 61                    	and	byte ptr [rax + 97], dh
10000bd3f: 74 68                       	je	0x10000bda9 <__cstring+0x2215>
10000bd41: 20 6c 65 6e                 	and	byte ptr [rbp + 2*riz + 110], ch
10000bd45: 67 74 68                    	addr32		je	0x10000bdb0 <__cstring+0x221c>
10000bd48: 21 0a                       	and	dword ptr [rdx], ecx
10000bd4a: 00 2e                       	add	byte ptr [rsi], ch
10000bd4c: 00 2e                       	add	byte ptr [rsi], ch
10000bd4e: 2e 00 4c 4f 41              	add	byte ptr cs:[rdi + 2*rcx + 65], cl
10000bd53: 44 45                       	<unknown>
10000bd55: 52                          	push	rdx
10000bd56: 3a 20                       	cmp	ah, byte ptr [rax]
10000bd58: 66 61                       	<unknown>
10000bd5a: 69 6c 65 64 20 74 6f 20     	imul	ebp, dword ptr [rbp + 2*riz + 100], 544175136
10000bd62: 66 6f                       	outsw	dx, word ptr [rsi]
10000bd64: 72 6b                       	jb	0x10000bdd1 <__cstring+0x223d>
10000bd66: 20 63 68                    	and	byte ptr [rbx + 104], ah
10000bd69: 69 6c 64 20 70 72 6f 63     	imul	ebp, dword ptr [rsp + 2*riz + 32], 1668248176
10000bd71: 65 73 73                    	jae	0x10000bde7 <__cstring+0x2253>
10000bd74: 3a 20                       	cmp	ah, byte ptr [rax]
10000bd76: 25 73 0a 00 57              	and	eax, 1459620467
10000bd7b: 41 52                       	push	r10
10000bd7d: 4e 49                       	<unknown>
10000bd7f: 4e 47                       	<unknown>
10000bd81: 3a 20                       	cmp	ah, byte ptr [rax]
10000bd83: 61                          	<unknown>
10000bd84: 70 70                       	jo	0x10000bdf6 <__cstring+0x2262>
10000bd86: 6c                          	insb	byte ptr es:[rdi], dx
10000bd87: 69 63 61 74 69 6f 6e        	imul	esp, dword ptr [rbx + 97], 1852795252
10000bd8e: 20 69 73                    	and	byte ptr [rcx + 115], ch
10000bd91: 20 73 74                    	and	byte ptr [rbx + 116], dh
10000bd94: 61                          	<unknown>
10000bd95: 72 74                       	jb	0x10000be0b <__cstring+0x2277>
10000bd97: 65 64 20 62 79              	and	byte ptr fs:[rdx + 121], ah
10000bd9c: 20 73 79                    	and	byte ptr [rbx + 121], dh
10000bd9f: 73 74                       	jae	0x10000be15 <__cstring+0x2281>
10000bda1: 65 6d                       	insd	dword ptr es:[rdi], dx
10000bda3: 64 20 73 6f                 	and	byte ptr fs:[rbx + 111], dh
10000bda7: 63 6b 65                    	movsxd	ebp, dword ptr [rbx + 101]
10000bdaa: 74 2c                       	je	0x10000bdd8 <__cstring+0x2244>
10000bdac: 20 62 75                    	and	byte ptr [rdx + 117], ah
10000bdaf: 74 20                       	je	0x10000bdd1 <__cstring+0x223d>
10000bdb1: 77 65                       	ja	0x10000be18 <__cstring+0x2284>
10000bdb3: 20 63 61                    	and	byte ptr [rbx + 97], ah
10000bdb6: 6e                          	outsb	dx, byte ptr [rsi]
10000bdb7: 6e                          	outsb	dx, byte ptr [rsi]
10000bdb8: 6f                          	outsd	dx, dword ptr [rsi]
10000bdb9: 74 20                       	je	0x10000bddb <__cstring+0x2247>
10000bdbb: 73 65                       	jae	0x10000be22 <__cstring+0x228e>
10000bdbd: 74 20                       	je	0x10000bddf <__cstring+0x224b>
10000bdbf: 70 72                       	jo	0x10000be33 <__cstring+0x229f>
10000bdc1: 6f                          	outsd	dx, dword ptr [rsi]
10000bdc2: 70 65                       	jo	0x10000be29 <__cstring+0x2295>
10000bdc4: 72 20                       	jb	0x10000bde6 <__cstring+0x2252>
10000bdc6: 4c 49                       	<unknown>
10000bdc8: 53                          	push	rbx
10000bdc9: 54                          	push	rsp
10000bdca: 45 4e                       	<unknown>
10000bdcc: 5f                          	pop	rdi
10000bdcd: 50                          	push	rax
10000bdce: 49 44                       	<unknown>
10000bdd0: 20 6f 6e                    	and	byte ptr [rdi + 110], ch
10000bdd3: 20 69 74                    	and	byte ptr [rcx + 116], ch
10000bdd6: 2e 0a 00                    	or	al, byte ptr cs:[rax]
10000bdd9: 4c 4f                       	<unknown>
10000bddb: 41 44                       	<unknown>
10000bddd: 45 52                       	push	r10
10000bddf: 3a 20                       	cmp	ah, byte ptr [rax]
10000bde1: 66 61                       	<unknown>
10000bde3: 69 6c 65 64 20 74 6f 20     	imul	ebp, dword ptr [rbp + 2*riz + 100], 544175136
10000bdeb: 65 78 65                    	js	0x10000be53 <__cstring+0x22bf>
10000bdee: 63 3a                       	movsxd	edi, dword ptr [rdx]
10000bdf0: 20 25 73 0a 00 4c           	and	byte ptr [rip + 1275071091], ah ## 0x14c00c869 <dyld_stub_binder+0x14c00c869>
10000bdf6: 4f 41                       	<unknown>
10000bdf8: 44 45                       	<unknown>
10000bdfa: 52                          	push	rdx
10000bdfb: 3a 20                       	cmp	ah, byte ptr [rax]
10000bdfd: 66 61                       	<unknown>
10000bdff: 69 6c 65 64 20 74 6f 20     	imul	ebp, dword ptr [rbp + 2*riz + 100], 544175136
10000be07: 77 61                       	ja	0x10000be6a <__cstring+0x22d6>
10000be09: 69 74 20 66 6f 72 20 63     	imul	esi, dword ptr [rax + riz + 102], 1663070831
10000be11: 68 69 6c 64 20              	push	543452265
10000be16: 70 72                       	jo	0x10000be8a <__cstring+0x22f6>
10000be18: 6f                          	outsd	dx, dword ptr [rsi]
10000be19: 63 65 73                    	movsxd	esp, dword ptr [rbp + 115]
10000be1c: 73 3a                       	jae	0x10000be58 <__cstring+0x22c4>
10000be1e: 20 25 73 0a 00 4c           	and	byte ptr [rip + 1275071091], ah ## 0x14c00c897 <dyld_stub_binder+0x14c00c897>
10000be24: 4f 41                       	<unknown>
10000be26: 44 45                       	<unknown>
10000be28: 52                          	push	rdx
10000be29: 3a 20                       	cmp	ah, byte ptr [rax]
10000be2b: 66 61                       	<unknown>
10000be2d: 69 6c 65 64 20 74 6f 20     	imul	ebp, dword ptr [rbp + 2*riz + 100], 544175136
10000be35: 61                          	<unknown>
10000be36: 6c                          	insb	byte ptr es:[rdi], dx
10000be37: 6c                          	insb	byte ptr es:[rdi], dx
10000be38: 6f                          	outsd	dx, dword ptr [rsi]
10000be39: 63 61 74                    	movsxd	esp, dword ptr [rcx + 116]
10000be3c: 65 20 70 79                 	and	byte ptr gs:[rax + 121], dh
10000be40: 69 5f 61 72 67 76 3a        	imul	ebx, dword ptr [rdi + 97], 980838258
10000be47: 20 25 73 0a 00 4c           	and	byte ptr [rip + 1275071091], ah ## 0x14c00c8c0 <dyld_stub_binder+0x14c00c8c0>
10000be4d: 4f 41                       	<unknown>
10000be4f: 44 45                       	<unknown>
10000be51: 52                          	push	rdx
10000be52: 3a 20                       	cmp	ah, byte ptr [rax]
10000be54: 66 61                       	<unknown>
10000be56: 69 6c 65 64 20 74 6f 20     	imul	ebp, dword ptr [rbp + 2*riz + 100], 544175136
10000be5e: 73 74                       	jae	0x10000bed4 <dyld_stub_binder+0x10000bed4>
10000be60: 72 64                       	jb	0x10000bec6 <__cstring+0x2332>
10000be62: 75 70                       	jne	0x10000bed4 <dyld_stub_binder+0x10000bed4>
10000be64: 20 61 72                    	and	byte ptr [rcx + 114], ah
10000be67: 67 76 5b                    	addr32		jbe	0x10000bec5 <__cstring+0x2331>
10000be6a: 25 64 5d 3a 20              	and	eax, 540695908
10000be6f: 25 73 0a 00 4c              	and	eax, 1275071091
10000be74: 4f 41                       	<unknown>
10000be76: 44 45                       	<unknown>
10000be78: 52                          	push	rdx
10000be79: 3a 20                       	cmp	ah, byte ptr [rax]
10000be7b: 6c                          	insb	byte ptr es:[rdi], dx
10000be7c: 65 6e                       	outsb	dx, byte ptr gs:[rsi]
10000be7e: 67 74 68                    	addr32		je	0x10000bee9 <dyld_stub_binder+0x10000bee9>
10000be81: 20 6f 66                    	and	byte ptr [rdi + 102], ch
10000be84: 20 72 75                    	and	byte ptr [rdx + 117], dh
10000be87: 6e                          	outsb	dx, byte ptr [rsi]
10000be88: 74 69                       	je	0x10000bef3 <dyld_stub_binder+0x10000bef3>
10000be8a: 6d                          	insd	dword ptr es:[rdi], dx
10000be8b: 65 2d 74 6d 70 64           	sub	eax, 1685089652
10000be91: 69 72 20 65 78 63 65        	imul	esi, dword ptr [rdx + 32], 1701017701
10000be98: 65 64 73 20                 	jae	0x10000bebc <__cstring+0x2328>
10000be9c: 6d                          	insd	dword ptr es:[rdi], dx
10000be9d: 61                          	<unknown>
10000be9e: 78 69                       	js	0x10000bf09 <dyld_stub_binder+0x10000bf09>
10000bea0: 6d                          	insd	dword ptr es:[rdi], dx
10000bea1: 75 6d                       	jne	0x10000bf10 <dyld_stub_binder+0x10000bf10>
10000bea3: 20 70 61                    	and	byte ptr [rax + 97], dh
10000bea6: 74 68                       	je	0x10000bf10 <dyld_stub_binder+0x10000bf10>
10000bea8: 20 6c 65 6e                 	and	byte ptr [rbp + 2*riz + 110], ch
10000beac: 67 74 68                    	addr32		je	0x10000bf17 <dyld_stub_binder+0x10000bf17>
10000beaf: 21 0a                       	and	dword ptr [rdx], ecx
10000beb1: 00 5f 4d                    	add	byte ptr [rdi + 77], bl
10000beb4: 45 49                       	<unknown>
10000beb6: 58                          	pop	rax
10000beb7: 58                          	pop	rax
10000beb8: 58                          	pop	rax
10000beb9: 58                          	pop	rax
10000beba: 58                          	pop	rax
10000bebb: 58                          	pop	rax
10000bebc: 00 4c 49 53                 	add	byte ptr [rcx + 2*rcx + 83], cl
10000bec0: 54                          	push	rsp
10000bec1: 45 4e                       	<unknown>
10000bec3: 5f                          	pop	rdi
10000bec4: 50                          	push	rax
10000bec5: 49 44                       	<unknown>
10000bec7: 00 25                       	<unknown>
10000bec9: 6c                          	insb	byte ptr es:[rdi], dx
10000beca: 64 00                       	<unknown>

Disassembly of section __TEXT,__unwind_info:

000000010000becc <__unwind_info>:
10000becc: 01 00                       	add	dword ptr [rax], eax
10000bece: 00 00                       	add	byte ptr [rax], al
10000bed0: 1c 00                       	sbb	al, 0
10000bed2: 00 00                       	add	byte ptr [rax], al
10000bed4: 06                          	<unknown>
10000bed5: 00 00                       	add	byte ptr [rax], al
10000bed7: 00 34 00                    	add	byte ptr [rax + rax], dh
10000beda: 00 00                       	add	byte ptr [rax], al
10000bedc: 00 00                       	add	byte ptr [rax], al
10000bede: 00 00                       	add	byte ptr [rax], al
10000bee0: 34 00                       	xor	al, 0
10000bee2: 00 00                       	add	byte ptr [rax], al
10000bee4: 02 00                       	add	al, byte ptr [rax]
10000bee6: 00 00                       	add	byte ptr [rax], al
10000bee8: d1 58 05                    	rcr	dword ptr [rax + 5]
10000beeb: 01 00                       	add	dword ptr [rax], eax
10000beed: 00 00                       	add	byte ptr [rax], al
10000beef: 01 01                       	add	dword ptr [rcx], eax
10000bef1: 00 01                       	add	byte ptr [rcx], al
10000bef3: 01 11                       	add	dword ptr [rcx], edx
10000bef5: 0b 04 01                    	or	eax, dword ptr [rcx + rax]
10000bef8: 21 00                       	and	dword ptr [rax], eax
10000befa: 02 01                       	add	al, byte ptr [rcx]
10000befc: 61                          	<unknown>
10000befd: 01 03                       	add	dword ptr [rbx], eax
10000beff: 01 80 37 00 00 4c           	add	dword ptr [rax + 1275068471], eax
10000bf05: 00 00                       	add	byte ptr [rax], al
10000bf07: 00 4c 00 00                 	add	byte ptr [rax + rax], cl
10000bf0b: 00 f5                       	add	ch, dh
10000bf0d: 96                          	xchg	eax, esi
10000bf0e: 00 00                       	add	byte ptr [rax], al
10000bf10: 00 00                       	add	byte ptr [rax], al
10000bf12: 00 00                       	add	byte ptr [rax], al
10000bf14: 4c 00 00                    	add	byte ptr [rax], r8b
10000bf17: 00 03                       	add	byte ptr [rbx], al
10000bf19: 00 00                       	add	byte ptr [rax], al
10000bf1b: 00 0c 00                    	add	byte ptr [rax + rax], cl
10000bf1e: 35 00 e0 00 00              	xor	eax, 57344
10000bf23: 00 00                       	add	byte ptr [rax], al
10000bf25: 00 00                       	add	byte ptr [rax], al
10000bf27: 01 30                       	add	dword ptr [rax], esi
10000bf29: 00 00                       	add	byte ptr [rax], al
10000bf2b: 00 e0                       	add	al, ah
10000bf2d: 09 00                       	or	dword ptr [rax], eax
10000bf2f: 02 20                       	add	ah, byte ptr [rax]
10000bf31: 0a 00                       	or	al, byte ptr [rax]
10000bf33: 03 a0 0a 00 05 90           	add	esp, dword ptr [rax - 1878720502]
10000bf39: 0b 00                       	or	eax, dword ptr [rax]
10000bf3b: 00 80 0e 00 01 90           	add	byte ptr [rax - 1878982642], al
10000bf41: 0e                          	<unknown>
10000bf42: 00 00                       	add	byte ptr [rax], al
10000bf44: 20 11                       	and	byte ptr [rcx], dl
10000bf46: 00 02                       	add	byte ptr [rdx], al
10000bf48: 60                          	<unknown>
10000bf49: 11 00                       	adc	dword ptr [rax], eax
10000bf4b: 00 30                       	add	byte ptr [rax], dh
10000bf4d: 17                          	<unknown>
10000bf4e: 00 04 80                    	add	byte ptr [rax + 4*rax], al
10000bf51: 18 00                       	sbb	byte ptr [rax], al
10000bf53: 00 30                       	add	byte ptr [rax], dh
10000bf55: 1b 00                       	sbb	eax, dword ptr [rax]
10000bf57: 04 d0                       	add	al, -48
10000bf59: 1b 00                       	sbb	eax, dword ptr [rax]
10000bf5b: 02 00                       	add	al, byte ptr [rax]
10000bf5d: 1c 00                       	sbb	al, 0
10000bf5f: 03 90 1c 00 01 10           	add	edx, dword ptr [rax + 268501020]
10000bf65: 1d 00 04 90 1d              	sbb	eax, 495977472
10000bf6a: 00 00                       	add	byte ptr [rax], al
10000bf6c: 00 22                       	add	byte ptr [rdx], ah
10000bf6e: 00 01                       	add	byte ptr [rcx], al
10000bf70: 80 22 00                    	and	byte ptr [rdx], 0
10000bf73: 02 a0 22 00 01 20           	add	ah, byte ptr [rax + 536936482]
10000bf79: 24 00                       	and	al, 0
10000bf7b: 03 00                       	add	eax, dword ptr [rax]
10000bf7d: 27                          	<unknown>
10000bf7e: 00 00                       	add	byte ptr [rax], al
10000bf80: d0 28                       	shr	byte ptr [rax]
10000bf82: 00 04 a0                    	add	byte ptr [rax + 4*riz], al
10000bf85: 2c 00                       	sub	al, 0
10000bf87: 02 00                       	add	al, byte ptr [rax]
10000bf89: 34 00                       	xor	al, 0
10000bf8b: 05 10 35 00 03              	add	eax, 50345232
10000bf90: e0 36                       	loopne	0x10000bfc8 <__unwind_info+0xfc>
10000bf92: 00 00                       	add	byte ptr [rax], al
10000bf94: 30 3a                       	xor	byte ptr [rdx], bh
10000bf96: 00 02                       	add	byte ptr [rdx], al
10000bf98: 80 3a 00                    	cmp	byte ptr [rdx], 0
10000bf9b: 00 60 3c                    	add	byte ptr [rax + 60], ah
10000bf9e: 00 03                       	add	byte ptr [rbx], al
10000bfa0: 30 3d 00 00 50 43           	xor	byte ptr [rip + 1129316352], bh ## 0x14350bfa6 <dyld_stub_binder+0x14350bfa6>
10000bfa6: 00 02                       	add	byte ptr [rdx], al
10000bfa8: d0 43 00                    	rol	byte ptr [rbx]
10000bfab: 00 c0                       	add	al, al
10000bfad: 44 00 02                    	add	byte ptr [rdx], r8b
10000bfb0: 50                          	push	rax
10000bfb1: 45 00 05 00 46 00 01        	add	byte ptr [rip + 16795136], r8b ## 0x1010105b8 <dyld_stub_binder+0x1010105b8>
10000bfb8: 30 46 00                    	xor	byte ptr [rsi], al
10000bfbb: 04 b0                       	add	al, -80
10000bfbd: 46 00 01                    	add	byte ptr [rcx], r8b
10000bfc0: c0 46 00 03                 	rol	byte ptr [rsi], 3
10000bfc4: 90                          	nop
10000bfc5: 47 00 01                    	add	byte ptr [r9], r8b
10000bfc8: a0 47 00 03 c0 49 00 04 f0  	movabs	al, byte ptr [-1151795287945969593]
10000bfd1: 4e 00 00                    	add	byte ptr [rax], r8b
10000bfd4: d0 52 00                    	rcl	byte ptr [rdx]
10000bfd7: 01 10                       	add	dword ptr [rax], edx
10000bfd9: 53                          	push	rbx
10000bfda: 00 00                       	add	byte ptr [rax], al
10000bfdc: f0                          	lock
10000bfdd: 5a                          	pop	rdx
10000bfde: 00 01                       	add	byte ptr [rcx], al
10000bfe0: 10 5b 00                    	adc	byte ptr [rbx], bl
10000bfe3: 03 f0                       	add	esi, eax
10000bfe5: 5c                          	pop	rsp
10000bfe6: 00 01                       	add	byte ptr [rcx], al
10000bfe8: 20 5d 00                    	and	byte ptr [rbp], bl
10000bfeb: 03 e0                       	add	esp, eax
10000bfed: 5d                          	pop	rbp
10000bfee: 00 05 60 5e 00 04           	add	byte ptr [rip + 67133024], al ## 0x104011e54 <dyld_stub_binder+0x104011e54>
10000bff4: c0 5e 00 02                 	rcr	byte ptr [rsi], 2

Disassembly of section __DATA,__nl_symbol_ptr:

000000010000c000 <__nl_symbol_ptr>:
		...

Disassembly of section __DATA,__got:

000000010000c008 <__got>:
		...

Disassembly of section __DATA,__la_symbol_ptr:

000000010000c028 <__la_symbol_ptr>:
10000c028: a4                          	movsb	byte ptr es:[rdi], byte ptr [rsi]
10000c029: 98                          	cwde
10000c02a: 00 00                       	add	byte ptr [rax], al
10000c02c: 01 00                       	add	dword ptr [rax], eax
10000c02e: 00 00                       	add	byte ptr [rax], al
10000c030: ae                          	scasb	al, byte ptr es:[rdi]
10000c031: 98                          	cwde
10000c032: 00 00                       	add	byte ptr [rax], al
10000c034: 01 00                       	add	dword ptr [rax], eax
10000c036: 00 00                       	add	byte ptr [rax], al
10000c038: b8 98 00 00 01              	mov	eax, 16777368
10000c03d: 00 00                       	add	byte ptr [rax], al
10000c03f: 00 c2                       	add	dl, al
10000c041: 98                          	cwde
10000c042: 00 00                       	add	byte ptr [rax], al
10000c044: 01 00                       	add	dword ptr [rax], eax
10000c046: 00 00                       	add	byte ptr [rax], al
10000c048: cc                          	int3
10000c049: 98                          	cwde
10000c04a: 00 00                       	add	byte ptr [rax], al
10000c04c: 01 00                       	add	dword ptr [rax], eax
10000c04e: 00 00                       	add	byte ptr [rax], al
10000c050: d6                          	<unknown>
10000c051: 98                          	cwde
10000c052: 00 00                       	add	byte ptr [rax], al
10000c054: 01 00                       	add	dword ptr [rax], eax
10000c056: 00 00                       	add	byte ptr [rax], al
10000c058: e0 98                       	loopne	0x10000bff2 <__unwind_info+0x126>
10000c05a: 00 00                       	add	byte ptr [rax], al
10000c05c: 01 00                       	add	dword ptr [rax], eax
10000c05e: 00 00                       	add	byte ptr [rax], al
10000c060: ea                          	<unknown>
10000c061: 98                          	cwde
10000c062: 00 00                       	add	byte ptr [rax], al
10000c064: 01 00                       	add	dword ptr [rax], eax
10000c066: 00 00                       	add	byte ptr [rax], al
10000c068: f4                          	hlt
10000c069: 98                          	cwde
10000c06a: 00 00                       	add	byte ptr [rax], al
10000c06c: 01 00                       	add	dword ptr [rax], eax
10000c06e: 00 00                       	add	byte ptr [rax], al
10000c070: fe 98 00 00 01 00           	<unknown>
10000c076: 00 00                       	add	byte ptr [rax], al
10000c078: 08 99 00 00 01 00           	or	byte ptr [rcx + 65536], bl
10000c07e: 00 00                       	add	byte ptr [rax], al
10000c080: 12 99 00 00 01 00           	adc	bl, byte ptr [rcx + 65536]
10000c086: 00 00                       	add	byte ptr [rax], al
10000c088: 1c 99                       	sbb	al, -103
10000c08a: 00 00                       	add	byte ptr [rax], al
10000c08c: 01 00                       	add	dword ptr [rax], eax
10000c08e: 00 00                       	add	byte ptr [rax], al
10000c090: 26 99                       	cdq
10000c092: 00 00                       	add	byte ptr [rax], al
10000c094: 01 00                       	add	dword ptr [rax], eax
10000c096: 00 00                       	add	byte ptr [rax], al
10000c098: 30 99 00 00 01 00           	xor	byte ptr [rcx + 65536], bl
10000c09e: 00 00                       	add	byte ptr [rax], al
10000c0a0: 3a 99 00 00 01 00           	cmp	bl, byte ptr [rcx + 65536]
10000c0a6: 00 00                       	add	byte ptr [rax], al
10000c0a8: 44 99                       	cdq
10000c0aa: 00 00                       	add	byte ptr [rax], al
10000c0ac: 01 00                       	add	dword ptr [rax], eax
10000c0ae: 00 00                       	add	byte ptr [rax], al
10000c0b0: 4e 99                       	cqo
10000c0b2: 00 00                       	add	byte ptr [rax], al
10000c0b4: 01 00                       	add	dword ptr [rax], eax
10000c0b6: 00 00                       	add	byte ptr [rax], al
10000c0b8: 58                          	pop	rax
10000c0b9: 99                          	cdq
10000c0ba: 00 00                       	add	byte ptr [rax], al
10000c0bc: 01 00                       	add	dword ptr [rax], eax
10000c0be: 00 00                       	add	byte ptr [rax], al
10000c0c0: 62                          	<unknown>
10000c0c1: 99                          	cdq
10000c0c2: 00 00                       	add	byte ptr [rax], al
10000c0c4: 01 00                       	add	dword ptr [rax], eax
10000c0c6: 00 00                       	add	byte ptr [rax], al
10000c0c8: 6c                          	insb	byte ptr es:[rdi], dx
10000c0c9: 99                          	cdq
10000c0ca: 00 00                       	add	byte ptr [rax], al
10000c0cc: 01 00                       	add	dword ptr [rax], eax
10000c0ce: 00 00                       	add	byte ptr [rax], al
10000c0d0: 76 99                       	jbe	0x10000c06b <__la_symbol_ptr+0x43>
10000c0d2: 00 00                       	add	byte ptr [rax], al
10000c0d4: 01 00                       	add	dword ptr [rax], eax
10000c0d6: 00 00                       	add	byte ptr [rax], al
10000c0d8: 80 99 00 00 01 00 00        	sbb	byte ptr [rcx + 65536], 0
10000c0df: 00 8a 99 00 00 01           	add	byte ptr [rdx + 16777369], cl
10000c0e5: 00 00                       	add	byte ptr [rax], al
10000c0e7: 00 94 99 00 00 01 00        	add	byte ptr [rcx + 4*rbx + 65536], dl
10000c0ee: 00 00                       	add	byte ptr [rax], al
10000c0f0: 9e                          	sahf
10000c0f1: 99                          	cdq
10000c0f2: 00 00                       	add	byte ptr [rax], al
10000c0f4: 01 00                       	add	dword ptr [rax], eax
10000c0f6: 00 00                       	add	byte ptr [rax], al
10000c0f8: a8 99                       	test	al, -103
10000c0fa: 00 00                       	add	byte ptr [rax], al
10000c0fc: 01 00                       	add	dword ptr [rax], eax
10000c0fe: 00 00                       	add	byte ptr [rax], al
10000c100: b2 99                       	mov	dl, -103
10000c102: 00 00                       	add	byte ptr [rax], al
10000c104: 01 00                       	add	dword ptr [rax], eax
10000c106: 00 00                       	add	byte ptr [rax], al
10000c108: bc 99 00 00 01              	mov	esp, 16777369
10000c10d: 00 00                       	add	byte ptr [rax], al
10000c10f: 00 38                       	add	byte ptr [rax], bh
10000c111: 9b                          	wait
10000c112: 00 00                       	add	byte ptr [rax], al
10000c114: 01 00                       	add	dword ptr [rax], eax
10000c116: 00 00                       	add	byte ptr [rax], al
10000c118: 42 9b                       	wait
10000c11a: 00 00                       	add	byte ptr [rax], al
10000c11c: 01 00                       	add	dword ptr [rax], eax
10000c11e: 00 00                       	add	byte ptr [rax], al
10000c120: 4c 9b                       	wait
10000c122: 00 00                       	add	byte ptr [rax], al
10000c124: 01 00                       	add	dword ptr [rax], eax
10000c126: 00 00                       	add	byte ptr [rax], al
10000c128: c6 99 00 00 01 00           	<unknown>
10000c12e: 00 00                       	add	byte ptr [rax], al
10000c130: d0 99 00 00 01 00           	rcr	byte ptr [rcx + 65536]
10000c136: 00 00                       	add	byte ptr [rax], al
10000c138: da 99 00 00 01 00           	ficomp	dword ptr [rcx + 65536]
10000c13e: 00 00                       	add	byte ptr [rax], al
10000c140: e4 99                       	in	al, 153
10000c142: 00 00                       	add	byte ptr [rax], al
10000c144: 01 00                       	add	dword ptr [rax], eax
10000c146: 00 00                       	add	byte ptr [rax], al
10000c148: ee                          	out	dx, al
10000c149: 99                          	cdq
10000c14a: 00 00                       	add	byte ptr [rax], al
10000c14c: 01 00                       	add	dword ptr [rax], eax
10000c14e: 00 00                       	add	byte ptr [rax], al
10000c150: f8                          	clc
10000c151: 99                          	cdq
10000c152: 00 00                       	add	byte ptr [rax], al
10000c154: 01 00                       	add	dword ptr [rax], eax
10000c156: 00 00                       	add	byte ptr [rax], al
10000c158: 02 9a 00 00 01 00           	add	bl, byte ptr [rdx + 65536]
10000c15e: 00 00                       	add	byte ptr [rax], al
10000c160: 0c 9a                       	or	al, -102
10000c162: 00 00                       	add	byte ptr [rax], al
10000c164: 01 00                       	add	dword ptr [rax], eax
10000c166: 00 00                       	add	byte ptr [rax], al
10000c168: 16                          	<unknown>
10000c169: 9a                          	<unknown>
10000c16a: 00 00                       	add	byte ptr [rax], al
10000c16c: 01 00                       	add	dword ptr [rax], eax
10000c16e: 00 00                       	add	byte ptr [rax], al
10000c170: 20 9a 00 00 01 00           	and	byte ptr [rdx + 65536], bl
10000c176: 00 00                       	add	byte ptr [rax], al
10000c178: 2a 9a 00 00 01 00           	sub	bl, byte ptr [rdx + 65536]
10000c17e: 00 00                       	add	byte ptr [rax], al
10000c180: 34 9a                       	xor	al, -102
10000c182: 00 00                       	add	byte ptr [rax], al
10000c184: 01 00                       	add	dword ptr [rax], eax
10000c186: 00 00                       	add	byte ptr [rax], al
10000c188: 3e 9a                       	<unknown>
10000c18a: 00 00                       	add	byte ptr [rax], al
10000c18c: 01 00                       	add	dword ptr [rax], eax
10000c18e: 00 00                       	add	byte ptr [rax], al
10000c190: 48 9a                       	<unknown>
10000c192: 00 00                       	add	byte ptr [rax], al
10000c194: 01 00                       	add	dword ptr [rax], eax
10000c196: 00 00                       	add	byte ptr [rax], al
10000c198: 52                          	push	rdx
10000c199: 9a                          	<unknown>
10000c19a: 00 00                       	add	byte ptr [rax], al
10000c19c: 01 00                       	add	dword ptr [rax], eax
10000c19e: 00 00                       	add	byte ptr [rax], al
10000c1a0: 5c                          	pop	rsp
10000c1a1: 9a                          	<unknown>
10000c1a2: 00 00                       	add	byte ptr [rax], al
10000c1a4: 01 00                       	add	dword ptr [rax], eax
10000c1a6: 00 00                       	add	byte ptr [rax], al
10000c1a8: 66 9a                       	<unknown>
10000c1aa: 00 00                       	add	byte ptr [rax], al
10000c1ac: 01 00                       	add	dword ptr [rax], eax
10000c1ae: 00 00                       	add	byte ptr [rax], al
10000c1b0: 70 9a                       	jo	0x10000c14c <__la_symbol_ptr+0x124>
10000c1b2: 00 00                       	add	byte ptr [rax], al
10000c1b4: 01 00                       	add	dword ptr [rax], eax
10000c1b6: 00 00                       	add	byte ptr [rax], al
10000c1b8: 7a 9a                       	jp	0x10000c154 <__la_symbol_ptr+0x12c>
10000c1ba: 00 00                       	add	byte ptr [rax], al
10000c1bc: 01 00                       	add	dword ptr [rax], eax
10000c1be: 00 00                       	add	byte ptr [rax], al
10000c1c0: 84 9a 00 00 01 00           	test	byte ptr [rdx + 65536], bl
10000c1c6: 00 00                       	add	byte ptr [rax], al
10000c1c8: 8e 9a 00 00 01 00           	mov	ds, word ptr [rdx + 65536]
10000c1ce: 00 00                       	add	byte ptr [rax], al
10000c1d0: 98                          	cwde
10000c1d1: 9a                          	<unknown>
10000c1d2: 00 00                       	add	byte ptr [rax], al
10000c1d4: 01 00                       	add	dword ptr [rax], eax
10000c1d6: 00 00                       	add	byte ptr [rax], al
10000c1d8: a2 9a 00 00 01 00 00 00 ac  	movabs	byte ptr [-6052837899169169254], al
10000c1e1: 9a                          	<unknown>
10000c1e2: 00 00                       	add	byte ptr [rax], al
10000c1e4: 01 00                       	add	dword ptr [rax], eax
10000c1e6: 00 00                       	add	byte ptr [rax], al
10000c1e8: b6 9a                       	mov	dh, -102
10000c1ea: 00 00                       	add	byte ptr [rax], al
10000c1ec: 01 00                       	add	dword ptr [rax], eax
10000c1ee: 00 00                       	add	byte ptr [rax], al
10000c1f0: c0 9a 00 00 01 00 00        	rcr	byte ptr [rdx + 65536], 0
10000c1f7: 00 ca                       	add	dl, cl
10000c1f9: 9a                          	<unknown>
10000c1fa: 00 00                       	add	byte ptr [rax], al
10000c1fc: 01 00                       	add	dword ptr [rax], eax
10000c1fe: 00 00                       	add	byte ptr [rax], al
10000c200: d4                          	<unknown>
10000c201: 9a                          	<unknown>
10000c202: 00 00                       	add	byte ptr [rax], al
10000c204: 01 00                       	add	dword ptr [rax], eax
10000c206: 00 00                       	add	byte ptr [rax], al
10000c208: de 9a 00 00 01 00           	ficomp	word ptr [rdx + 65536]
10000c20e: 00 00                       	add	byte ptr [rax], al
10000c210: e8 9a 00 00 01              	call	0x10100c2af <dyld_stub_binder+0x10100c2af>
10000c215: 00 00                       	add	byte ptr [rax], al
10000c217: 00 f2                       	add	dl, dh
10000c219: 9a                          	<unknown>
10000c21a: 00 00                       	add	byte ptr [rax], al
10000c21c: 01 00                       	add	dword ptr [rax], eax
10000c21e: 00 00                       	add	byte ptr [rax], al
10000c220: fc                          	cld
10000c221: 9a                          	<unknown>
10000c222: 00 00                       	add	byte ptr [rax], al
10000c224: 01 00                       	add	dword ptr [rax], eax
10000c226: 00 00                       	add	byte ptr [rax], al
10000c228: 06                          	<unknown>
10000c229: 9b                          	wait
10000c22a: 00 00                       	add	byte ptr [rax], al
10000c22c: 01 00                       	add	dword ptr [rax], eax
10000c22e: 00 00                       	add	byte ptr [rax], al
10000c230: 10 9b 00 00 01 00           	adc	byte ptr [rbx + 65536], bl
10000c236: 00 00                       	add	byte ptr [rax], al
10000c238: 1a 9b 00 00 01 00           	sbb	bl, byte ptr [rbx + 65536]
10000c23e: 00 00                       	add	byte ptr [rax], al
10000c240: 24 9b                       	and	al, -101
10000c242: 00 00                       	add	byte ptr [rax], al
10000c244: 01 00                       	add	dword ptr [rax], eax
10000c246: 00 00                       	add	byte ptr [rax], al
10000c248: 2e 9b                       	wait
10000c24a: 00 00                       	add	byte ptr [rax], al
10000c24c: 01 00                       	add	dword ptr [rax], eax
10000c24e: 00 00                       	add	byte ptr [rax], al

Disassembly of section __DATA,__data:

000000010000c250 <__data>:
10000c250: 58                          	pop	rax
10000c251: c2 00 00                    	ret	0
10000c254: 01 00                       	add	dword ptr [rax], eax
10000c256: 00 00                       	add	byte ptr [rax], al

Disassembly of section __DATA,__bss:

000000010000c258 <__bss>:
...

Disassembly of section __DATA,__common:

000000010000cec0 <__common>:
...
